
stm32f401ccu6_TicTakToe_touch_audio_display.elf:     file format elf32-littlearm

Sections:
Idx Name          Size      VMA       LMA       File off  Algn
  0 .isr_vector   00000194  08000000  08000000  00010000  2**0
                  CONTENTS, ALLOC, LOAD, READONLY, DATA
  1 .text         0000e180  080001a0  080001a0  000101a0  2**4
                  CONTENTS, ALLOC, LOAD, READONLY, CODE
  2 .rodata       0002e914  0800e320  0800e320  0001e320  2**2
                  CONTENTS, ALLOC, LOAD, READONLY, DATA
  3 .ARM.extab    00000000  0803cc34  0803cc34  00050174  2**0
                  CONTENTS
  4 .ARM          00000008  0803cc34  0803cc34  0004cc34  2**2
                  CONTENTS, ALLOC, LOAD, READONLY, DATA
  5 .preinit_array 00000000  0803cc3c  0803cc3c  00050174  2**0
                  CONTENTS, ALLOC, LOAD, DATA
  6 .init_array   00000004  0803cc3c  0803cc3c  0004cc3c  2**2
                  CONTENTS, ALLOC, LOAD, DATA
  7 .fini_array   00000004  0803cc40  0803cc40  0004cc40  2**2
                  CONTENTS, ALLOC, LOAD, DATA
  8 .data         00000174  20000000  0803cc44  00050000  2**2
                  CONTENTS, ALLOC, LOAD, DATA
  9 .bss          00000044  20000174  0803cdb8  00050174  2**2
                  ALLOC
 10 ._user_heap_stack 00000600  200001b8  0803cdb8  000501b8  2**0
                  ALLOC
 11 .ARM.attributes 00000030  00000000  00000000  00050174  2**0
                  CONTENTS, READONLY
 12 .comment      00000050  00000000  00000000  000501a4  2**0
                  CONTENTS, READONLY
 13 .debug_frame  00000b9c  00000000  00000000  000501f4  2**2
                  CONTENTS, READONLY, DEBUGGING, OCTETS

Disassembly of section .text:

080001a0 <__do_global_dtors_aux>:
 80001a0:	b510      	push	{r4, lr}
 80001a2:	4c05      	ldr	r4, [pc, #20]	; (80001b8 <__do_global_dtors_aux+0x18>)
 80001a4:	7823      	ldrb	r3, [r4, #0]
 80001a6:	b933      	cbnz	r3, 80001b6 <__do_global_dtors_aux+0x16>
 80001a8:	4b04      	ldr	r3, [pc, #16]	; (80001bc <__do_global_dtors_aux+0x1c>)
 80001aa:	b113      	cbz	r3, 80001b2 <__do_global_dtors_aux+0x12>
 80001ac:	4804      	ldr	r0, [pc, #16]	; (80001c0 <__do_global_dtors_aux+0x20>)
 80001ae:	f3af 8000 	nop.w
 80001b2:	2301      	movs	r3, #1
 80001b4:	7023      	strb	r3, [r4, #0]
 80001b6:	bd10      	pop	{r4, pc}
 80001b8:	20000174 	.word	0x20000174
 80001bc:	00000000 	.word	0x00000000
 80001c0:	0800e308 	.word	0x0800e308

080001c4 <frame_dummy>:
 80001c4:	b508      	push	{r3, lr}
 80001c6:	4b03      	ldr	r3, [pc, #12]	; (80001d4 <frame_dummy+0x10>)
 80001c8:	b11b      	cbz	r3, 80001d2 <frame_dummy+0xe>
 80001ca:	4903      	ldr	r1, [pc, #12]	; (80001d8 <frame_dummy+0x14>)
 80001cc:	4803      	ldr	r0, [pc, #12]	; (80001dc <frame_dummy+0x18>)
 80001ce:	f3af 8000 	nop.w
 80001d2:	bd08      	pop	{r3, pc}
 80001d4:	00000000 	.word	0x00000000
 80001d8:	20000178 	.word	0x20000178
 80001dc:	0800e308 	.word	0x0800e308

080001e0 <xmp3_PolyphaseStereo>:
 80001e0:	e92d 4ff0 	stmdb	sp!, {r4, r5, r6, r7, r8, r9, sl, fp, lr}
 80001e4:	b082      	sub	sp, #8
 80001e6:	9001      	str	r0, [sp, #4]
 80001e8:	f04f 7400 	mov.w	r4, #33554432	; 0x2000000
 80001ec:	f04f 7800 	mov.w	r8, #33554432	; 0x2000000
 80001f0:	f04f 0500 	mov.w	r5, #0
 80001f4:	f04f 0900 	mov.w	r9, #0
 80001f8:	f852 cb04 	ldr.w	ip, [r2], #4
 80001fc:	f852 eb04 	ldr.w	lr, [r2], #4
 8000200:	6808      	ldr	r0, [r1, #0]
 8000202:	6dcb      	ldr	r3, [r1, #92]	; 0x5c
 8000204:	fbc0 450c 	smlal	r4, r5, r0, ip
 8000208:	f8d1 0080 	ldr.w	r0, [r1, #128]	; 0x80
 800020c:	f1ce 0e00 	rsb	lr, lr, #0
 8000210:	fbc3 450e 	smlal	r4, r5, r3, lr
 8000214:	f8d1 30dc 	ldr.w	r3, [r1, #220]	; 0xdc
 8000218:	fbc0 890c 	smlal	r8, r9, r0, ip
 800021c:	fbc3 890e 	smlal	r8, r9, r3, lr
 8000220:	f852 cb04 	ldr.w	ip, [r2], #4
 8000224:	f852 eb04 	ldr.w	lr, [r2], #4
 8000228:	6848      	ldr	r0, [r1, #4]
 800022a:	6d8b      	ldr	r3, [r1, #88]	; 0x58
 800022c:	fbc0 450c 	smlal	r4, r5, r0, ip
 8000230:	f8d1 0084 	ldr.w	r0, [r1, #132]	; 0x84
 8000234:	f1ce 0e00 	rsb	lr, lr, #0
 8000238:	fbc3 450e 	smlal	r4, r5, r3, lr
 800023c:	f8d1 30d8 	ldr.w	r3, [r1, #216]	; 0xd8
 8000240:	fbc0 890c 	smlal	r8, r9, r0, ip
 8000244:	fbc3 890e 	smlal	r8, r9, r3, lr
 8000248:	f852 cb04 	ldr.w	ip, [r2], #4
 800024c:	f852 eb04 	ldr.w	lr, [r2], #4
 8000250:	6888      	ldr	r0, [r1, #8]
 8000252:	6d4b      	ldr	r3, [r1, #84]	; 0x54
 8000254:	fbc0 450c 	smlal	r4, r5, r0, ip
 8000258:	f8d1 0088 	ldr.w	r0, [r1, #136]	; 0x88
 800025c:	f1ce 0e00 	rsb	lr, lr, #0
 8000260:	fbc3 450e 	smlal	r4, r5, r3, lr
 8000264:	f8d1 30d4 	ldr.w	r3, [r1, #212]	; 0xd4
 8000268:	fbc0 890c 	smlal	r8, r9, r0, ip
 800026c:	fbc3 890e 	smlal	r8, r9, r3, lr
 8000270:	f852 cb04 	ldr.w	ip, [r2], #4
 8000274:	f852 eb04 	ldr.w	lr, [r2], #4
 8000278:	68c8      	ldr	r0, [r1, #12]
 800027a:	6d0b      	ldr	r3, [r1, #80]	; 0x50
 800027c:	fbc0 450c 	smlal	r4, r5, r0, ip
 8000280:	f8d1 008c 	ldr.w	r0, [r1, #140]	; 0x8c
 8000284:	f1ce 0e00 	rsb	lr, lr, #0
 8000288:	fbc3 450e 	smlal	r4, r5, r3, lr
 800028c:	f8d1 30d0 	ldr.w	r3, [r1, #208]	; 0xd0
 8000290:	fbc0 890c 	smlal	r8, r9, r0, ip
 8000294:	fbc3 890e 	smlal	r8, r9, r3, lr
 8000298:	f852 cb04 	ldr.w	ip, [r2], #4
 800029c:	f852 eb04 	ldr.w	lr, [r2], #4
 80002a0:	6908      	ldr	r0, [r1, #16]
 80002a2:	6ccb      	ldr	r3, [r1, #76]	; 0x4c
 80002a4:	fbc0 450c 	smlal	r4, r5, r0, ip
 80002a8:	f8d1 0090 	ldr.w	r0, [r1, #144]	; 0x90
 80002ac:	f1ce 0e00 	rsb	lr, lr, #0
 80002b0:	fbc3 450e 	smlal	r4, r5, r3, lr
 80002b4:	f8d1 30cc 	ldr.w	r3, [r1, #204]	; 0xcc
 80002b8:	fbc0 890c 	smlal	r8, r9, r0, ip
 80002bc:	fbc3 890e 	smlal	r8, r9, r3, lr
 80002c0:	f852 cb04 	ldr.w	ip, [r2], #4
 80002c4:	f852 eb04 	ldr.w	lr, [r2], #4
 80002c8:	6948      	ldr	r0, [r1, #20]
 80002ca:	6c8b      	ldr	r3, [r1, #72]	; 0x48
 80002cc:	fbc0 450c 	smlal	r4, r5, r0, ip
 80002d0:	f8d1 0094 	ldr.w	r0, [r1, #148]	; 0x94
 80002d4:	f1ce 0e00 	rsb	lr, lr, #0
 80002d8:	fbc3 450e 	smlal	r4, r5, r3, lr
 80002dc:	f8d1 30c8 	ldr.w	r3, [r1, #200]	; 0xc8
 80002e0:	fbc0 890c 	smlal	r8, r9, r0, ip
 80002e4:	fbc3 890e 	smlal	r8, r9, r3, lr
 80002e8:	f852 cb04 	ldr.w	ip, [r2], #4
 80002ec:	f852 eb04 	ldr.w	lr, [r2], #4
 80002f0:	6988      	ldr	r0, [r1, #24]
 80002f2:	6c4b      	ldr	r3, [r1, #68]	; 0x44
 80002f4:	fbc0 450c 	smlal	r4, r5, r0, ip
 80002f8:	f8d1 0098 	ldr.w	r0, [r1, #152]	; 0x98
 80002fc:	f1ce 0e00 	rsb	lr, lr, #0
 8000300:	fbc3 450e 	smlal	r4, r5, r3, lr
 8000304:	f8d1 30c4 	ldr.w	r3, [r1, #196]	; 0xc4
 8000308:	fbc0 890c 	smlal	r8, r9, r0, ip
 800030c:	fbc3 890e 	smlal	r8, r9, r3, lr
 8000310:	f852 cb04 	ldr.w	ip, [r2], #4
 8000314:	f852 eb04 	ldr.w	lr, [r2], #4
 8000318:	69c8      	ldr	r0, [r1, #28]
 800031a:	6c0b      	ldr	r3, [r1, #64]	; 0x40
 800031c:	fbc0 450c 	smlal	r4, r5, r0, ip
 8000320:	f8d1 009c 	ldr.w	r0, [r1, #156]	; 0x9c
 8000324:	f1ce 0e00 	rsb	lr, lr, #0
 8000328:	fbc3 450e 	smlal	r4, r5, r3, lr
 800032c:	f8d1 30c0 	ldr.w	r3, [r1, #192]	; 0xc0
 8000330:	fbc0 890c 	smlal	r8, r9, r0, ip
 8000334:	fbc3 890e 	smlal	r8, r9, r3, lr
 8000338:	9801      	ldr	r0, [sp, #4]
 800033a:	f44f 4efe 	mov.w	lr, #32512	; 0x7f00
 800033e:	f04e 0eff 	orr.w	lr, lr, #255	; 0xff
 8000342:	ea4f 6494 	mov.w	r4, r4, lsr #26
 8000346:	ea44 1485 	orr.w	r4, r4, r5, lsl #6
 800034a:	f304 040f 	ssat	r4, #16, r4
 800034e:	ea4f 6898 	mov.w	r8, r8, lsr #26
 8000352:	ea48 1889 	orr.w	r8, r8, r9, lsl #6
 8000356:	f308 080f 	ssat	r8, #16, r8
 800035a:	8004      	strh	r4, [r0, #0]
 800035c:	f8a0 8002 	strh.w	r8, [r0, #2]
 8000360:	f502 7270 	add.w	r2, r2, #960	; 0x3c0
 8000364:	f501 5180 	add.w	r1, r1, #4096	; 0x1000
 8000368:	f04f 7400 	mov.w	r4, #33554432	; 0x2000000
 800036c:	f04f 7800 	mov.w	r8, #33554432	; 0x2000000
 8000370:	f04f 0500 	mov.w	r5, #0
 8000374:	f04f 0900 	mov.w	r9, #0
 8000378:	f852 cb04 	ldr.w	ip, [r2], #4
 800037c:	6808      	ldr	r0, [r1, #0]
 800037e:	f8d1 3080 	ldr.w	r3, [r1, #128]	; 0x80
 8000382:	fbc0 450c 	smlal	r4, r5, r0, ip
 8000386:	fbc3 890c 	smlal	r8, r9, r3, ip
 800038a:	f852 cb04 	ldr.w	ip, [r2], #4
 800038e:	6848      	ldr	r0, [r1, #4]
 8000390:	f8d1 3084 	ldr.w	r3, [r1, #132]	; 0x84
 8000394:	fbc0 450c 	smlal	r4, r5, r0, ip
 8000398:	fbc3 890c 	smlal	r8, r9, r3, ip
 800039c:	f852 cb04 	ldr.w	ip, [r2], #4
 80003a0:	6888      	ldr	r0, [r1, #8]
 80003a2:	f8d1 3088 	ldr.w	r3, [r1, #136]	; 0x88
 80003a6:	fbc0 450c 	smlal	r4, r5, r0, ip
 80003aa:	fbc3 890c 	smlal	r8, r9, r3, ip
 80003ae:	f852 cb04 	ldr.w	ip, [r2], #4
 80003b2:	68c8      	ldr	r0, [r1, #12]
 80003b4:	f8d1 308c 	ldr.w	r3, [r1, #140]	; 0x8c
 80003b8:	fbc0 450c 	smlal	r4, r5, r0, ip
 80003bc:	fbc3 890c 	smlal	r8, r9, r3, ip
 80003c0:	f852 cb04 	ldr.w	ip, [r2], #4
 80003c4:	6908      	ldr	r0, [r1, #16]
 80003c6:	f8d1 3090 	ldr.w	r3, [r1, #144]	; 0x90
 80003ca:	fbc0 450c 	smlal	r4, r5, r0, ip
 80003ce:	fbc3 890c 	smlal	r8, r9, r3, ip
 80003d2:	f852 cb04 	ldr.w	ip, [r2], #4
 80003d6:	6948      	ldr	r0, [r1, #20]
 80003d8:	f8d1 3094 	ldr.w	r3, [r1, #148]	; 0x94
 80003dc:	fbc0 450c 	smlal	r4, r5, r0, ip
 80003e0:	fbc3 890c 	smlal	r8, r9, r3, ip
 80003e4:	f852 cb04 	ldr.w	ip, [r2], #4
 80003e8:	6988      	ldr	r0, [r1, #24]
 80003ea:	f8d1 3098 	ldr.w	r3, [r1, #152]	; 0x98
 80003ee:	fbc0 450c 	smlal	r4, r5, r0, ip
 80003f2:	fbc3 890c 	smlal	r8, r9, r3, ip
 80003f6:	f852 cb04 	ldr.w	ip, [r2], #4
 80003fa:	69c8      	ldr	r0, [r1, #28]
 80003fc:	f8d1 309c 	ldr.w	r3, [r1, #156]	; 0x9c
 8000400:	fbc0 450c 	smlal	r4, r5, r0, ip
 8000404:	fbc3 890c 	smlal	r8, r9, r3, ip
 8000408:	9801      	ldr	r0, [sp, #4]
 800040a:	f44f 4efe 	mov.w	lr, #32512	; 0x7f00
 800040e:	f04e 0eff 	orr.w	lr, lr, #255	; 0xff
 8000412:	ea4f 6494 	mov.w	r4, r4, lsr #26
 8000416:	ea44 1485 	orr.w	r4, r4, r5, lsl #6
 800041a:	f304 040f 	ssat	r4, #16, r4
 800041e:	ea4f 6898 	mov.w	r8, r8, lsr #26
 8000422:	ea48 1889 	orr.w	r8, r8, r9, lsl #6
 8000426:	f308 080f 	ssat	r8, #16, r8
 800042a:	f8a0 4040 	strh.w	r4, [r0, #64]	; 0x40
 800042e:	f8a0 8042 	strh.w	r8, [r0, #66]	; 0x42
 8000432:	f5a2 7278 	sub.w	r2, r2, #992	; 0x3e0
 8000436:	f5a1 6170 	sub.w	r1, r1, #3840	; 0xf00
 800043a:	f04f 0c0f 	mov.w	ip, #15
 800043e:	f100 0004 	add.w	r0, r0, #4

08000442 <LoopPS>:
 8000442:	f8cd c000 	str.w	ip, [sp]
 8000446:	9001      	str	r0, [sp, #4]
 8000448:	f04f 7400 	mov.w	r4, #33554432	; 0x2000000
 800044c:	f04f 7800 	mov.w	r8, #33554432	; 0x2000000
 8000450:	f04f 7600 	mov.w	r6, #33554432	; 0x2000000
 8000454:	f04f 7a00 	mov.w	sl, #33554432	; 0x2000000
 8000458:	f04f 0500 	mov.w	r5, #0
 800045c:	f04f 0900 	mov.w	r9, #0
 8000460:	f04f 0700 	mov.w	r7, #0
 8000464:	f04f 0b00 	mov.w	fp, #0
 8000468:	f852 cb04 	ldr.w	ip, [r2], #4
 800046c:	f852 eb04 	ldr.w	lr, [r2], #4
 8000470:	6808      	ldr	r0, [r1, #0]
 8000472:	6dcb      	ldr	r3, [r1, #92]	; 0x5c
 8000474:	fbc0 450c 	smlal	r4, r5, r0, ip
 8000478:	fbc0 670e 	smlal	r6, r7, r0, lr
 800047c:	f1ce 0e00 	rsb	lr, lr, #0
 8000480:	fbc3 670c 	smlal	r6, r7, r3, ip
 8000484:	fbc3 450e 	smlal	r4, r5, r3, lr
 8000488:	f8d1 30dc 	ldr.w	r3, [r1, #220]	; 0xdc
 800048c:	f8d1 0080 	ldr.w	r0, [r1, #128]	; 0x80
 8000490:	fbc3 890e 	smlal	r8, r9, r3, lr
 8000494:	fbc3 ab0c 	smlal	sl, fp, r3, ip
 8000498:	f1ce 0e00 	rsb	lr, lr, #0
 800049c:	fbc0 890c 	smlal	r8, r9, r0, ip
 80004a0:	fbc0 ab0e 	smlal	sl, fp, r0, lr
 80004a4:	f852 cb04 	ldr.w	ip, [r2], #4
 80004a8:	f852 eb04 	ldr.w	lr, [r2], #4
 80004ac:	6848      	ldr	r0, [r1, #4]
 80004ae:	6d8b      	ldr	r3, [r1, #88]	; 0x58
 80004b0:	fbc0 450c 	smlal	r4, r5, r0, ip
 80004b4:	fbc0 670e 	smlal	r6, r7, r0, lr
 80004b8:	f1ce 0e00 	rsb	lr, lr, #0
 80004bc:	fbc3 670c 	smlal	r6, r7, r3, ip
 80004c0:	fbc3 450e 	smlal	r4, r5, r3, lr
 80004c4:	f8d1 30d8 	ldr.w	r3, [r1, #216]	; 0xd8
 80004c8:	f8d1 0084 	ldr.w	r0, [r1, #132]	; 0x84
 80004cc:	fbc3 890e 	smlal	r8, r9, r3, lr
 80004d0:	fbc3 ab0c 	smlal	sl, fp, r3, ip
 80004d4:	f1ce 0e00 	rsb	lr, lr, #0
 80004d8:	fbc0 890c 	smlal	r8, r9, r0, ip
 80004dc:	fbc0 ab0e 	smlal	sl, fp, r0, lr
 80004e0:	f852 cb04 	ldr.w	ip, [r2], #4
 80004e4:	f852 eb04 	ldr.w	lr, [r2], #4
 80004e8:	6888      	ldr	r0, [r1, #8]
 80004ea:	6d4b      	ldr	r3, [r1, #84]	; 0x54
 80004ec:	fbc0 450c 	smlal	r4, r5, r0, ip
 80004f0:	fbc0 670e 	smlal	r6, r7, r0, lr
 80004f4:	f1ce 0e00 	rsb	lr, lr, #0
 80004f8:	fbc3 670c 	smlal	r6, r7, r3, ip
 80004fc:	fbc3 450e 	smlal	r4, r5, r3, lr
 8000500:	f8d1 30d4 	ldr.w	r3, [r1, #212]	; 0xd4
 8000504:	f8d1 0088 	ldr.w	r0, [r1, #136]	; 0x88
 8000508:	fbc3 890e 	smlal	r8, r9, r3, lr
 800050c:	fbc3 ab0c 	smlal	sl, fp, r3, ip
 8000510:	f1ce 0e00 	rsb	lr, lr, #0
 8000514:	fbc0 890c 	smlal	r8, r9, r0, ip
 8000518:	fbc0 ab0e 	smlal	sl, fp, r0, lr
 800051c:	f852 cb04 	ldr.w	ip, [r2], #4
 8000520:	f852 eb04 	ldr.w	lr, [r2], #4
 8000524:	68c8      	ldr	r0, [r1, #12]
 8000526:	6d0b      	ldr	r3, [r1, #80]	; 0x50
 8000528:	fbc0 450c 	smlal	r4, r5, r0, ip
 800052c:	fbc0 670e 	smlal	r6, r7, r0, lr
 8000530:	f1ce 0e00 	rsb	lr, lr, #0
 8000534:	fbc3 670c 	smlal	r6, r7, r3, ip
 8000538:	fbc3 450e 	smlal	r4, r5, r3, lr
 800053c:	f8d1 30d0 	ldr.w	r3, [r1, #208]	; 0xd0
 8000540:	f8d1 008c 	ldr.w	r0, [r1, #140]	; 0x8c
 8000544:	fbc3 890e 	smlal	r8, r9, r3, lr
 8000548:	fbc3 ab0c 	smlal	sl, fp, r3, ip
 800054c:	f1ce 0e00 	rsb	lr, lr, #0
 8000550:	fbc0 890c 	smlal	r8, r9, r0, ip
 8000554:	fbc0 ab0e 	smlal	sl, fp, r0, lr
 8000558:	f852 cb04 	ldr.w	ip, [r2], #4
 800055c:	f852 eb04 	ldr.w	lr, [r2], #4
 8000560:	6908      	ldr	r0, [r1, #16]
 8000562:	6ccb      	ldr	r3, [r1, #76]	; 0x4c
 8000564:	fbc0 450c 	smlal	r4, r5, r0, ip
 8000568:	fbc0 670e 	smlal	r6, r7, r0, lr
 800056c:	f1ce 0e00 	rsb	lr, lr, #0
 8000570:	fbc3 670c 	smlal	r6, r7, r3, ip
 8000574:	fbc3 450e 	smlal	r4, r5, r3, lr
 8000578:	f8d1 30cc 	ldr.w	r3, [r1, #204]	; 0xcc
 800057c:	f8d1 0090 	ldr.w	r0, [r1, #144]	; 0x90
 8000580:	fbc3 890e 	smlal	r8, r9, r3, lr
 8000584:	fbc3 ab0c 	smlal	sl, fp, r3, ip
 8000588:	f1ce 0e00 	rsb	lr, lr, #0
 800058c:	fbc0 890c 	smlal	r8, r9, r0, ip
 8000590:	fbc0 ab0e 	smlal	sl, fp, r0, lr
 8000594:	f852 cb04 	ldr.w	ip, [r2], #4
 8000598:	f852 eb04 	ldr.w	lr, [r2], #4
 800059c:	6948      	ldr	r0, [r1, #20]
 800059e:	6c8b      	ldr	r3, [r1, #72]	; 0x48
 80005a0:	fbc0 450c 	smlal	r4, r5, r0, ip
 80005a4:	fbc0 670e 	smlal	r6, r7, r0, lr
 80005a8:	f1ce 0e00 	rsb	lr, lr, #0
 80005ac:	fbc3 670c 	smlal	r6, r7, r3, ip
 80005b0:	fbc3 450e 	smlal	r4, r5, r3, lr
 80005b4:	f8d1 30c8 	ldr.w	r3, [r1, #200]	; 0xc8
 80005b8:	f8d1 0094 	ldr.w	r0, [r1, #148]	; 0x94
 80005bc:	fbc3 890e 	smlal	r8, r9, r3, lr
 80005c0:	fbc3 ab0c 	smlal	sl, fp, r3, ip
 80005c4:	f1ce 0e00 	rsb	lr, lr, #0
 80005c8:	fbc0 890c 	smlal	r8, r9, r0, ip
 80005cc:	fbc0 ab0e 	smlal	sl, fp, r0, lr
 80005d0:	f852 cb04 	ldr.w	ip, [r2], #4
 80005d4:	f852 eb04 	ldr.w	lr, [r2], #4
 80005d8:	6988      	ldr	r0, [r1, #24]
 80005da:	6c4b      	ldr	r3, [r1, #68]	; 0x44
 80005dc:	fbc0 450c 	smlal	r4, r5, r0, ip
 80005e0:	fbc0 670e 	smlal	r6, r7, r0, lr
 80005e4:	f1ce 0e00 	rsb	lr, lr, #0
 80005e8:	fbc3 670c 	smlal	r6, r7, r3, ip
 80005ec:	fbc3 450e 	smlal	r4, r5, r3, lr
 80005f0:	f8d1 30c4 	ldr.w	r3, [r1, #196]	; 0xc4
 80005f4:	f8d1 0098 	ldr.w	r0, [r1, #152]	; 0x98
 80005f8:	fbc3 890e 	smlal	r8, r9, r3, lr
 80005fc:	fbc3 ab0c 	smlal	sl, fp, r3, ip
 8000600:	f1ce 0e00 	rsb	lr, lr, #0
 8000604:	fbc0 890c 	smlal	r8, r9, r0, ip
 8000608:	fbc0 ab0e 	smlal	sl, fp, r0, lr
 800060c:	f852 cb04 	ldr.w	ip, [r2], #4
 8000610:	f852 eb04 	ldr.w	lr, [r2], #4
 8000614:	69c8      	ldr	r0, [r1, #28]
 8000616:	6c0b      	ldr	r3, [r1, #64]	; 0x40
 8000618:	fbc0 450c 	smlal	r4, r5, r0, ip
 800061c:	fbc0 670e 	smlal	r6, r7, r0, lr
 8000620:	f1ce 0e00 	rsb	lr, lr, #0
 8000624:	fbc3 670c 	smlal	r6, r7, r3, ip
 8000628:	fbc3 450e 	smlal	r4, r5, r3, lr
 800062c:	f8d1 30c0 	ldr.w	r3, [r1, #192]	; 0xc0
 8000630:	f8d1 009c 	ldr.w	r0, [r1, #156]	; 0x9c
 8000634:	fbc3 890e 	smlal	r8, r9, r3, lr
 8000638:	fbc3 ab0c 	smlal	sl, fp, r3, ip
 800063c:	f1ce 0e00 	rsb	lr, lr, #0
 8000640:	fbc0 890c 	smlal	r8, r9, r0, ip
 8000644:	fbc0 ab0e 	smlal	sl, fp, r0, lr
 8000648:	f501 7180 	add.w	r1, r1, #256	; 0x100
 800064c:	9801      	ldr	r0, [sp, #4]
 800064e:	f44f 4efe 	mov.w	lr, #32512	; 0x7f00
 8000652:	f04e 0eff 	orr.w	lr, lr, #255	; 0xff
 8000656:	ea4f 6494 	mov.w	r4, r4, lsr #26
 800065a:	ea44 1485 	orr.w	r4, r4, r5, lsl #6
 800065e:	f304 040f 	ssat	r4, #16, r4
 8000662:	ea4f 6898 	mov.w	r8, r8, lsr #26
 8000666:	ea48 1889 	orr.w	r8, r8, r9, lsl #6
 800066a:	f308 080f 	ssat	r8, #16, r8
 800066e:	ea4f 6696 	mov.w	r6, r6, lsr #26
 8000672:	ea46 1687 	orr.w	r6, r6, r7, lsl #6
 8000676:	f306 060f 	ssat	r6, #16, r6
 800067a:	ea4f 6a9a 	mov.w	sl, sl, lsr #26
 800067e:	ea4a 1a8b 	orr.w	sl, sl, fp, lsl #6
 8000682:	f30a 0a0f 	ssat	sl, #16, sl
 8000686:	f8dd c000 	ldr.w	ip, [sp]
 800068a:	eb00 0ecc 	add.w	lr, r0, ip, lsl #3
 800068e:	f82e 6b02 	strh.w	r6, [lr], #2
 8000692:	f82e ab02 	strh.w	sl, [lr], #2
 8000696:	f820 4b02 	strh.w	r4, [r0], #2
 800069a:	f820 8b02 	strh.w	r8, [r0], #2
 800069e:	f1bc 0c01 	subs.w	ip, ip, #1
 80006a2:	f47f aece 	bne.w	8000442 <LoopPS>
 80006a6:	b002      	add	sp, #8
 80006a8:	e8bd 8ff0 	ldmia.w	sp!, {r4, r5, r6, r7, r8, r9, sl, fp, pc}

080006ac <xmp3_PolyphaseMono>:
 80006ac:	e92d 4ff0 	stmdb	sp!, {r4, r5, r6, r7, r8, r9, sl, fp, lr}
 80006b0:	b082      	sub	sp, #8
 80006b2:	9001      	str	r0, [sp, #4]
 80006b4:	f04f 7400 	mov.w	r4, #33554432	; 0x2000000
 80006b8:	f04f 0500 	mov.w	r5, #0
 80006bc:	f852 cb04 	ldr.w	ip, [r2], #4
 80006c0:	f852 eb04 	ldr.w	lr, [r2], #4
 80006c4:	6808      	ldr	r0, [r1, #0]
 80006c6:	6dcb      	ldr	r3, [r1, #92]	; 0x5c
 80006c8:	f1ce 0e00 	rsb	lr, lr, #0
 80006cc:	fbc0 450c 	smlal	r4, r5, r0, ip
 80006d0:	fbc3 450e 	smlal	r4, r5, r3, lr
 80006d4:	f852 cb04 	ldr.w	ip, [r2], #4
 80006d8:	f852 eb04 	ldr.w	lr, [r2], #4
 80006dc:	6848      	ldr	r0, [r1, #4]
 80006de:	6d8b      	ldr	r3, [r1, #88]	; 0x58
 80006e0:	f1ce 0e00 	rsb	lr, lr, #0
 80006e4:	fbc0 450c 	smlal	r4, r5, r0, ip
 80006e8:	fbc3 450e 	smlal	r4, r5, r3, lr
 80006ec:	f852 cb04 	ldr.w	ip, [r2], #4
 80006f0:	f852 eb04 	ldr.w	lr, [r2], #4
 80006f4:	6888      	ldr	r0, [r1, #8]
 80006f6:	6d4b      	ldr	r3, [r1, #84]	; 0x54
 80006f8:	f1ce 0e00 	rsb	lr, lr, #0
 80006fc:	fbc0 450c 	smlal	r4, r5, r0, ip
 8000700:	fbc3 450e 	smlal	r4, r5, r3, lr
 8000704:	f852 cb04 	ldr.w	ip, [r2], #4
 8000708:	f852 eb04 	ldr.w	lr, [r2], #4
 800070c:	68c8      	ldr	r0, [r1, #12]
 800070e:	6d0b      	ldr	r3, [r1, #80]	; 0x50
 8000710:	f1ce 0e00 	rsb	lr, lr, #0
 8000714:	fbc0 450c 	smlal	r4, r5, r0, ip
 8000718:	fbc3 450e 	smlal	r4, r5, r3, lr
 800071c:	f852 cb04 	ldr.w	ip, [r2], #4
 8000720:	f852 eb04 	ldr.w	lr, [r2], #4
 8000724:	6908      	ldr	r0, [r1, #16]
 8000726:	6ccb      	ldr	r3, [r1, #76]	; 0x4c
 8000728:	f1ce 0e00 	rsb	lr, lr, #0
 800072c:	fbc0 450c 	smlal	r4, r5, r0, ip
 8000730:	fbc3 450e 	smlal	r4, r5, r3, lr
 8000734:	f852 cb04 	ldr.w	ip, [r2], #4
 8000738:	f852 eb04 	ldr.w	lr, [r2], #4
 800073c:	6948      	ldr	r0, [r1, #20]
 800073e:	6c8b      	ldr	r3, [r1, #72]	; 0x48
 8000740:	f1ce 0e00 	rsb	lr, lr, #0
 8000744:	fbc0 450c 	smlal	r4, r5, r0, ip
 8000748:	fbc3 450e 	smlal	r4, r5, r3, lr
 800074c:	f852 cb04 	ldr.w	ip, [r2], #4
 8000750:	f852 eb04 	ldr.w	lr, [r2], #4
 8000754:	6988      	ldr	r0, [r1, #24]
 8000756:	6c4b      	ldr	r3, [r1, #68]	; 0x44
 8000758:	f1ce 0e00 	rsb	lr, lr, #0
 800075c:	fbc0 450c 	smlal	r4, r5, r0, ip
 8000760:	fbc3 450e 	smlal	r4, r5, r3, lr
 8000764:	f852 cb04 	ldr.w	ip, [r2], #4
 8000768:	f852 eb04 	ldr.w	lr, [r2], #4
 800076c:	69c8      	ldr	r0, [r1, #28]
 800076e:	6c0b      	ldr	r3, [r1, #64]	; 0x40
 8000770:	f1ce 0e00 	rsb	lr, lr, #0
 8000774:	fbc0 450c 	smlal	r4, r5, r0, ip
 8000778:	fbc3 450e 	smlal	r4, r5, r3, lr
 800077c:	9801      	ldr	r0, [sp, #4]
 800077e:	f44f 4efe 	mov.w	lr, #32512	; 0x7f00
 8000782:	f04e 0eff 	orr.w	lr, lr, #255	; 0xff
 8000786:	ea4f 6494 	mov.w	r4, r4, lsr #26
 800078a:	ea44 1485 	orr.w	r4, r4, r5, lsl #6
 800078e:	f304 040f 	ssat	r4, #16, r4
 8000792:	8004      	strh	r4, [r0, #0]
 8000794:	f502 7270 	add.w	r2, r2, #960	; 0x3c0
 8000798:	f501 5180 	add.w	r1, r1, #4096	; 0x1000
 800079c:	f04f 7400 	mov.w	r4, #33554432	; 0x2000000
 80007a0:	f04f 0500 	mov.w	r5, #0
 80007a4:	f852 cb04 	ldr.w	ip, [r2], #4
 80007a8:	6808      	ldr	r0, [r1, #0]
 80007aa:	fbc0 450c 	smlal	r4, r5, r0, ip
 80007ae:	f852 cb04 	ldr.w	ip, [r2], #4
 80007b2:	6848      	ldr	r0, [r1, #4]
 80007b4:	fbc0 450c 	smlal	r4, r5, r0, ip
 80007b8:	f852 cb04 	ldr.w	ip, [r2], #4
 80007bc:	6888      	ldr	r0, [r1, #8]
 80007be:	fbc0 450c 	smlal	r4, r5, r0, ip
 80007c2:	f852 cb04 	ldr.w	ip, [r2], #4
 80007c6:	68c8      	ldr	r0, [r1, #12]
 80007c8:	fbc0 450c 	smlal	r4, r5, r0, ip
 80007cc:	f852 cb04 	ldr.w	ip, [r2], #4
 80007d0:	6908      	ldr	r0, [r1, #16]
 80007d2:	fbc0 450c 	smlal	r4, r5, r0, ip
 80007d6:	f852 cb04 	ldr.w	ip, [r2], #4
 80007da:	6948      	ldr	r0, [r1, #20]
 80007dc:	fbc0 450c 	smlal	r4, r5, r0, ip
 80007e0:	f852 cb04 	ldr.w	ip, [r2], #4
 80007e4:	6988      	ldr	r0, [r1, #24]
 80007e6:	fbc0 450c 	smlal	r4, r5, r0, ip
 80007ea:	f852 cb04 	ldr.w	ip, [r2], #4
 80007ee:	69c8      	ldr	r0, [r1, #28]
 80007f0:	fbc0 450c 	smlal	r4, r5, r0, ip
 80007f4:	9801      	ldr	r0, [sp, #4]
 80007f6:	f44f 4efe 	mov.w	lr, #32512	; 0x7f00
 80007fa:	f04e 0eff 	orr.w	lr, lr, #255	; 0xff
 80007fe:	ea4f 6494 	mov.w	r4, r4, lsr #26
 8000802:	ea44 1485 	orr.w	r4, r4, r5, lsl #6
 8000806:	f304 040f 	ssat	r4, #16, r4
 800080a:	8404      	strh	r4, [r0, #32]
 800080c:	f5a2 7278 	sub.w	r2, r2, #992	; 0x3e0
 8000810:	f5a1 6170 	sub.w	r1, r1, #3840	; 0xf00
 8000814:	f04f 0c0f 	mov.w	ip, #15
 8000818:	f100 0002 	add.w	r0, r0, #2

0800081c <LoopPM>:
 800081c:	f8cd c000 	str.w	ip, [sp]
 8000820:	9001      	str	r0, [sp, #4]
 8000822:	f04f 7400 	mov.w	r4, #33554432	; 0x2000000
 8000826:	f04f 7600 	mov.w	r6, #33554432	; 0x2000000
 800082a:	f04f 0500 	mov.w	r5, #0
 800082e:	f04f 0700 	mov.w	r7, #0
 8000832:	f852 cb04 	ldr.w	ip, [r2], #4
 8000836:	f852 eb04 	ldr.w	lr, [r2], #4
 800083a:	6808      	ldr	r0, [r1, #0]
 800083c:	6dcb      	ldr	r3, [r1, #92]	; 0x5c
 800083e:	fbc0 450c 	smlal	r4, r5, r0, ip
 8000842:	fbc0 670e 	smlal	r6, r7, r0, lr
 8000846:	f1ce 0e00 	rsb	lr, lr, #0
 800084a:	fbc3 450e 	smlal	r4, r5, r3, lr
 800084e:	fbc3 670c 	smlal	r6, r7, r3, ip
 8000852:	f852 cb04 	ldr.w	ip, [r2], #4
 8000856:	f852 eb04 	ldr.w	lr, [r2], #4
 800085a:	6848      	ldr	r0, [r1, #4]
 800085c:	6d8b      	ldr	r3, [r1, #88]	; 0x58
 800085e:	fbc0 450c 	smlal	r4, r5, r0, ip
 8000862:	fbc0 670e 	smlal	r6, r7, r0, lr
 8000866:	f1ce 0e00 	rsb	lr, lr, #0
 800086a:	fbc3 450e 	smlal	r4, r5, r3, lr
 800086e:	fbc3 670c 	smlal	r6, r7, r3, ip
 8000872:	f852 cb04 	ldr.w	ip, [r2], #4
 8000876:	f852 eb04 	ldr.w	lr, [r2], #4
 800087a:	6888      	ldr	r0, [r1, #8]
 800087c:	6d4b      	ldr	r3, [r1, #84]	; 0x54
 800087e:	fbc0 450c 	smlal	r4, r5, r0, ip
 8000882:	fbc0 670e 	smlal	r6, r7, r0, lr
 8000886:	f1ce 0e00 	rsb	lr, lr, #0
 800088a:	fbc3 450e 	smlal	r4, r5, r3, lr
 800088e:	fbc3 670c 	smlal	r6, r7, r3, ip
 8000892:	f852 cb04 	ldr.w	ip, [r2], #4
 8000896:	f852 eb04 	ldr.w	lr, [r2], #4
 800089a:	68c8      	ldr	r0, [r1, #12]
 800089c:	6d0b      	ldr	r3, [r1, #80]	; 0x50
 800089e:	fbc0 450c 	smlal	r4, r5, r0, ip
 80008a2:	fbc0 670e 	smlal	r6, r7, r0, lr
 80008a6:	f1ce 0e00 	rsb	lr, lr, #0
 80008aa:	fbc3 450e 	smlal	r4, r5, r3, lr
 80008ae:	fbc3 670c 	smlal	r6, r7, r3, ip
 80008b2:	f852 cb04 	ldr.w	ip, [r2], #4
 80008b6:	f852 eb04 	ldr.w	lr, [r2], #4
 80008ba:	6908      	ldr	r0, [r1, #16]
 80008bc:	6ccb      	ldr	r3, [r1, #76]	; 0x4c
 80008be:	fbc0 450c 	smlal	r4, r5, r0, ip
 80008c2:	fbc0 670e 	smlal	r6, r7, r0, lr
 80008c6:	f1ce 0e00 	rsb	lr, lr, #0
 80008ca:	fbc3 450e 	smlal	r4, r5, r3, lr
 80008ce:	fbc3 670c 	smlal	r6, r7, r3, ip
 80008d2:	f852 cb04 	ldr.w	ip, [r2], #4
 80008d6:	f852 eb04 	ldr.w	lr, [r2], #4
 80008da:	6948      	ldr	r0, [r1, #20]
 80008dc:	6c8b      	ldr	r3, [r1, #72]	; 0x48
 80008de:	fbc0 450c 	smlal	r4, r5, r0, ip
 80008e2:	fbc0 670e 	smlal	r6, r7, r0, lr
 80008e6:	f1ce 0e00 	rsb	lr, lr, #0
 80008ea:	fbc3 450e 	smlal	r4, r5, r3, lr
 80008ee:	fbc3 670c 	smlal	r6, r7, r3, ip
 80008f2:	f852 cb04 	ldr.w	ip, [r2], #4
 80008f6:	f852 eb04 	ldr.w	lr, [r2], #4
 80008fa:	6988      	ldr	r0, [r1, #24]
 80008fc:	6c4b      	ldr	r3, [r1, #68]	; 0x44
 80008fe:	fbc0 450c 	smlal	r4, r5, r0, ip
 8000902:	fbc0 670e 	smlal	r6, r7, r0, lr
 8000906:	f1ce 0e00 	rsb	lr, lr, #0
 800090a:	fbc3 450e 	smlal	r4, r5, r3, lr
 800090e:	fbc3 670c 	smlal	r6, r7, r3, ip
 8000912:	f852 cb04 	ldr.w	ip, [r2], #4
 8000916:	f852 eb04 	ldr.w	lr, [r2], #4
 800091a:	69c8      	ldr	r0, [r1, #28]
 800091c:	6c0b      	ldr	r3, [r1, #64]	; 0x40
 800091e:	fbc0 450c 	smlal	r4, r5, r0, ip
 8000922:	fbc0 670e 	smlal	r6, r7, r0, lr
 8000926:	f1ce 0e00 	rsb	lr, lr, #0
 800092a:	fbc3 450e 	smlal	r4, r5, r3, lr
 800092e:	fbc3 670c 	smlal	r6, r7, r3, ip
 8000932:	f501 7180 	add.w	r1, r1, #256	; 0x100
 8000936:	9801      	ldr	r0, [sp, #4]
 8000938:	f44f 4efe 	mov.w	lr, #32512	; 0x7f00
 800093c:	f04e 0eff 	orr.w	lr, lr, #255	; 0xff
 8000940:	ea4f 6494 	mov.w	r4, r4, lsr #26
 8000944:	ea44 1485 	orr.w	r4, r4, r5, lsl #6
 8000948:	f304 040f 	ssat	r4, #16, r4
 800094c:	ea4f 6696 	mov.w	r6, r6, lsr #26
 8000950:	ea46 1687 	orr.w	r6, r6, r7, lsl #6
 8000954:	f306 060f 	ssat	r6, #16, r6
 8000958:	f8dd c000 	ldr.w	ip, [sp]
 800095c:	eb00 0e8c 	add.w	lr, r0, ip, lsl #2
 8000960:	f82e 6b02 	strh.w	r6, [lr], #2
 8000964:	f820 4b02 	strh.w	r4, [r0], #2
 8000968:	f1bc 0c01 	subs.w	ip, ip, #1
 800096c:	f47f af56 	bne.w	800081c <LoopPM>
 8000970:	b002      	add	sp, #8
 8000972:	e8bd 8ff0 	ldmia.w	sp!, {r4, r5, r6, r7, r8, r9, sl, fp, pc}

08000976 <strlen>:
 8000976:	4603      	mov	r3, r0
 8000978:	f813 2b01 	ldrb.w	r2, [r3], #1
 800097c:	2a00      	cmp	r2, #0
 800097e:	d1fb      	bne.n	8000978 <strlen+0x2>
 8000980:	1a18      	subs	r0, r3, r0
 8000982:	3801      	subs	r0, #1
 8000984:	4770      	bx	lr
	...

08000990 <memchr>:
 8000990:	f001 01ff 	and.w	r1, r1, #255	; 0xff
 8000994:	2a10      	cmp	r2, #16
 8000996:	db2b      	blt.n	80009f0 <memchr+0x60>
 8000998:	f010 0f07 	tst.w	r0, #7
 800099c:	d008      	beq.n	80009b0 <memchr+0x20>
 800099e:	f810 3b01 	ldrb.w	r3, [r0], #1
 80009a2:	3a01      	subs	r2, #1
 80009a4:	428b      	cmp	r3, r1
 80009a6:	d02d      	beq.n	8000a04 <memchr+0x74>
 80009a8:	f010 0f07 	tst.w	r0, #7
 80009ac:	b342      	cbz	r2, 8000a00 <memchr+0x70>
 80009ae:	d1f6      	bne.n	800099e <memchr+0xe>
 80009b0:	b4f0      	push	{r4, r5, r6, r7}
 80009b2:	ea41 2101 	orr.w	r1, r1, r1, lsl #8
 80009b6:	ea41 4101 	orr.w	r1, r1, r1, lsl #16
 80009ba:	f022 0407 	bic.w	r4, r2, #7
 80009be:	f07f 0700 	mvns.w	r7, #0
 80009c2:	2300      	movs	r3, #0
 80009c4:	e8f0 5602 	ldrd	r5, r6, [r0], #8
 80009c8:	3c08      	subs	r4, #8
 80009ca:	ea85 0501 	eor.w	r5, r5, r1
 80009ce:	ea86 0601 	eor.w	r6, r6, r1
 80009d2:	fa85 f547 	uadd8	r5, r5, r7
 80009d6:	faa3 f587 	sel	r5, r3, r7
 80009da:	fa86 f647 	uadd8	r6, r6, r7
 80009de:	faa5 f687 	sel	r6, r5, r7
 80009e2:	b98e      	cbnz	r6, 8000a08 <memchr+0x78>
 80009e4:	d1ee      	bne.n	80009c4 <memchr+0x34>
 80009e6:	bcf0      	pop	{r4, r5, r6, r7}
 80009e8:	f001 01ff 	and.w	r1, r1, #255	; 0xff
 80009ec:	f002 0207 	and.w	r2, r2, #7
 80009f0:	b132      	cbz	r2, 8000a00 <memchr+0x70>
 80009f2:	f810 3b01 	ldrb.w	r3, [r0], #1
 80009f6:	3a01      	subs	r2, #1
 80009f8:	ea83 0301 	eor.w	r3, r3, r1
 80009fc:	b113      	cbz	r3, 8000a04 <memchr+0x74>
 80009fe:	d1f8      	bne.n	80009f2 <memchr+0x62>
 8000a00:	2000      	movs	r0, #0
 8000a02:	4770      	bx	lr
 8000a04:	3801      	subs	r0, #1
 8000a06:	4770      	bx	lr
 8000a08:	2d00      	cmp	r5, #0
 8000a0a:	bf06      	itte	eq
 8000a0c:	4635      	moveq	r5, r6
 8000a0e:	3803      	subeq	r0, #3
 8000a10:	3807      	subne	r0, #7
 8000a12:	f015 0f01 	tst.w	r5, #1
 8000a16:	d107      	bne.n	8000a28 <memchr+0x98>
 8000a18:	3001      	adds	r0, #1
 8000a1a:	f415 7f80 	tst.w	r5, #256	; 0x100
 8000a1e:	bf02      	ittt	eq
 8000a20:	3001      	addeq	r0, #1
 8000a22:	f415 3fc0 	tsteq.w	r5, #98304	; 0x18000
 8000a26:	3001      	addeq	r0, #1
 8000a28:	bcf0      	pop	{r4, r5, r6, r7}
 8000a2a:	3801      	subs	r0, #1
 8000a2c:	4770      	bx	lr
 8000a2e:	bf00      	nop

08000a30 <__aeabi_ldivmod>:
 8000a30:	b97b      	cbnz	r3, 8000a52 <__aeabi_ldivmod+0x22>
 8000a32:	b972      	cbnz	r2, 8000a52 <__aeabi_ldivmod+0x22>
 8000a34:	2900      	cmp	r1, #0
 8000a36:	bfbe      	ittt	lt
 8000a38:	2000      	movlt	r0, #0
 8000a3a:	f04f 4100 	movlt.w	r1, #2147483648	; 0x80000000
 8000a3e:	e006      	blt.n	8000a4e <__aeabi_ldivmod+0x1e>
 8000a40:	bf08      	it	eq
 8000a42:	2800      	cmpeq	r0, #0
 8000a44:	bf1c      	itt	ne
 8000a46:	f06f 4100 	mvnne.w	r1, #2147483648	; 0x80000000
 8000a4a:	f04f 30ff 	movne.w	r0, #4294967295
 8000a4e:	f000 b9a7 	b.w	8000da0 <__aeabi_idiv0>
 8000a52:	f1ad 0c08 	sub.w	ip, sp, #8
 8000a56:	e96d ce04 	strd	ip, lr, [sp, #-16]!
 8000a5a:	2900      	cmp	r1, #0
 8000a5c:	db09      	blt.n	8000a72 <__aeabi_ldivmod+0x42>
 8000a5e:	2b00      	cmp	r3, #0
 8000a60:	db1a      	blt.n	8000a98 <__aeabi_ldivmod+0x68>
 8000a62:	f000 f835 	bl	8000ad0 <__udivmoddi4>
 8000a66:	f8dd e004 	ldr.w	lr, [sp, #4]
 8000a6a:	e9dd 2302 	ldrd	r2, r3, [sp, #8]
 8000a6e:	b004      	add	sp, #16
 8000a70:	4770      	bx	lr
 8000a72:	4240      	negs	r0, r0
 8000a74:	eb61 0141 	sbc.w	r1, r1, r1, lsl #1
 8000a78:	2b00      	cmp	r3, #0
 8000a7a:	db1b      	blt.n	8000ab4 <__aeabi_ldivmod+0x84>
 8000a7c:	f000 f828 	bl	8000ad0 <__udivmoddi4>
 8000a80:	f8dd e004 	ldr.w	lr, [sp, #4]
 8000a84:	e9dd 2302 	ldrd	r2, r3, [sp, #8]
 8000a88:	b004      	add	sp, #16
 8000a8a:	4240      	negs	r0, r0
 8000a8c:	eb61 0141 	sbc.w	r1, r1, r1, lsl #1
 8000a90:	4252      	negs	r2, r2
 8000a92:	eb63 0343 	sbc.w	r3, r3, r3, lsl #1
 8000a96:	4770      	bx	lr
 8000a98:	4252      	negs	r2, r2
 8000a9a:	eb63 0343 	sbc.w	r3, r3, r3, lsl #1
 8000a9e:	f000 f817 	bl	8000ad0 <__udivmoddi4>
 8000aa2:	f8dd e004 	ldr.w	lr, [sp, #4]
 8000aa6:	e9dd 2302 	ldrd	r2, r3, [sp, #8]
 8000aaa:	b004      	add	sp, #16
 8000aac:	4240      	negs	r0, r0
 8000aae:	eb61 0141 	sbc.w	r1, r1, r1, lsl #1
 8000ab2:	4770      	bx	lr
 8000ab4:	4252      	negs	r2, r2
 8000ab6:	eb63 0343 	sbc.w	r3, r3, r3, lsl #1
 8000aba:	f000 f809 	bl	8000ad0 <__udivmoddi4>
 8000abe:	f8dd e004 	ldr.w	lr, [sp, #4]
 8000ac2:	e9dd 2302 	ldrd	r2, r3, [sp, #8]
 8000ac6:	b004      	add	sp, #16
 8000ac8:	4252      	negs	r2, r2
 8000aca:	eb63 0343 	sbc.w	r3, r3, r3, lsl #1
 8000ace:	4770      	bx	lr

08000ad0 <__udivmoddi4>:
 8000ad0:	e92d 47f0 	stmdb	sp!, {r4, r5, r6, r7, r8, r9, sl, lr}
 8000ad4:	9d08      	ldr	r5, [sp, #32]
 8000ad6:	4604      	mov	r4, r0
 8000ad8:	468e      	mov	lr, r1
 8000ada:	2b00      	cmp	r3, #0
 8000adc:	d14d      	bne.n	8000b7a <__udivmoddi4+0xaa>
 8000ade:	428a      	cmp	r2, r1
 8000ae0:	4694      	mov	ip, r2
 8000ae2:	d969      	bls.n	8000bb8 <__udivmoddi4+0xe8>
 8000ae4:	fab2 f282 	clz	r2, r2
 8000ae8:	b152      	cbz	r2, 8000b00 <__udivmoddi4+0x30>
 8000aea:	fa01 f302 	lsl.w	r3, r1, r2
 8000aee:	f1c2 0120 	rsb	r1, r2, #32
 8000af2:	fa20 f101 	lsr.w	r1, r0, r1
 8000af6:	fa0c fc02 	lsl.w	ip, ip, r2
 8000afa:	ea41 0e03 	orr.w	lr, r1, r3
 8000afe:	4094      	lsls	r4, r2
 8000b00:	ea4f 481c 	mov.w	r8, ip, lsr #16
 8000b04:	0c21      	lsrs	r1, r4, #16
 8000b06:	fbbe f6f8 	udiv	r6, lr, r8
 8000b0a:	fa1f f78c 	uxth.w	r7, ip
 8000b0e:	fb08 e316 	mls	r3, r8, r6, lr
 8000b12:	ea41 4303 	orr.w	r3, r1, r3, lsl #16
 8000b16:	fb06 f107 	mul.w	r1, r6, r7
 8000b1a:	4299      	cmp	r1, r3
 8000b1c:	d90a      	bls.n	8000b34 <__udivmoddi4+0x64>
 8000b1e:	eb1c 0303 	adds.w	r3, ip, r3
 8000b22:	f106 30ff 	add.w	r0, r6, #4294967295
 8000b26:	f080 811f 	bcs.w	8000d68 <__udivmoddi4+0x298>
 8000b2a:	4299      	cmp	r1, r3
 8000b2c:	f240 811c 	bls.w	8000d68 <__udivmoddi4+0x298>
 8000b30:	3e02      	subs	r6, #2
 8000b32:	4463      	add	r3, ip
 8000b34:	1a5b      	subs	r3, r3, r1
 8000b36:	b2a4      	uxth	r4, r4
 8000b38:	fbb3 f0f8 	udiv	r0, r3, r8
 8000b3c:	fb08 3310 	mls	r3, r8, r0, r3
 8000b40:	ea44 4403 	orr.w	r4, r4, r3, lsl #16
 8000b44:	fb00 f707 	mul.w	r7, r0, r7
 8000b48:	42a7      	cmp	r7, r4
 8000b4a:	d90a      	bls.n	8000b62 <__udivmoddi4+0x92>
 8000b4c:	eb1c 0404 	adds.w	r4, ip, r4
 8000b50:	f100 33ff 	add.w	r3, r0, #4294967295
 8000b54:	f080 810a 	bcs.w	8000d6c <__udivmoddi4+0x29c>
 8000b58:	42a7      	cmp	r7, r4
 8000b5a:	f240 8107 	bls.w	8000d6c <__udivmoddi4+0x29c>
 8000b5e:	4464      	add	r4, ip
 8000b60:	3802      	subs	r0, #2
 8000b62:	ea40 4006 	orr.w	r0, r0, r6, lsl #16
 8000b66:	1be4      	subs	r4, r4, r7
 8000b68:	2600      	movs	r6, #0
 8000b6a:	b11d      	cbz	r5, 8000b74 <__udivmoddi4+0xa4>
 8000b6c:	40d4      	lsrs	r4, r2
 8000b6e:	2300      	movs	r3, #0
 8000b70:	e9c5 4300 	strd	r4, r3, [r5]
 8000b74:	4631      	mov	r1, r6
 8000b76:	e8bd 87f0 	ldmia.w	sp!, {r4, r5, r6, r7, r8, r9, sl, pc}
 8000b7a:	428b      	cmp	r3, r1
 8000b7c:	d909      	bls.n	8000b92 <__udivmoddi4+0xc2>
 8000b7e:	2d00      	cmp	r5, #0
 8000b80:	f000 80ef 	beq.w	8000d62 <__udivmoddi4+0x292>
 8000b84:	2600      	movs	r6, #0
 8000b86:	e9c5 0100 	strd	r0, r1, [r5]
 8000b8a:	4630      	mov	r0, r6
 8000b8c:	4631      	mov	r1, r6
 8000b8e:	e8bd 87f0 	ldmia.w	sp!, {r4, r5, r6, r7, r8, r9, sl, pc}
 8000b92:	fab3 f683 	clz	r6, r3
 8000b96:	2e00      	cmp	r6, #0
 8000b98:	d14a      	bne.n	8000c30 <__udivmoddi4+0x160>
 8000b9a:	428b      	cmp	r3, r1
 8000b9c:	d302      	bcc.n	8000ba4 <__udivmoddi4+0xd4>
 8000b9e:	4282      	cmp	r2, r0
 8000ba0:	f200 80f9 	bhi.w	8000d96 <__udivmoddi4+0x2c6>
 8000ba4:	1a84      	subs	r4, r0, r2
 8000ba6:	eb61 0303 	sbc.w	r3, r1, r3
 8000baa:	2001      	movs	r0, #1
 8000bac:	469e      	mov	lr, r3
 8000bae:	2d00      	cmp	r5, #0
 8000bb0:	d0e0      	beq.n	8000b74 <__udivmoddi4+0xa4>
 8000bb2:	e9c5 4e00 	strd	r4, lr, [r5]
 8000bb6:	e7dd      	b.n	8000b74 <__udivmoddi4+0xa4>
 8000bb8:	b902      	cbnz	r2, 8000bbc <__udivmoddi4+0xec>
 8000bba:	deff      	udf	#255	; 0xff
 8000bbc:	fab2 f282 	clz	r2, r2
 8000bc0:	2a00      	cmp	r2, #0
 8000bc2:	f040 8092 	bne.w	8000cea <__udivmoddi4+0x21a>
 8000bc6:	eba1 010c 	sub.w	r1, r1, ip
 8000bca:	ea4f 471c 	mov.w	r7, ip, lsr #16
 8000bce:	fa1f fe8c 	uxth.w	lr, ip
 8000bd2:	2601      	movs	r6, #1
 8000bd4:	0c20      	lsrs	r0, r4, #16
 8000bd6:	fbb1 f3f7 	udiv	r3, r1, r7
 8000bda:	fb07 1113 	mls	r1, r7, r3, r1
 8000bde:	ea40 4101 	orr.w	r1, r0, r1, lsl #16
 8000be2:	fb0e f003 	mul.w	r0, lr, r3
 8000be6:	4288      	cmp	r0, r1
 8000be8:	d908      	bls.n	8000bfc <__udivmoddi4+0x12c>
 8000bea:	eb1c 0101 	adds.w	r1, ip, r1
 8000bee:	f103 38ff 	add.w	r8, r3, #4294967295
 8000bf2:	d202      	bcs.n	8000bfa <__udivmoddi4+0x12a>
 8000bf4:	4288      	cmp	r0, r1
 8000bf6:	f200 80cb 	bhi.w	8000d90 <__udivmoddi4+0x2c0>
 8000bfa:	4643      	mov	r3, r8
 8000bfc:	1a09      	subs	r1, r1, r0
 8000bfe:	b2a4      	uxth	r4, r4
 8000c00:	fbb1 f0f7 	udiv	r0, r1, r7
 8000c04:	fb07 1110 	mls	r1, r7, r0, r1
 8000c08:	ea44 4401 	orr.w	r4, r4, r1, lsl #16
 8000c0c:	fb0e fe00 	mul.w	lr, lr, r0
 8000c10:	45a6      	cmp	lr, r4
 8000c12:	d908      	bls.n	8000c26 <__udivmoddi4+0x156>
 8000c14:	eb1c 0404 	adds.w	r4, ip, r4
 8000c18:	f100 31ff 	add.w	r1, r0, #4294967295
 8000c1c:	d202      	bcs.n	8000c24 <__udivmoddi4+0x154>
 8000c1e:	45a6      	cmp	lr, r4
 8000c20:	f200 80bb 	bhi.w	8000d9a <__udivmoddi4+0x2ca>
 8000c24:	4608      	mov	r0, r1
 8000c26:	eba4 040e 	sub.w	r4, r4, lr
 8000c2a:	ea40 4003 	orr.w	r0, r0, r3, lsl #16
 8000c2e:	e79c      	b.n	8000b6a <__udivmoddi4+0x9a>
 8000c30:	f1c6 0720 	rsb	r7, r6, #32
 8000c34:	40b3      	lsls	r3, r6
 8000c36:	fa22 fc07 	lsr.w	ip, r2, r7
 8000c3a:	ea4c 0c03 	orr.w	ip, ip, r3
 8000c3e:	fa20 f407 	lsr.w	r4, r0, r7
 8000c42:	fa01 f306 	lsl.w	r3, r1, r6
 8000c46:	431c      	orrs	r4, r3
 8000c48:	40f9      	lsrs	r1, r7
 8000c4a:	ea4f 491c 	mov.w	r9, ip, lsr #16
 8000c4e:	fa00 f306 	lsl.w	r3, r0, r6
 8000c52:	fbb1 f8f9 	udiv	r8, r1, r9
 8000c56:	0c20      	lsrs	r0, r4, #16
 8000c58:	fa1f fe8c 	uxth.w	lr, ip
 8000c5c:	fb09 1118 	mls	r1, r9, r8, r1
 8000c60:	ea40 4101 	orr.w	r1, r0, r1, lsl #16
 8000c64:	fb08 f00e 	mul.w	r0, r8, lr
 8000c68:	4288      	cmp	r0, r1
 8000c6a:	fa02 f206 	lsl.w	r2, r2, r6
 8000c6e:	d90b      	bls.n	8000c88 <__udivmoddi4+0x1b8>
 8000c70:	eb1c 0101 	adds.w	r1, ip, r1
 8000c74:	f108 3aff 	add.w	sl, r8, #4294967295
 8000c78:	f080 8088 	bcs.w	8000d8c <__udivmoddi4+0x2bc>
 8000c7c:	4288      	cmp	r0, r1
 8000c7e:	f240 8085 	bls.w	8000d8c <__udivmoddi4+0x2bc>
 8000c82:	f1a8 0802 	sub.w	r8, r8, #2
 8000c86:	4461      	add	r1, ip
 8000c88:	1a09      	subs	r1, r1, r0
 8000c8a:	b2a4      	uxth	r4, r4
 8000c8c:	fbb1 f0f9 	udiv	r0, r1, r9
 8000c90:	fb09 1110 	mls	r1, r9, r0, r1
 8000c94:	ea44 4101 	orr.w	r1, r4, r1, lsl #16
 8000c98:	fb00 fe0e 	mul.w	lr, r0, lr
 8000c9c:	458e      	cmp	lr, r1
 8000c9e:	d908      	bls.n	8000cb2 <__udivmoddi4+0x1e2>
 8000ca0:	eb1c 0101 	adds.w	r1, ip, r1
 8000ca4:	f100 34ff 	add.w	r4, r0, #4294967295
 8000ca8:	d26c      	bcs.n	8000d84 <__udivmoddi4+0x2b4>
 8000caa:	458e      	cmp	lr, r1
 8000cac:	d96a      	bls.n	8000d84 <__udivmoddi4+0x2b4>
 8000cae:	3802      	subs	r0, #2
 8000cb0:	4461      	add	r1, ip
 8000cb2:	ea40 4008 	orr.w	r0, r0, r8, lsl #16
 8000cb6:	fba0 9402 	umull	r9, r4, r0, r2
 8000cba:	eba1 010e 	sub.w	r1, r1, lr
 8000cbe:	42a1      	cmp	r1, r4
 8000cc0:	46c8      	mov	r8, r9
 8000cc2:	46a6      	mov	lr, r4
 8000cc4:	d356      	bcc.n	8000d74 <__udivmoddi4+0x2a4>
 8000cc6:	d053      	beq.n	8000d70 <__udivmoddi4+0x2a0>
 8000cc8:	b15d      	cbz	r5, 8000ce2 <__udivmoddi4+0x212>
 8000cca:	ebb3 0208 	subs.w	r2, r3, r8
 8000cce:	eb61 010e 	sbc.w	r1, r1, lr
 8000cd2:	fa01 f707 	lsl.w	r7, r1, r7
 8000cd6:	fa22 f306 	lsr.w	r3, r2, r6
 8000cda:	40f1      	lsrs	r1, r6
 8000cdc:	431f      	orrs	r7, r3
 8000cde:	e9c5 7100 	strd	r7, r1, [r5]
 8000ce2:	2600      	movs	r6, #0
 8000ce4:	4631      	mov	r1, r6
 8000ce6:	e8bd 87f0 	ldmia.w	sp!, {r4, r5, r6, r7, r8, r9, sl, pc}
 8000cea:	f1c2 0320 	rsb	r3, r2, #32
 8000cee:	40d8      	lsrs	r0, r3
 8000cf0:	fa0c fc02 	lsl.w	ip, ip, r2
 8000cf4:	fa21 f303 	lsr.w	r3, r1, r3
 8000cf8:	4091      	lsls	r1, r2
 8000cfa:	4301      	orrs	r1, r0
 8000cfc:	ea4f 471c 	mov.w	r7, ip, lsr #16
 8000d00:	fa1f fe8c 	uxth.w	lr, ip
 8000d04:	fbb3 f0f7 	udiv	r0, r3, r7
 8000d08:	fb07 3610 	mls	r6, r7, r0, r3
 8000d0c:	0c0b      	lsrs	r3, r1, #16
 8000d0e:	ea43 4306 	orr.w	r3, r3, r6, lsl #16
 8000d12:	fb00 f60e 	mul.w	r6, r0, lr
 8000d16:	429e      	cmp	r6, r3
 8000d18:	fa04 f402 	lsl.w	r4, r4, r2
 8000d1c:	d908      	bls.n	8000d30 <__udivmoddi4+0x260>
 8000d1e:	eb1c 0303 	adds.w	r3, ip, r3
 8000d22:	f100 38ff 	add.w	r8, r0, #4294967295
 8000d26:	d22f      	bcs.n	8000d88 <__udivmoddi4+0x2b8>
 8000d28:	429e      	cmp	r6, r3
 8000d2a:	d92d      	bls.n	8000d88 <__udivmoddi4+0x2b8>
 8000d2c:	3802      	subs	r0, #2
 8000d2e:	4463      	add	r3, ip
 8000d30:	1b9b      	subs	r3, r3, r6
 8000d32:	b289      	uxth	r1, r1
 8000d34:	fbb3 f6f7 	udiv	r6, r3, r7
 8000d38:	fb07 3316 	mls	r3, r7, r6, r3
 8000d3c:	ea41 4103 	orr.w	r1, r1, r3, lsl #16
 8000d40:	fb06 f30e 	mul.w	r3, r6, lr
 8000d44:	428b      	cmp	r3, r1
 8000d46:	d908      	bls.n	8000d5a <__udivmoddi4+0x28a>
 8000d48:	eb1c 0101 	adds.w	r1, ip, r1
 8000d4c:	f106 38ff 	add.w	r8, r6, #4294967295
 8000d50:	d216      	bcs.n	8000d80 <__udivmoddi4+0x2b0>
 8000d52:	428b      	cmp	r3, r1
 8000d54:	d914      	bls.n	8000d80 <__udivmoddi4+0x2b0>
 8000d56:	3e02      	subs	r6, #2
 8000d58:	4461      	add	r1, ip
 8000d5a:	1ac9      	subs	r1, r1, r3
 8000d5c:	ea46 4600 	orr.w	r6, r6, r0, lsl #16
 8000d60:	e738      	b.n	8000bd4 <__udivmoddi4+0x104>
 8000d62:	462e      	mov	r6, r5
 8000d64:	4628      	mov	r0, r5
 8000d66:	e705      	b.n	8000b74 <__udivmoddi4+0xa4>
 8000d68:	4606      	mov	r6, r0
 8000d6a:	e6e3      	b.n	8000b34 <__udivmoddi4+0x64>
 8000d6c:	4618      	mov	r0, r3
 8000d6e:	e6f8      	b.n	8000b62 <__udivmoddi4+0x92>
 8000d70:	454b      	cmp	r3, r9
 8000d72:	d2a9      	bcs.n	8000cc8 <__udivmoddi4+0x1f8>
 8000d74:	ebb9 0802 	subs.w	r8, r9, r2
 8000d78:	eb64 0e0c 	sbc.w	lr, r4, ip
 8000d7c:	3801      	subs	r0, #1
 8000d7e:	e7a3      	b.n	8000cc8 <__udivmoddi4+0x1f8>
 8000d80:	4646      	mov	r6, r8
 8000d82:	e7ea      	b.n	8000d5a <__udivmoddi4+0x28a>
 8000d84:	4620      	mov	r0, r4
 8000d86:	e794      	b.n	8000cb2 <__udivmoddi4+0x1e2>
 8000d88:	4640      	mov	r0, r8
 8000d8a:	e7d1      	b.n	8000d30 <__udivmoddi4+0x260>
 8000d8c:	46d0      	mov	r8, sl
 8000d8e:	e77b      	b.n	8000c88 <__udivmoddi4+0x1b8>
 8000d90:	3b02      	subs	r3, #2
 8000d92:	4461      	add	r1, ip
 8000d94:	e732      	b.n	8000bfc <__udivmoddi4+0x12c>
 8000d96:	4630      	mov	r0, r6
 8000d98:	e709      	b.n	8000bae <__udivmoddi4+0xde>
 8000d9a:	4464      	add	r4, ip
 8000d9c:	3802      	subs	r0, #2
 8000d9e:	e742      	b.n	8000c26 <__udivmoddi4+0x156>

08000da0 <__aeabi_idiv0>:
 8000da0:	4770      	bx	lr
 8000da2:	bf00      	nop

08000da4 <DrawSym.constprop.2>:
 8000da4:	e92d 4ff0 	stmdb	sp!, {r4, r5, r6, r7, r8, r9, sl, fp, lr}
 8000da8:	b093      	sub	sp, #76	; 0x4c
 8000daa:	9207      	str	r2, [sp, #28]
 8000dac:	4aaa      	ldr	r2, [pc, #680]	; (8001058 <DrawSym.constprop.2+0x2b4>)
 8000dae:	930f      	str	r3, [sp, #60]	; 0x3c
 8000db0:	7813      	ldrb	r3, [r2, #0]
 8000db2:	f8dd a074 	ldr.w	sl, [sp, #116]	; 0x74
 8000db6:	1e5c      	subs	r4, r3, #1
 8000db8:	10e4      	asrs	r4, r4, #3
 8000dba:	3401      	adds	r4, #1
 8000dbc:	2c04      	cmp	r4, #4
 8000dbe:	940a      	str	r4, [sp, #40]	; 0x28
 8000dc0:	f300 8099 	bgt.w	8000ef6 <DrawSym.constprop.2+0x152>
 8000dc4:	7855      	ldrb	r5, [r2, #1]
 8000dc6:	9506      	str	r5, [sp, #24]
 8000dc8:	1aeb      	subs	r3, r5, r3
 8000dca:	00e4      	lsls	r4, r4, #3
 8000dcc:	1e65      	subs	r5, r4, #1
 8000dce:	eb03 73d3 	add.w	r3, r3, r3, lsr #31
 8000dd2:	2401      	movs	r4, #1
 8000dd4:	105b      	asrs	r3, r3, #1
 8000dd6:	40ac      	lsls	r4, r5
 8000dd8:	fa04 f303 	lsl.w	r3, r4, r3
 8000ddc:	9311      	str	r3, [sp, #68]	; 0x44
 8000dde:	2900      	cmp	r1, #0
 8000de0:	f000 808c 	beq.w	8000efc <DrawSym.constprop.2+0x158>
 8000de4:	2901      	cmp	r1, #1
 8000de6:	f000 8135 	beq.w	8001054 <DrawSym.constprop.2+0x2b0>
 8000dea:	2902      	cmp	r1, #2
 8000dec:	bf08      	it	eq
 8000dee:	214f      	moveq	r1, #79	; 0x4f
 8000df0:	7a13      	ldrb	r3, [r2, #8]
 8000df2:	6854      	ldr	r4, [r2, #4]
 8000df4:	940b      	str	r4, [sp, #44]	; 0x2c
 8000df6:	428b      	cmp	r3, r1
 8000df8:	d803      	bhi.n	8000e02 <DrawSym.constprop.2+0x5e>
 8000dfa:	7a52      	ldrb	r2, [r2, #9]
 8000dfc:	428a      	cmp	r2, r1
 8000dfe:	f080 811f 	bcs.w	8001040 <DrawSym.constprop.2+0x29c>
 8000e02:	9a06      	ldr	r2, [sp, #24]
 8000e04:	2a00      	cmp	r2, #0
 8000e06:	d076      	beq.n	8000ef6 <DrawSym.constprop.2+0x152>
 8000e08:	9b0f      	ldr	r3, [sp, #60]	; 0x3c
 8000e0a:	3b01      	subs	r3, #1
 8000e0c:	b29b      	uxth	r3, r3
 8000e0e:	9310      	str	r3, [sp, #64]	; 0x40
 8000e10:	9b07      	ldr	r3, [sp, #28]
 8000e12:	3b01      	subs	r3, #1
 8000e14:	b29b      	uxth	r3, r3
 8000e16:	9302      	str	r3, [sp, #8]
 8000e18:	fb12 f302 	smulbb	r3, r2, r2
 8000e1c:	9303      	str	r3, [sp, #12]
 8000e1e:	9b1e      	ldr	r3, [sp, #120]	; 0x78
 8000e20:	2100      	movs	r1, #0
 8000e22:	fb03 f902 	mul.w	r9, r3, r2
 8000e26:	1e53      	subs	r3, r2, #1
 8000e28:	910d      	str	r1, [sp, #52]	; 0x34
 8000e2a:	9308      	str	r3, [sp, #32]
 8000e2c:	910c      	str	r1, [sp, #48]	; 0x30
 8000e2e:	9109      	str	r1, [sp, #36]	; 0x24
 8000e30:	910e      	str	r1, [sp, #56]	; 0x38
 8000e32:	9b0a      	ldr	r3, [sp, #40]	; 0x28
 8000e34:	2b01      	cmp	r3, #1
 8000e36:	d063      	beq.n	8000f00 <DrawSym.constprop.2+0x15c>
 8000e38:	2b02      	cmp	r3, #2
 8000e3a:	f000 80c2 	beq.w	8000fc2 <DrawSym.constprop.2+0x21e>
 8000e3e:	2b03      	cmp	r3, #3
 8000e40:	f000 80c4 	beq.w	8000fcc <DrawSym.constprop.2+0x228>
 8000e44:	9b0b      	ldr	r3, [sp, #44]	; 0x2c
 8000e46:	f8d3 b000 	ldr.w	fp, [r3]
 8000e4a:	4619      	mov	r1, r3
 8000e4c:	e9dd 230e 	ldrd	r2, r3, [sp, #56]	; 0x38
 8000e50:	9c0a      	ldr	r4, [sp, #40]	; 0x28
 8000e52:	441a      	add	r2, r3
 8000e54:	4421      	add	r1, r4
 8000e56:	9b0d      	ldr	r3, [sp, #52]	; 0x34
 8000e58:	910b      	str	r1, [sp, #44]	; 0x2c
 8000e5a:	9910      	ldr	r1, [sp, #64]	; 0x40
 8000e5c:	4453      	add	r3, sl
 8000e5e:	930d      	str	r3, [sp, #52]	; 0x34
 8000e60:	fbb3 f3f9 	udiv	r3, r3, r9
 8000e64:	18cf      	adds	r7, r1, r3
 8000e66:	930e      	str	r3, [sp, #56]	; 0x38
 8000e68:	e9dd 1308 	ldrd	r1, r3, [sp, #32]
 8000e6c:	4299      	cmp	r1, r3
 8000e6e:	b292      	uxth	r2, r2
 8000e70:	b2bf      	uxth	r7, r7
 8000e72:	d04a      	beq.n	8000f0a <DrawSym.constprop.2+0x166>
 8000e74:	2b00      	cmp	r3, #0
 8000e76:	d077      	beq.n	8000f68 <DrawSym.constprop.2+0x1c4>
 8000e78:	9b0c      	ldr	r3, [sp, #48]	; 0x30
 8000e7a:	2600      	movs	r6, #0
 8000e7c:	ebc3 2803 	rsb	r8, r3, r3, lsl #8
 8000e80:	4634      	mov	r4, r6
 8000e82:	4635      	mov	r5, r6
 8000e84:	e01e      	b.n	8000ec4 <DrawSym.constprop.2+0x120>
 8000e86:	9908      	ldr	r1, [sp, #32]
 8000e88:	428c      	cmp	r4, r1
 8000e8a:	d01f      	beq.n	8000ecc <DrawSym.constprop.2+0x128>
 8000e8c:	9911      	ldr	r1, [sp, #68]	; 0x44
 8000e8e:	420b      	tst	r3, r1
 8000e90:	9b1c      	ldr	r3, [sp, #112]	; 0x70
 8000e92:	bf08      	it	eq
 8000e94:	23ff      	moveq	r3, #255	; 0xff
 8000e96:	9301      	str	r3, [sp, #4]
 8000e98:	9b07      	ldr	r3, [sp, #28]
 8000e9a:	9700      	str	r7, [sp, #0]
 8000e9c:	1959      	adds	r1, r3, r5
 8000e9e:	9b02      	ldr	r3, [sp, #8]
 8000ea0:	4456      	add	r6, sl
 8000ea2:	fbb6 f5f9 	udiv	r5, r6, r9
 8000ea6:	442b      	add	r3, r5
 8000ea8:	b29b      	uxth	r3, r3
 8000eaa:	b289      	uxth	r1, r1
 8000eac:	e9cd 0204 	strd	r0, r2, [sp, #16]
 8000eb0:	f003 fabc 	bl	800442c <LCD_FillWindow>
 8000eb4:	9b06      	ldr	r3, [sp, #24]
 8000eb6:	3401      	adds	r4, #1
 8000eb8:	42a3      	cmp	r3, r4
 8000eba:	e9dd 0204 	ldrd	r0, r2, [sp, #16]
 8000ebe:	f108 08ff 	add.w	r8, r8, #255	; 0xff
 8000ec2:	d00c      	beq.n	8000ede <DrawSym.constprop.2+0x13a>
 8000ec4:	fa0b f304 	lsl.w	r3, fp, r4
 8000ec8:	2c00      	cmp	r4, #0
 8000eca:	d1dc      	bne.n	8000e86 <DrawSym.constprop.2+0xe2>
 8000ecc:	9b03      	ldr	r3, [sp, #12]
 8000ece:	fbb8 f3f3 	udiv	r3, r8, r3
 8000ed2:	b2db      	uxtb	r3, r3
 8000ed4:	f443 037f 	orr.w	r3, r3, #16711680	; 0xff0000
 8000ed8:	f443 437f 	orr.w	r3, r3, #65280	; 0xff00
 8000edc:	e7db      	b.n	8000e96 <DrawSym.constprop.2+0xf2>
 8000ede:	461a      	mov	r2, r3
 8000ee0:	9b0c      	ldr	r3, [sp, #48]	; 0x30
 8000ee2:	4413      	add	r3, r2
 8000ee4:	469b      	mov	fp, r3
 8000ee6:	9b09      	ldr	r3, [sp, #36]	; 0x24
 8000ee8:	9a06      	ldr	r2, [sp, #24]
 8000eea:	f8cd b030 	str.w	fp, [sp, #48]	; 0x30
 8000eee:	3301      	adds	r3, #1
 8000ef0:	4293      	cmp	r3, r2
 8000ef2:	9309      	str	r3, [sp, #36]	; 0x24
 8000ef4:	d19d      	bne.n	8000e32 <DrawSym.constprop.2+0x8e>
 8000ef6:	b013      	add	sp, #76	; 0x4c
 8000ef8:	e8bd 8ff0 	ldmia.w	sp!, {r4, r5, r6, r7, r8, r9, sl, fp, pc}
 8000efc:	2120      	movs	r1, #32
 8000efe:	e777      	b.n	8000df0 <DrawSym.constprop.2+0x4c>
 8000f00:	9b0b      	ldr	r3, [sp, #44]	; 0x2c
 8000f02:	f893 b000 	ldrb.w	fp, [r3]
 8000f06:	4619      	mov	r1, r3
 8000f08:	e7a0      	b.n	8000e4c <DrawSym.constprop.2+0xa8>
 8000f0a:	2900      	cmp	r1, #0
 8000f0c:	d06b      	beq.n	8000fe6 <DrawSym.constprop.2+0x242>
 8000f0e:	9b0c      	ldr	r3, [sp, #48]	; 0x30
 8000f10:	9906      	ldr	r1, [sp, #24]
 8000f12:	eb03 0b01 	add.w	fp, r3, r1
 8000f16:	2600      	movs	r6, #0
 8000f18:	ebcb 280b 	rsb	r8, fp, fp, lsl #8
 8000f1c:	f8cd b030 	str.w	fp, [sp, #48]	; 0x30
 8000f20:	f8dd b01c 	ldr.w	fp, [sp, #28]
 8000f24:	ebc3 2503 	rsb	r5, r3, r3, lsl #8
 8000f28:	4634      	mov	r4, r6
 8000f2a:	9b03      	ldr	r3, [sp, #12]
 8000f2c:	fbb5 f3f3 	udiv	r3, r5, r3
 8000f30:	b2db      	uxtb	r3, r3
 8000f32:	f443 037f 	orr.w	r3, r3, #16711680	; 0xff0000
 8000f36:	f443 437f 	orr.w	r3, r3, #65280	; 0xff00
 8000f3a:	9301      	str	r3, [sp, #4]
 8000f3c:	9b02      	ldr	r3, [sp, #8]
 8000f3e:	9700      	str	r7, [sp, #0]
 8000f40:	eb0b 0104 	add.w	r1, fp, r4
 8000f44:	4456      	add	r6, sl
 8000f46:	fbb6 f4f9 	udiv	r4, r6, r9
 8000f4a:	4423      	add	r3, r4
 8000f4c:	b289      	uxth	r1, r1
 8000f4e:	35ff      	adds	r5, #255	; 0xff
 8000f50:	b29b      	uxth	r3, r3
 8000f52:	e9cd 0204 	strd	r0, r2, [sp, #16]
 8000f56:	f003 fa69 	bl	800442c <LCD_FillWindow>
 8000f5a:	4545      	cmp	r5, r8
 8000f5c:	e9dd 0204 	ldrd	r0, r2, [sp, #16]
 8000f60:	d1e3      	bne.n	8000f2a <DrawSym.constprop.2+0x186>
 8000f62:	f8dd b030 	ldr.w	fp, [sp, #48]	; 0x30
 8000f66:	e7be      	b.n	8000ee6 <DrawSym.constprop.2+0x142>
 8000f68:	461c      	mov	r4, r3
 8000f6a:	9906      	ldr	r1, [sp, #24]
 8000f6c:	9b0c      	ldr	r3, [sp, #48]	; 0x30
 8000f6e:	eb03 0b01 	add.w	fp, r3, r1
 8000f72:	ebcb 280b 	rsb	r8, fp, fp, lsl #8
 8000f76:	f8cd b030 	str.w	fp, [sp, #48]	; 0x30
 8000f7a:	f8dd b01c 	ldr.w	fp, [sp, #28]
 8000f7e:	ebc3 2503 	rsb	r5, r3, r3, lsl #8
 8000f82:	4626      	mov	r6, r4
 8000f84:	9b03      	ldr	r3, [sp, #12]
 8000f86:	fbb5 f3f3 	udiv	r3, r5, r3
 8000f8a:	b2db      	uxtb	r3, r3
 8000f8c:	f443 037f 	orr.w	r3, r3, #16711680	; 0xff0000
 8000f90:	f443 437f 	orr.w	r3, r3, #65280	; 0xff00
 8000f94:	9301      	str	r3, [sp, #4]
 8000f96:	9b02      	ldr	r3, [sp, #8]
 8000f98:	9700      	str	r7, [sp, #0]
 8000f9a:	eb0b 0104 	add.w	r1, fp, r4
 8000f9e:	4456      	add	r6, sl
 8000fa0:	fbb6 f4f9 	udiv	r4, r6, r9
 8000fa4:	4423      	add	r3, r4
 8000fa6:	b289      	uxth	r1, r1
 8000fa8:	35ff      	adds	r5, #255	; 0xff
 8000faa:	b29b      	uxth	r3, r3
 8000fac:	e9cd 0204 	strd	r0, r2, [sp, #16]
 8000fb0:	f003 fa3c 	bl	800442c <LCD_FillWindow>
 8000fb4:	4545      	cmp	r5, r8
 8000fb6:	e9dd 0204 	ldrd	r0, r2, [sp, #16]
 8000fba:	d1e3      	bne.n	8000f84 <DrawSym.constprop.2+0x1e0>
 8000fbc:	f8dd b030 	ldr.w	fp, [sp, #48]	; 0x30
 8000fc0:	e791      	b.n	8000ee6 <DrawSym.constprop.2+0x142>
 8000fc2:	9b0b      	ldr	r3, [sp, #44]	; 0x2c
 8000fc4:	f8b3 b000 	ldrh.w	fp, [r3]
 8000fc8:	4619      	mov	r1, r3
 8000fca:	e73f      	b.n	8000e4c <DrawSym.constprop.2+0xa8>
 8000fcc:	9a0b      	ldr	r2, [sp, #44]	; 0x2c
 8000fce:	f892 b002 	ldrb.w	fp, [r2, #2]
 8000fd2:	7853      	ldrb	r3, [r2, #1]
 8000fd4:	ea4f 4b0b 	mov.w	fp, fp, lsl #16
 8000fd8:	ea4b 2b03 	orr.w	fp, fp, r3, lsl #8
 8000fdc:	7813      	ldrb	r3, [r2, #0]
 8000fde:	4611      	mov	r1, r2
 8000fe0:	ea4b 0b03 	orr.w	fp, fp, r3
 8000fe4:	e732      	b.n	8000e4c <DrawSym.constprop.2+0xa8>
 8000fe6:	9b0c      	ldr	r3, [sp, #48]	; 0x30
 8000fe8:	460c      	mov	r4, r1
 8000fea:	9906      	ldr	r1, [sp, #24]
 8000fec:	eb03 0b01 	add.w	fp, r3, r1
 8000ff0:	ebcb 280b 	rsb	r8, fp, fp, lsl #8
 8000ff4:	f8cd b030 	str.w	fp, [sp, #48]	; 0x30
 8000ff8:	f8dd b01c 	ldr.w	fp, [sp, #28]
 8000ffc:	ebc3 2503 	rsb	r5, r3, r3, lsl #8
 8001000:	4626      	mov	r6, r4
 8001002:	9b03      	ldr	r3, [sp, #12]
 8001004:	fbb5 f3f3 	udiv	r3, r5, r3
 8001008:	b2db      	uxtb	r3, r3
 800100a:	f443 037f 	orr.w	r3, r3, #16711680	; 0xff0000
 800100e:	f443 437f 	orr.w	r3, r3, #65280	; 0xff00
 8001012:	9301      	str	r3, [sp, #4]
 8001014:	9b02      	ldr	r3, [sp, #8]
 8001016:	9700      	str	r7, [sp, #0]
 8001018:	eb0b 0104 	add.w	r1, fp, r4
 800101c:	4456      	add	r6, sl
 800101e:	fbb6 f4f9 	udiv	r4, r6, r9
 8001022:	4423      	add	r3, r4
 8001024:	b289      	uxth	r1, r1
 8001026:	35ff      	adds	r5, #255	; 0xff
 8001028:	b29b      	uxth	r3, r3
 800102a:	e9cd 0204 	strd	r0, r2, [sp, #16]
 800102e:	f003 f9fd 	bl	800442c <LCD_FillWindow>
 8001032:	4545      	cmp	r5, r8
 8001034:	e9dd 0204 	ldrd	r0, r2, [sp, #16]
 8001038:	d1e3      	bne.n	8001002 <DrawSym.constprop.2+0x25e>
 800103a:	f8dd b030 	ldr.w	fp, [sp, #48]	; 0x30
 800103e:	e752      	b.n	8000ee6 <DrawSym.constprop.2+0x142>
 8001040:	9a0a      	ldr	r2, [sp, #40]	; 0x28
 8001042:	1acb      	subs	r3, r1, r3
 8001044:	b2db      	uxtb	r3, r3
 8001046:	fb02 f303 	mul.w	r3, r2, r3
 800104a:	9a06      	ldr	r2, [sp, #24]
 800104c:	fb02 4303 	mla	r3, r2, r3, r4
 8001050:	930b      	str	r3, [sp, #44]	; 0x2c
 8001052:	e6d6      	b.n	8000e02 <DrawSym.constprop.2+0x5e>
 8001054:	2158      	movs	r1, #88	; 0x58
 8001056:	e6cb      	b.n	8000df0 <DrawSym.constprop.2+0x4c>
 8001058:	20000004 	.word	0x20000004

0800105c <DrawSym.constprop.3>:
 800105c:	e92d 4ff0 	stmdb	sp!, {r4, r5, r6, r7, r8, r9, sl, fp, lr}
 8001060:	b095      	sub	sp, #84	; 0x54
 8001062:	9203      	str	r2, [sp, #12]
 8001064:	4a9b      	ldr	r2, [pc, #620]	; (80012d4 <DrawSym.constprop.3+0x278>)
 8001066:	9311      	str	r3, [sp, #68]	; 0x44
 8001068:	7813      	ldrb	r3, [r2, #0]
 800106a:	1e5c      	subs	r4, r3, #1
 800106c:	10e4      	asrs	r4, r4, #3
 800106e:	3401      	adds	r4, #1
 8001070:	2c04      	cmp	r4, #4
 8001072:	940c      	str	r4, [sp, #48]	; 0x30
 8001074:	f300 80cf 	bgt.w	8001216 <DrawSym.constprop.3+0x1ba>
 8001078:	7855      	ldrb	r5, [r2, #1]
 800107a:	9509      	str	r5, [sp, #36]	; 0x24
 800107c:	1aeb      	subs	r3, r5, r3
 800107e:	00e4      	lsls	r4, r4, #3
 8001080:	1e65      	subs	r5, r4, #1
 8001082:	eb03 73d3 	add.w	r3, r3, r3, lsr #31
 8001086:	2401      	movs	r4, #1
 8001088:	105b      	asrs	r3, r3, #1
 800108a:	40ac      	lsls	r4, r5
 800108c:	fa04 f303 	lsl.w	r3, r4, r3
 8001090:	9313      	str	r3, [sp, #76]	; 0x4c
 8001092:	2900      	cmp	r1, #0
 8001094:	f000 80c2 	beq.w	800121c <DrawSym.constprop.3+0x1c0>
 8001098:	2901      	cmp	r1, #1
 800109a:	f000 81e0 	beq.w	800145e <DrawSym.constprop.3+0x402>
 800109e:	2902      	cmp	r1, #2
 80010a0:	bf08      	it	eq
 80010a2:	214f      	moveq	r1, #79	; 0x4f
 80010a4:	7a13      	ldrb	r3, [r2, #8]
 80010a6:	6854      	ldr	r4, [r2, #4]
 80010a8:	940d      	str	r4, [sp, #52]	; 0x34
 80010aa:	428b      	cmp	r3, r1
 80010ac:	d803      	bhi.n	80010b6 <DrawSym.constprop.3+0x5a>
 80010ae:	7a52      	ldrb	r2, [r2, #9]
 80010b0:	428a      	cmp	r2, r1
 80010b2:	f080 81ca 	bcs.w	800144a <DrawSym.constprop.3+0x3ee>
 80010b6:	9a09      	ldr	r2, [sp, #36]	; 0x24
 80010b8:	2a00      	cmp	r2, #0
 80010ba:	f000 80ac 	beq.w	8001216 <DrawSym.constprop.3+0x1ba>
 80010be:	9b11      	ldr	r3, [sp, #68]	; 0x44
 80010c0:	4c85      	ldr	r4, [pc, #532]	; (80012d8 <DrawSym.constprop.3+0x27c>)
 80010c2:	3b01      	subs	r3, #1
 80010c4:	b29b      	uxth	r3, r3
 80010c6:	9312      	str	r3, [sp, #72]	; 0x48
 80010c8:	9b03      	ldr	r3, [sp, #12]
 80010ca:	3b01      	subs	r3, #1
 80010cc:	b29b      	uxth	r3, r3
 80010ce:	9304      	str	r3, [sp, #16]
 80010d0:	fb12 f302 	smulbb	r3, r2, r2
 80010d4:	9305      	str	r3, [sp, #20]
 80010d6:	9b1f      	ldr	r3, [sp, #124]	; 0x7c
 80010d8:	2100      	movs	r1, #0
 80010da:	fb03 f302 	mul.w	r3, r3, r2
 80010de:	3a01      	subs	r2, #1
 80010e0:	910f      	str	r1, [sp, #60]	; 0x3c
 80010e2:	920a      	str	r2, [sp, #40]	; 0x28
 80010e4:	910b      	str	r1, [sp, #44]	; 0x2c
 80010e6:	9110      	str	r1, [sp, #64]	; 0x40
 80010e8:	469b      	mov	fp, r3
 80010ea:	910e      	str	r1, [sp, #56]	; 0x38
 80010ec:	9b0c      	ldr	r3, [sp, #48]	; 0x30
 80010ee:	2b01      	cmp	r3, #1
 80010f0:	f000 8096 	beq.w	8001220 <DrawSym.constprop.3+0x1c4>
 80010f4:	2b02      	cmp	r3, #2
 80010f6:	f000 8147 	beq.w	8001388 <DrawSym.constprop.3+0x32c>
 80010fa:	2b03      	cmp	r3, #3
 80010fc:	f000 8148 	beq.w	8001390 <DrawSym.constprop.3+0x334>
 8001100:	9b0d      	ldr	r3, [sp, #52]	; 0x34
 8001102:	f8d3 a000 	ldr.w	sl, [r3]
 8001106:	991e      	ldr	r1, [sp, #120]	; 0x78
 8001108:	e9dd 2310 	ldrd	r2, r3, [sp, #64]	; 0x40
 800110c:	441a      	add	r2, r3
 800110e:	9b0f      	ldr	r3, [sp, #60]	; 0x3c
 8001110:	440b      	add	r3, r1
 8001112:	e9dd 510c 	ldrd	r5, r1, [sp, #48]	; 0x30
 8001116:	4429      	add	r1, r5
 8001118:	910d      	str	r1, [sp, #52]	; 0x34
 800111a:	9912      	ldr	r1, [sp, #72]	; 0x48
 800111c:	930f      	str	r3, [sp, #60]	; 0x3c
 800111e:	fbb3 f3fb 	udiv	r3, r3, fp
 8001122:	eb01 0803 	add.w	r8, r1, r3
 8001126:	9310      	str	r3, [sp, #64]	; 0x40
 8001128:	e9dd 130a 	ldrd	r1, r3, [sp, #40]	; 0x28
 800112c:	4299      	cmp	r1, r3
 800112e:	b292      	uxth	r2, r2
 8001130:	fa1f f888 	uxth.w	r8, r8
 8001134:	d078      	beq.n	8001228 <DrawSym.constprop.3+0x1cc>
 8001136:	2b00      	cmp	r3, #0
 8001138:	f000 80d4 	beq.w	80012e4 <DrawSym.constprop.3+0x288>
 800113c:	9b0e      	ldr	r3, [sp, #56]	; 0x38
 800113e:	2700      	movs	r7, #0
 8001140:	ebc3 2903 	rsb	r9, r3, r3, lsl #8
 8001144:	463d      	mov	r5, r7
 8001146:	463e      	mov	r6, r7
 8001148:	9706      	str	r7, [sp, #24]
 800114a:	e023      	b.n	8001194 <DrawSym.constprop.3+0x138>
 800114c:	9f0a      	ldr	r7, [sp, #40]	; 0x28
 800114e:	42bd      	cmp	r5, r7
 8001150:	d026      	beq.n	80011a0 <DrawSym.constprop.3+0x144>
 8001152:	9913      	ldr	r1, [sp, #76]	; 0x4c
 8001154:	420b      	tst	r3, r1
 8001156:	4961      	ldr	r1, [pc, #388]	; (80012dc <DrawSym.constprop.3+0x280>)
 8001158:	4b61      	ldr	r3, [pc, #388]	; (80012e0 <DrawSym.constprop.3+0x284>)
 800115a:	bf18      	it	ne
 800115c:	460b      	movne	r3, r1
 800115e:	9301      	str	r3, [sp, #4]
 8001160:	9b03      	ldr	r3, [sp, #12]
 8001162:	f8cd 8000 	str.w	r8, [sp]
 8001166:	1999      	adds	r1, r3, r6
 8001168:	9b1e      	ldr	r3, [sp, #120]	; 0x78
 800116a:	9e06      	ldr	r6, [sp, #24]
 800116c:	441e      	add	r6, r3
 800116e:	9b04      	ldr	r3, [sp, #16]
 8001170:	9606      	str	r6, [sp, #24]
 8001172:	fbb6 f6fb 	udiv	r6, r6, fp
 8001176:	4433      	add	r3, r6
 8001178:	b29b      	uxth	r3, r3
 800117a:	b289      	uxth	r1, r1
 800117c:	e9cd 0207 	strd	r0, r2, [sp, #28]
 8001180:	f003 f954 	bl	800442c <LCD_FillWindow>
 8001184:	9b09      	ldr	r3, [sp, #36]	; 0x24
 8001186:	3501      	adds	r5, #1
 8001188:	42ab      	cmp	r3, r5
 800118a:	e9dd 0207 	ldrd	r0, r2, [sp, #28]
 800118e:	f109 09ff 	add.w	r9, r9, #255	; 0xff
 8001192:	d033      	beq.n	80011fc <DrawSym.constprop.3+0x1a0>
 8001194:	f06f 0179 	mvn.w	r1, #121	; 0x79
 8001198:	fa0a f305 	lsl.w	r3, sl, r5
 800119c:	2d00      	cmp	r5, #0
 800119e:	d1d5      	bne.n	800114c <DrawSym.constprop.3+0xf0>
 80011a0:	f06f 0731 	mvn.w	r7, #49	; 0x31
 80011a4:	9b05      	ldr	r3, [sp, #20]
 80011a6:	fbb9 f3f3 	udiv	r3, r9, r3
 80011aa:	b2db      	uxtb	r3, r3
 80011ac:	fb07 fc03 	mul.w	ip, r7, r3
 80011b0:	fb84 7e0c 	smull	r7, lr, r4, ip
 80011b4:	fb03 f101 	mul.w	r1, r3, r1
 80011b8:	44e6      	add	lr, ip
 80011ba:	ea4f 7cec 	mov.w	ip, ip, asr #31
 80011be:	ebac 1cee 	sub.w	ip, ip, lr, asr #7
 80011c2:	fb84 7e01 	smull	r7, lr, r4, r1
 80011c6:	448e      	add	lr, r1
 80011c8:	17c9      	asrs	r1, r1, #31
 80011ca:	f1ac 0c33 	sub.w	ip, ip, #51	; 0x33
 80011ce:	eba1 11ee 	sub.w	r1, r1, lr, asr #7
 80011d2:	eba3 0383 	sub.w	r3, r3, r3, lsl #2
 80011d6:	fa5f fc8c 	uxtb.w	ip, ip
 80011da:	397b      	subs	r1, #123	; 0x7b
 80011dc:	019b      	lsls	r3, r3, #6
 80011de:	ea4f 4c0c 	mov.w	ip, ip, lsl #16
 80011e2:	b2c9      	uxtb	r1, r1
 80011e4:	ea4c 2101 	orr.w	r1, ip, r1, lsl #8
 80011e8:	fb84 7c03 	smull	r7, ip, r4, r3
 80011ec:	449c      	add	ip, r3
 80011ee:	17db      	asrs	r3, r3, #31
 80011f0:	eba3 13ec 	sub.w	r3, r3, ip, asr #7
 80011f4:	333f      	adds	r3, #63	; 0x3f
 80011f6:	b2db      	uxtb	r3, r3
 80011f8:	430b      	orrs	r3, r1
 80011fa:	e7b0      	b.n	800115e <DrawSym.constprop.3+0x102>
 80011fc:	461a      	mov	r2, r3
 80011fe:	9b0e      	ldr	r3, [sp, #56]	; 0x38
 8001200:	4413      	add	r3, r2
 8001202:	9308      	str	r3, [sp, #32]
 8001204:	9b0b      	ldr	r3, [sp, #44]	; 0x2c
 8001206:	9a08      	ldr	r2, [sp, #32]
 8001208:	920e      	str	r2, [sp, #56]	; 0x38
 800120a:	9a09      	ldr	r2, [sp, #36]	; 0x24
 800120c:	3301      	adds	r3, #1
 800120e:	4293      	cmp	r3, r2
 8001210:	930b      	str	r3, [sp, #44]	; 0x2c
 8001212:	f47f af6b 	bne.w	80010ec <DrawSym.constprop.3+0x90>
 8001216:	b015      	add	sp, #84	; 0x54
 8001218:	e8bd 8ff0 	ldmia.w	sp!, {r4, r5, r6, r7, r8, r9, sl, fp, pc}
 800121c:	2120      	movs	r1, #32
 800121e:	e741      	b.n	80010a4 <DrawSym.constprop.3+0x48>
 8001220:	9b0d      	ldr	r3, [sp, #52]	; 0x34
 8001222:	f893 a000 	ldrb.w	sl, [r3]
 8001226:	e76e      	b.n	8001106 <DrawSym.constprop.3+0xaa>
 8001228:	2900      	cmp	r1, #0
 800122a:	f000 80bb 	beq.w	80013a4 <DrawSym.constprop.3+0x348>
 800122e:	990e      	ldr	r1, [sp, #56]	; 0x38
 8001230:	9b09      	ldr	r3, [sp, #36]	; 0x24
 8001232:	2600      	movs	r6, #0
 8001234:	18cb      	adds	r3, r1, r3
 8001236:	9308      	str	r3, [sp, #32]
 8001238:	ebc1 2a01 	rsb	sl, r1, r1, lsl #8
 800123c:	ebc3 2903 	rsb	r9, r3, r3, lsl #8
 8001240:	4635      	mov	r5, r6
 8001242:	9b03      	ldr	r3, [sp, #12]
 8001244:	f8cd 8000 	str.w	r8, [sp]
 8001248:	1959      	adds	r1, r3, r5
 800124a:	9b1e      	ldr	r3, [sp, #120]	; 0x78
 800124c:	f06f 0579 	mvn.w	r5, #121	; 0x79
 8001250:	441e      	add	r6, r3
 8001252:	9b05      	ldr	r3, [sp, #20]
 8001254:	fbba f3f3 	udiv	r3, sl, r3
 8001258:	b2db      	uxtb	r3, r3
 800125a:	fb05 fc03 	mul.w	ip, r5, r3
 800125e:	fb84 7e0c 	smull	r7, lr, r4, ip
 8001262:	f06f 0531 	mvn.w	r5, #49	; 0x31
 8001266:	fb05 f503 	mul.w	r5, r5, r3
 800126a:	44e6      	add	lr, ip
 800126c:	ea4f 7cec 	mov.w	ip, ip, asr #31
 8001270:	ebac 1cee 	sub.w	ip, ip, lr, asr #7
 8001274:	fb84 7e05 	smull	r7, lr, r4, r5
 8001278:	44ae      	add	lr, r5
 800127a:	17ed      	asrs	r5, r5, #31
 800127c:	eba5 15ee 	sub.w	r5, r5, lr, asr #7
 8001280:	f1ac 0c7b 	sub.w	ip, ip, #123	; 0x7b
 8001284:	eba3 0383 	sub.w	r3, r3, r3, lsl #2
 8001288:	fa5f fc8c 	uxtb.w	ip, ip
 800128c:	3d33      	subs	r5, #51	; 0x33
 800128e:	019b      	lsls	r3, r3, #6
 8001290:	b2ed      	uxtb	r5, r5
 8001292:	ea4f 2c0c 	mov.w	ip, ip, lsl #8
 8001296:	ea4c 4c05 	orr.w	ip, ip, r5, lsl #16
 800129a:	fb84 7503 	smull	r7, r5, r4, r3
 800129e:	441d      	add	r5, r3
 80012a0:	17db      	asrs	r3, r3, #31
 80012a2:	eba3 13e5 	sub.w	r3, r3, r5, asr #7
 80012a6:	333f      	adds	r3, #63	; 0x3f
 80012a8:	b2db      	uxtb	r3, r3
 80012aa:	ea4c 0303 	orr.w	r3, ip, r3
 80012ae:	9301      	str	r3, [sp, #4]
 80012b0:	9b04      	ldr	r3, [sp, #16]
 80012b2:	fbb6 f5fb 	udiv	r5, r6, fp
 80012b6:	442b      	add	r3, r5
 80012b8:	b289      	uxth	r1, r1
 80012ba:	f10a 0aff 	add.w	sl, sl, #255	; 0xff
 80012be:	b29b      	uxth	r3, r3
 80012c0:	e9cd 0206 	strd	r0, r2, [sp, #24]
 80012c4:	f003 f8b2 	bl	800442c <LCD_FillWindow>
 80012c8:	45ca      	cmp	sl, r9
 80012ca:	e9dd 0206 	ldrd	r0, r2, [sp, #24]
 80012ce:	d1b8      	bne.n	8001242 <DrawSym.constprop.3+0x1e6>
 80012d0:	e798      	b.n	8001204 <DrawSym.constprop.3+0x1a8>
 80012d2:	bf00      	nop
 80012d4:	20000004 	.word	0x20000004
 80012d8:	80808081 	.word	0x80808081
 80012dc:	001e90ff 	.word	0x001e90ff
 80012e0:	00ff1493 	.word	0x00ff1493
 80012e4:	990e      	ldr	r1, [sp, #56]	; 0x38
 80012e6:	461d      	mov	r5, r3
 80012e8:	9b09      	ldr	r3, [sp, #36]	; 0x24
 80012ea:	18cb      	adds	r3, r1, r3
 80012ec:	9308      	str	r3, [sp, #32]
 80012ee:	ebc1 2a01 	rsb	sl, r1, r1, lsl #8
 80012f2:	ebc3 2903 	rsb	r9, r3, r3, lsl #8
 80012f6:	462e      	mov	r6, r5
 80012f8:	9b03      	ldr	r3, [sp, #12]
 80012fa:	f8cd 8000 	str.w	r8, [sp]
 80012fe:	1959      	adds	r1, r3, r5
 8001300:	9b1e      	ldr	r3, [sp, #120]	; 0x78
 8001302:	f06f 0531 	mvn.w	r5, #49	; 0x31
 8001306:	441e      	add	r6, r3
 8001308:	9b05      	ldr	r3, [sp, #20]
 800130a:	fbba f3f3 	udiv	r3, sl, r3
 800130e:	b2db      	uxtb	r3, r3
 8001310:	fb05 fc03 	mul.w	ip, r5, r3
 8001314:	fb84 7e0c 	smull	r7, lr, r4, ip
 8001318:	f06f 0579 	mvn.w	r5, #121	; 0x79
 800131c:	fb05 f503 	mul.w	r5, r5, r3
 8001320:	44e6      	add	lr, ip
 8001322:	ea4f 7cec 	mov.w	ip, ip, asr #31
 8001326:	ebac 1cee 	sub.w	ip, ip, lr, asr #7
 800132a:	fb84 7e05 	smull	r7, lr, r4, r5
 800132e:	44ae      	add	lr, r5
 8001330:	17ed      	asrs	r5, r5, #31
 8001332:	eba5 15ee 	sub.w	r5, r5, lr, asr #7
 8001336:	f1ac 0c33 	sub.w	ip, ip, #51	; 0x33
 800133a:	eba3 0383 	sub.w	r3, r3, r3, lsl #2
 800133e:	fa5f fc8c 	uxtb.w	ip, ip
 8001342:	3d7b      	subs	r5, #123	; 0x7b
 8001344:	019b      	lsls	r3, r3, #6
 8001346:	b2ed      	uxtb	r5, r5
 8001348:	ea4f 4c0c 	mov.w	ip, ip, lsl #16
 800134c:	ea4c 2c05 	orr.w	ip, ip, r5, lsl #8
 8001350:	fb84 7503 	smull	r7, r5, r4, r3
 8001354:	441d      	add	r5, r3
 8001356:	17db      	asrs	r3, r3, #31
 8001358:	eba3 13e5 	sub.w	r3, r3, r5, asr #7
 800135c:	333f      	adds	r3, #63	; 0x3f
 800135e:	b2db      	uxtb	r3, r3
 8001360:	ea4c 0303 	orr.w	r3, ip, r3
 8001364:	9301      	str	r3, [sp, #4]
 8001366:	9b04      	ldr	r3, [sp, #16]
 8001368:	fbb6 f5fb 	udiv	r5, r6, fp
 800136c:	442b      	add	r3, r5
 800136e:	b289      	uxth	r1, r1
 8001370:	f10a 0aff 	add.w	sl, sl, #255	; 0xff
 8001374:	b29b      	uxth	r3, r3
 8001376:	e9cd 0206 	strd	r0, r2, [sp, #24]
 800137a:	f003 f857 	bl	800442c <LCD_FillWindow>
 800137e:	45ca      	cmp	sl, r9
 8001380:	e9dd 0206 	ldrd	r0, r2, [sp, #24]
 8001384:	d1b8      	bne.n	80012f8 <DrawSym.constprop.3+0x29c>
 8001386:	e73d      	b.n	8001204 <DrawSym.constprop.3+0x1a8>
 8001388:	9b0d      	ldr	r3, [sp, #52]	; 0x34
 800138a:	f8b3 a000 	ldrh.w	sl, [r3]
 800138e:	e6ba      	b.n	8001106 <DrawSym.constprop.3+0xaa>
 8001390:	990d      	ldr	r1, [sp, #52]	; 0x34
 8001392:	788b      	ldrb	r3, [r1, #2]
 8001394:	041a      	lsls	r2, r3, #16
 8001396:	784b      	ldrb	r3, [r1, #1]
 8001398:	ea42 2203 	orr.w	r2, r2, r3, lsl #8
 800139c:	780b      	ldrb	r3, [r1, #0]
 800139e:	ea42 0a03 	orr.w	sl, r2, r3
 80013a2:	e6b0      	b.n	8001106 <DrawSym.constprop.3+0xaa>
 80013a4:	460d      	mov	r5, r1
 80013a6:	9b09      	ldr	r3, [sp, #36]	; 0x24
 80013a8:	990e      	ldr	r1, [sp, #56]	; 0x38
 80013aa:	18cb      	adds	r3, r1, r3
 80013ac:	9308      	str	r3, [sp, #32]
 80013ae:	ebc3 2303 	rsb	r3, r3, r3, lsl #8
 80013b2:	4647      	mov	r7, r8
 80013b4:	ebc1 2a01 	rsb	sl, r1, r1, lsl #8
 80013b8:	462e      	mov	r6, r5
 80013ba:	4698      	mov	r8, r3
 80013bc:	9b03      	ldr	r3, [sp, #12]
 80013be:	9700      	str	r7, [sp, #0]
 80013c0:	1959      	adds	r1, r3, r5
 80013c2:	9b1e      	ldr	r3, [sp, #120]	; 0x78
 80013c4:	f06f 0579 	mvn.w	r5, #121	; 0x79
 80013c8:	441e      	add	r6, r3
 80013ca:	9b05      	ldr	r3, [sp, #20]
 80013cc:	fbba f3f3 	udiv	r3, sl, r3
 80013d0:	b2db      	uxtb	r3, r3
 80013d2:	fb05 fc03 	mul.w	ip, r5, r3
 80013d6:	fb84 9e0c 	smull	r9, lr, r4, ip
 80013da:	f06f 0531 	mvn.w	r5, #49	; 0x31
 80013de:	fb05 f503 	mul.w	r5, r5, r3
 80013e2:	44e6      	add	lr, ip
 80013e4:	ea4f 7cec 	mov.w	ip, ip, asr #31
 80013e8:	ebac 1cee 	sub.w	ip, ip, lr, asr #7
 80013ec:	fb84 9e05 	smull	r9, lr, r4, r5
 80013f0:	44ae      	add	lr, r5
 80013f2:	17ed      	asrs	r5, r5, #31
 80013f4:	eba5 15ee 	sub.w	r5, r5, lr, asr #7
 80013f8:	f1ac 0c7b 	sub.w	ip, ip, #123	; 0x7b
 80013fc:	eba3 0383 	sub.w	r3, r3, r3, lsl #2
 8001400:	fa5f fc8c 	uxtb.w	ip, ip
 8001404:	3d33      	subs	r5, #51	; 0x33
 8001406:	019b      	lsls	r3, r3, #6
 8001408:	b2ed      	uxtb	r5, r5
 800140a:	ea4f 2c0c 	mov.w	ip, ip, lsl #8
 800140e:	ea4c 4c05 	orr.w	ip, ip, r5, lsl #16
 8001412:	fb84 e503 	smull	lr, r5, r4, r3
 8001416:	441d      	add	r5, r3
 8001418:	17db      	asrs	r3, r3, #31
 800141a:	eba3 13e5 	sub.w	r3, r3, r5, asr #7
 800141e:	333f      	adds	r3, #63	; 0x3f
 8001420:	b2db      	uxtb	r3, r3
 8001422:	ea4c 0303 	orr.w	r3, ip, r3
 8001426:	9301      	str	r3, [sp, #4]
 8001428:	9b04      	ldr	r3, [sp, #16]
 800142a:	fbb6 f5fb 	udiv	r5, r6, fp
 800142e:	442b      	add	r3, r5
 8001430:	b289      	uxth	r1, r1
 8001432:	f10a 0aff 	add.w	sl, sl, #255	; 0xff
 8001436:	b29b      	uxth	r3, r3
 8001438:	e9cd 0206 	strd	r0, r2, [sp, #24]
 800143c:	f002 fff6 	bl	800442c <LCD_FillWindow>
 8001440:	45c2      	cmp	sl, r8
 8001442:	e9dd 0206 	ldrd	r0, r2, [sp, #24]
 8001446:	d1b9      	bne.n	80013bc <DrawSym.constprop.3+0x360>
 8001448:	e6dc      	b.n	8001204 <DrawSym.constprop.3+0x1a8>
 800144a:	9a0c      	ldr	r2, [sp, #48]	; 0x30
 800144c:	1acb      	subs	r3, r1, r3
 800144e:	b2db      	uxtb	r3, r3
 8001450:	fb02 f303 	mul.w	r3, r2, r3
 8001454:	9a09      	ldr	r2, [sp, #36]	; 0x24
 8001456:	fb02 4303 	mla	r3, r2, r3, r4
 800145a:	930d      	str	r3, [sp, #52]	; 0x34
 800145c:	e62b      	b.n	80010b6 <DrawSym.constprop.3+0x5a>
 800145e:	2158      	movs	r1, #88	; 0x58
 8001460:	e620      	b.n	80010a4 <DrawSym.constprop.3+0x48>
 8001462:	bf00      	nop

08001464 <ScanField.constprop.1>:
 8001464:	e92d 4ff0 	stmdb	sp!, {r4, r5, r6, r7, r8, r9, sl, fp, lr}
 8001468:	b08f      	sub	sp, #60	; 0x3c
 800146a:	f04f 0900 	mov.w	r9, #0
 800146e:	f883 9000 	strb.w	r9, [r3]
 8001472:	e9cd 230c 	strd	r2, r3, [sp, #48]	; 0x30
 8001476:	9b18      	ldr	r3, [sp, #96]	; 0x60
 8001478:	f882 9000 	strb.w	r9, [r2]
 800147c:	9002      	str	r0, [sp, #8]
 800147e:	f883 9000 	strb.w	r9, [r3]
 8001482:	2900      	cmp	r1, #0
 8001484:	f000 80d0 	beq.w	8001628 <ScanField.constprop.1+0x1c4>
 8001488:	1e4b      	subs	r3, r1, #1
 800148a:	2401      	movs	r4, #1
 800148c:	fa50 fe83 	uxtab	lr, r0, r3
 8001490:	fb01 0303 	mla	r3, r1, r3, r0
 8001494:	9301      	str	r3, [sp, #4]
 8001496:	e9cd 1107 	strd	r1, r1, [sp, #28]
 800149a:	1a63      	subs	r3, r4, r1
 800149c:	e9cd 9409 	strd	r9, r4, [sp, #36]	; 0x24
 80014a0:	9305      	str	r3, [sp, #20]
 80014a2:	190b      	adds	r3, r1, r4
 80014a4:	940b      	str	r4, [sp, #44]	; 0x2c
 80014a6:	9304      	str	r3, [sp, #16]
 80014a8:	9000      	str	r0, [sp, #0]
 80014aa:	f04f 3bff 	mov.w	fp, #4294967295
 80014ae:	464e      	mov	r6, r9
 80014b0:	f8cd 9018 	str.w	r9, [sp, #24]
 80014b4:	f8cd 900c 	str.w	r9, [sp, #12]
 80014b8:	464d      	mov	r5, r9
 80014ba:	9b02      	ldr	r3, [sp, #8]
 80014bc:	445b      	add	r3, fp
 80014be:	461a      	mov	r2, r3
 80014c0:	460c      	mov	r4, r1
 80014c2:	f04f 0c01 	mov.w	ip, #1
 80014c6:	2700      	movs	r7, #0
 80014c8:	e003      	b.n	80014d2 <ScanField.constprop.1+0x6e>
 80014ca:	3c01      	subs	r4, #1
 80014cc:	2701      	movs	r7, #1
 80014ce:	4572      	cmp	r2, lr
 80014d0:	d00b      	beq.n	80014ea <ScanField.constprop.1+0x86>
 80014d2:	f812 0f01 	ldrb.w	r0, [r2, #1]!
 80014d6:	2801      	cmp	r0, #1
 80014d8:	d0f9      	beq.n	80014ce <ScanField.constprop.1+0x6a>
 80014da:	2800      	cmp	r0, #0
 80014dc:	d0f5      	beq.n	80014ca <ScanField.constprop.1+0x66>
 80014de:	4572      	cmp	r2, lr
 80014e0:	f04f 0c00 	mov.w	ip, #0
 80014e4:	f04f 0701 	mov.w	r7, #1
 80014e8:	d1f3      	bne.n	80014d2 <ScanField.constprop.1+0x6e>
 80014ea:	fb04 fc0c 	mul.w	ip, r4, ip
 80014ee:	9a18      	ldr	r2, [sp, #96]	; 0x60
 80014f0:	45ac      	cmp	ip, r5
 80014f2:	bfb8      	it	lt
 80014f4:	46ac      	movlt	ip, r5
 80014f6:	f882 c000 	strb.w	ip, [r2]
 80014fa:	2f00      	cmp	r7, #0
 80014fc:	d079      	beq.n	80015f2 <ScanField.constprop.1+0x18e>
 80014fe:	9802      	ldr	r0, [sp, #8]
 8001500:	2200      	movs	r2, #0
 8001502:	eb00 0409 	add.w	r4, r0, r9
 8001506:	4688      	mov	r8, r1
 8001508:	f04f 0a01 	mov.w	sl, #1
 800150c:	4610      	mov	r0, r2
 800150e:	e007      	b.n	8001520 <ScanField.constprop.1+0xbc>
 8001510:	f108 38ff 	add.w	r8, r8, #4294967295
 8001514:	4638      	mov	r0, r7
 8001516:	3201      	adds	r2, #1
 8001518:	b2d5      	uxtb	r5, r2
 800151a:	42a9      	cmp	r1, r5
 800151c:	440c      	add	r4, r1
 800151e:	d90c      	bls.n	800153a <ScanField.constprop.1+0xd6>
 8001520:	7825      	ldrb	r5, [r4, #0]
 8001522:	2d01      	cmp	r5, #1
 8001524:	d0f7      	beq.n	8001516 <ScanField.constprop.1+0xb2>
 8001526:	2d00      	cmp	r5, #0
 8001528:	d0f2      	beq.n	8001510 <ScanField.constprop.1+0xac>
 800152a:	3201      	adds	r2, #1
 800152c:	b2d5      	uxtb	r5, r2
 800152e:	42a9      	cmp	r1, r5
 8001530:	4638      	mov	r0, r7
 8001532:	f04f 0a00 	mov.w	sl, #0
 8001536:	440c      	add	r4, r1
 8001538:	d8f2      	bhi.n	8001520 <ScanField.constprop.1+0xbc>
 800153a:	fb0a f808 	mul.w	r8, sl, r8
 800153e:	45c4      	cmp	ip, r8
 8001540:	9a18      	ldr	r2, [sp, #96]	; 0x60
 8001542:	bfb8      	it	lt
 8001544:	46c4      	movlt	ip, r8
 8001546:	fa5f f58c 	uxtb.w	r5, ip
 800154a:	7015      	strb	r5, [r2, #0]
 800154c:	2800      	cmp	r0, #0
 800154e:	d05a      	beq.n	8001606 <ScanField.constprop.1+0x1a2>
 8001550:	9a00      	ldr	r2, [sp, #0]
 8001552:	7812      	ldrb	r2, [r2, #0]
 8001554:	2a01      	cmp	r2, #1
 8001556:	d005      	beq.n	8001564 <ScanField.constprop.1+0x100>
 8001558:	2a00      	cmp	r2, #0
 800155a:	d142      	bne.n	80015e2 <ScanField.constprop.1+0x17e>
 800155c:	9a07      	ldr	r2, [sp, #28]
 800155e:	3a01      	subs	r2, #1
 8001560:	e9cd 0206 	strd	r0, r2, [sp, #24]
 8001564:	9a01      	ldr	r2, [sp, #4]
 8001566:	7812      	ldrb	r2, [r2, #0]
 8001568:	2a01      	cmp	r2, #1
 800156a:	d005      	beq.n	8001578 <ScanField.constprop.1+0x114>
 800156c:	2a00      	cmp	r2, #0
 800156e:	d13c      	bne.n	80015ea <ScanField.constprop.1+0x186>
 8001570:	9a08      	ldr	r2, [sp, #32]
 8001572:	3a01      	subs	r2, #1
 8001574:	e9cd 2008 	strd	r2, r0, [sp, #32]
 8001578:	f813 2f01 	ldrb.w	r2, [r3, #1]!
 800157c:	2a00      	cmp	r2, #0
 800157e:	bf08      	it	eq
 8001580:	4606      	moveq	r6, r0
 8001582:	4573      	cmp	r3, lr
 8001584:	d1f8      	bne.n	8001578 <ScanField.constprop.1+0x114>
 8001586:	9a05      	ldr	r2, [sp, #20]
 8001588:	eb03 0e01 	add.w	lr, r3, r1
 800158c:	9b01      	ldr	r3, [sp, #4]
 800158e:	4413      	add	r3, r2
 8001590:	9301      	str	r3, [sp, #4]
 8001592:	9a04      	ldr	r2, [sp, #16]
 8001594:	9b00      	ldr	r3, [sp, #0]
 8001596:	f109 0901 	add.w	r9, r9, #1
 800159a:	4413      	add	r3, r2
 800159c:	9300      	str	r3, [sp, #0]
 800159e:	fa5f f389 	uxtb.w	r3, r9
 80015a2:	4299      	cmp	r1, r3
 80015a4:	448b      	add	fp, r1
 80015a6:	9303      	str	r3, [sp, #12]
 80015a8:	d887      	bhi.n	80014ba <ScanField.constprop.1+0x56>
 80015aa:	9a07      	ldr	r2, [sp, #28]
 80015ac:	9b0a      	ldr	r3, [sp, #40]	; 0x28
 80015ae:	9908      	ldr	r1, [sp, #32]
 80015b0:	fb02 f303 	mul.w	r3, r2, r3
 80015b4:	9a0b      	ldr	r2, [sp, #44]	; 0x2c
 80015b6:	fb01 f202 	mul.w	r2, r1, r2
 80015ba:	4293      	cmp	r3, r2
 80015bc:	bfb8      	it	lt
 80015be:	4613      	movlt	r3, r2
 80015c0:	459c      	cmp	ip, r3
 80015c2:	4667      	mov	r7, ip
 80015c4:	bfb8      	it	lt
 80015c6:	461f      	movlt	r7, r3
 80015c8:	9b18      	ldr	r3, [sp, #96]	; 0x60
 80015ca:	701f      	strb	r7, [r3, #0]
 80015cc:	9b06      	ldr	r3, [sp, #24]
 80015ce:	b35b      	cbz	r3, 8001628 <ScanField.constprop.1+0x1c4>
 80015d0:	9b09      	ldr	r3, [sp, #36]	; 0x24
 80015d2:	b313      	cbz	r3, 800161a <ScanField.constprop.1+0x1b6>
 80015d4:	2e00      	cmp	r6, #0
 80015d6:	bf14      	ite	ne
 80015d8:	2000      	movne	r0, #0
 80015da:	2002      	moveq	r0, #2
 80015dc:	b00f      	add	sp, #60	; 0x3c
 80015de:	e8bd 8ff0 	ldmia.w	sp!, {r4, r5, r6, r7, r8, r9, sl, fp, pc}
 80015e2:	2200      	movs	r2, #0
 80015e4:	9006      	str	r0, [sp, #24]
 80015e6:	920a      	str	r2, [sp, #40]	; 0x28
 80015e8:	e7bc      	b.n	8001564 <ScanField.constprop.1+0x100>
 80015ea:	2200      	movs	r2, #0
 80015ec:	9009      	str	r0, [sp, #36]	; 0x24
 80015ee:	920b      	str	r2, [sp, #44]	; 0x2c
 80015f0:	e7c2      	b.n	8001578 <ScanField.constprop.1+0x114>
 80015f2:	9b03      	ldr	r3, [sp, #12]
 80015f4:	f103 0b01 	add.w	fp, r3, #1
 80015f8:	9b0c      	ldr	r3, [sp, #48]	; 0x30
 80015fa:	2001      	movs	r0, #1
 80015fc:	f883 b000 	strb.w	fp, [r3]
 8001600:	b00f      	add	sp, #60	; 0x3c
 8001602:	e8bd 8ff0 	ldmia.w	sp!, {r4, r5, r6, r7, r8, r9, sl, fp, pc}
 8001606:	9b03      	ldr	r3, [sp, #12]
 8001608:	f103 0b01 	add.w	fp, r3, #1
 800160c:	9b0d      	ldr	r3, [sp, #52]	; 0x34
 800160e:	4638      	mov	r0, r7
 8001610:	f883 b000 	strb.w	fp, [r3]
 8001614:	b00f      	add	sp, #60	; 0x3c
 8001616:	e8bd 8ff0 	ldmia.w	sp!, {r4, r5, r6, r7, r8, r9, sl, fp, pc}
 800161a:	9a0d      	ldr	r2, [sp, #52]	; 0x34
 800161c:	9806      	ldr	r0, [sp, #24]
 800161e:	2302      	movs	r3, #2
 8001620:	7013      	strb	r3, [r2, #0]
 8001622:	9a0c      	ldr	r2, [sp, #48]	; 0x30
 8001624:	7013      	strb	r3, [r2, #0]
 8001626:	e7eb      	b.n	8001600 <ScanField.constprop.1+0x19c>
 8001628:	9a0d      	ldr	r2, [sp, #52]	; 0x34
 800162a:	2301      	movs	r3, #1
 800162c:	7013      	strb	r3, [r2, #0]
 800162e:	9a0c      	ldr	r2, [sp, #48]	; 0x30
 8001630:	4618      	mov	r0, r3
 8001632:	7013      	strb	r3, [r2, #0]
 8001634:	b00f      	add	sp, #60	; 0x3c
 8001636:	e8bd 8ff0 	ldmia.w	sp!, {r4, r5, r6, r7, r8, r9, sl, fp, pc}
 800163a:	bf00      	nop

0800163c <GameLogic>:
 800163c:	e92d 4ff0 	stmdb	sp!, {r4, r5, r6, r7, r8, r9, sl, fp, lr}
 8001640:	ed2d 8b02 	vpush	{d8}
 8001644:	b0a3      	sub	sp, #140	; 0x8c
 8001646:	af04      	add	r7, sp, #16
 8001648:	61fb      	str	r3, [r7, #28]
 800164a:	f897 30b0 	ldrb.w	r3, [r7, #176]	; 0xb0
 800164e:	6438      	str	r0, [r7, #64]	; 0x40
 8001650:	617b      	str	r3, [r7, #20]
 8001652:	2b00      	cmp	r3, #0
 8001654:	f000 8167 	beq.w	8001926 <GameLogic+0x2ea>
 8001658:	4692      	mov	sl, r2
 800165a:	fb11 f201 	smulbb	r2, r1, r1
 800165e:	468b      	mov	fp, r1
 8001660:	623a      	str	r2, [r7, #32]
 8001662:	2a00      	cmp	r2, #0
 8001664:	f000 813c 	beq.w	80018e0 <GameLogic+0x2a4>
 8001668:	1e43      	subs	r3, r0, #1
 800166a:	1898      	adds	r0, r3, r2
 800166c:	2100      	movs	r1, #0
 800166e:	f813 2f01 	ldrb.w	r2, [r3, #1]!
 8001672:	b902      	cbnz	r2, 8001676 <GameLogic+0x3a>
 8001674:	3101      	adds	r1, #1
 8001676:	4283      	cmp	r3, r0
 8001678:	d1f9      	bne.n	800166e <GameLogic+0x32>
 800167a:	2900      	cmp	r1, #0
 800167c:	f000 8130 	beq.w	80018e0 <GameLogic+0x2a4>
 8001680:	eb01 0341 	add.w	r3, r1, r1, lsl #1
 8001684:	009b      	lsls	r3, r3, #2
 8001686:	6a3a      	ldr	r2, [r7, #32]
 8001688:	3307      	adds	r3, #7
 800168a:	f023 0307 	bic.w	r3, r3, #7
 800168e:	4669      	mov	r1, sp
 8001690:	3207      	adds	r2, #7
 8001692:	ebad 0d03 	sub.w	sp, sp, r3
 8001696:	ee08 1a10 	vmov	s16, r1
 800169a:	08d2      	lsrs	r2, r2, #3
 800169c:	4669      	mov	r1, sp
 800169e:	f10d 0313 	add.w	r3, sp, #19
 80016a2:	eba1 02c2 	sub.w	r2, r1, r2, lsl #3
 80016a6:	4695      	mov	sp, r2
 80016a8:	089a      	lsrs	r2, r3, #2
 80016aa:	f023 0303 	bic.w	r3, r3, #3
 80016ae:	62bb      	str	r3, [r7, #40]	; 0x28
 80016b0:	ab04      	add	r3, sp, #16
 80016b2:	60ba      	str	r2, [r7, #8]
 80016b4:	667b      	str	r3, [r7, #100]	; 0x64
 80016b6:	f1bb 0f00 	cmp.w	fp, #0
 80016ba:	f000 81b2 	beq.w	8001a22 <GameLogic+0x3e6>
 80016be:	69fa      	ldr	r2, [r7, #28]
 80016c0:	f10b 31ff 	add.w	r1, fp, #4294967295
 80016c4:	2a01      	cmp	r2, #1
 80016c6:	bf08      	it	eq
 80016c8:	2001      	moveq	r0, #1
 80016ca:	f04f 0200 	mov.w	r2, #0
 80016ce:	bf18      	it	ne
 80016d0:	f04f 30ff 	movne.w	r0, #4294967295
 80016d4:	fb0b 3301 	mla	r3, fp, r1, r3
 80016d8:	633a      	str	r2, [r7, #48]	; 0x30
 80016da:	60f9      	str	r1, [r7, #12]
 80016dc:	6078      	str	r0, [r7, #4]
 80016de:	613b      	str	r3, [r7, #16]
 80016e0:	62fa      	str	r2, [r7, #44]	; 0x2c
 80016e2:	63fa      	str	r2, [r7, #60]	; 0x3c
 80016e4:	6b3b      	ldr	r3, [r7, #48]	; 0x30
 80016e6:	663b      	str	r3, [r7, #96]	; 0x60
 80016e8:	2300      	movs	r3, #0
 80016ea:	6e3a      	ldr	r2, [r7, #96]	; 0x60
 80016ec:	657b      	str	r3, [r7, #84]	; 0x54
 80016ee:	6c3b      	ldr	r3, [r7, #64]	; 0x40
 80016f0:	5c9c      	ldrb	r4, [r3, r2]
 80016f2:	b174      	cbz	r4, 8001712 <GameLogic+0xd6>
 80016f4:	6e3b      	ldr	r3, [r7, #96]	; 0x60
 80016f6:	3301      	adds	r3, #1
 80016f8:	663b      	str	r3, [r7, #96]	; 0x60
 80016fa:	6d7b      	ldr	r3, [r7, #84]	; 0x54
 80016fc:	3301      	adds	r3, #1
 80016fe:	b2db      	uxtb	r3, r3
 8001700:	459b      	cmp	fp, r3
 8001702:	f000 8104 	beq.w	800190e <GameLogic+0x2d2>
 8001706:	6e3a      	ldr	r2, [r7, #96]	; 0x60
 8001708:	657b      	str	r3, [r7, #84]	; 0x54
 800170a:	6c3b      	ldr	r3, [r7, #64]	; 0x40
 800170c:	5c9c      	ldrb	r4, [r3, r2]
 800170e:	2c00      	cmp	r4, #0
 8001710:	d1f0      	bne.n	80016f4 <GameLogic+0xb8>
 8001712:	6e7d      	ldr	r5, [r7, #100]	; 0x64
 8001714:	6a3a      	ldr	r2, [r7, #32]
 8001716:	4619      	mov	r1, r3
 8001718:	4628      	mov	r0, r5
 800171a:	f00b fd29 	bl	800d170 <memcpy>
 800171e:	6e3b      	ldr	r3, [r7, #96]	; 0x60
 8001720:	6bf9      	ldr	r1, [r7, #60]	; 0x3c
 8001722:	f805 a003 	strb.w	sl, [r5, r3]
 8001726:	462a      	mov	r2, r5
 8001728:	e9d7 050a 	ldrd	r0, r5, [r7, #40]	; 0x28
 800172c:	eb01 0341 	add.w	r3, r1, r1, lsl #1
 8001730:	46a1      	mov	r9, r4
 8001732:	f800 5023 	strb.w	r5, [r0, r3, lsl #2]
 8001736:	eb00 0383 	add.w	r3, r0, r3, lsl #2
 800173a:	6d78      	ldr	r0, [r7, #84]	; 0x54
 800173c:	605c      	str	r4, [r3, #4]
 800173e:	627b      	str	r3, [r7, #36]	; 0x24
 8001740:	7058      	strb	r0, [r3, #1]
 8001742:	2301      	movs	r3, #1
 8001744:	4099      	lsls	r1, r3
 8001746:	61b9      	str	r1, [r7, #24]
 8001748:	68f9      	ldr	r1, [r7, #12]
 800174a:	673a      	str	r2, [r7, #112]	; 0x70
 800174c:	fa52 f481 	uxtab	r4, r2, r1
 8001750:	e9c7 bb12 	strd	fp, fp, [r7, #72]	; 0x48
 8001754:	693a      	ldr	r2, [r7, #16]
 8001756:	66fa      	str	r2, [r7, #108]	; 0x6c
 8001758:	eba3 010b 	sub.w	r1, r3, fp
 800175c:	65b9      	str	r1, [r7, #88]	; 0x58
 800175e:	f04f 32ff 	mov.w	r2, #4294967295
 8001762:	eb0b 0103 	add.w	r1, fp, r3
 8001766:	637b      	str	r3, [r7, #52]	; 0x34
 8001768:	65f9      	str	r1, [r7, #92]	; 0x5c
 800176a:	46ce      	mov	lr, r9
 800176c:	f8c7 9044 	str.w	r9, [r7, #68]	; 0x44
 8001770:	f8c7 9050 	str.w	r9, [r7, #80]	; 0x50
 8001774:	677a      	str	r2, [r7, #116]	; 0x74
 8001776:	f8c7 9068 	str.w	r9, [r7, #104]	; 0x68
 800177a:	63bb      	str	r3, [r7, #56]	; 0x38
 800177c:	6f7a      	ldr	r2, [r7, #116]	; 0x74
 800177e:	6e7b      	ldr	r3, [r7, #100]	; 0x64
 8001780:	4413      	add	r3, r2
 8001782:	461a      	mov	r2, r3
 8001784:	2600      	movs	r6, #0
 8001786:	4658      	mov	r0, fp
 8001788:	f04f 0c01 	mov.w	ip, #1
 800178c:	e003      	b.n	8001796 <GameLogic+0x15a>
 800178e:	3801      	subs	r0, #1
 8001790:	2601      	movs	r6, #1
 8001792:	42a2      	cmp	r2, r4
 8001794:	d00b      	beq.n	80017ae <GameLogic+0x172>
 8001796:	f812 1f01 	ldrb.w	r1, [r2, #1]!
 800179a:	458a      	cmp	sl, r1
 800179c:	d0f9      	beq.n	8001792 <GameLogic+0x156>
 800179e:	2900      	cmp	r1, #0
 80017a0:	d0f5      	beq.n	800178e <GameLogic+0x152>
 80017a2:	42a2      	cmp	r2, r4
 80017a4:	f04f 0c00 	mov.w	ip, #0
 80017a8:	f04f 0601 	mov.w	r6, #1
 80017ac:	d1f3      	bne.n	8001796 <GameLogic+0x15a>
 80017ae:	fb00 fc0c 	mul.w	ip, r0, ip
 80017b2:	45cc      	cmp	ip, r9
 80017b4:	bfb8      	it	lt
 80017b6:	46cc      	movlt	ip, r9
 80017b8:	2e00      	cmp	r6, #0
 80017ba:	f000 8117 	beq.w	80019ec <GameLogic+0x3b0>
 80017be:	e9d7 2119 	ldrd	r2, r1, [r7, #100]	; 0x64
 80017c2:	2500      	movs	r5, #0
 80017c4:	1851      	adds	r1, r2, r1
 80017c6:	46d9      	mov	r9, fp
 80017c8:	462a      	mov	r2, r5
 80017ca:	f04f 0801 	mov.w	r8, #1
 80017ce:	e007      	b.n	80017e0 <GameLogic+0x1a4>
 80017d0:	f109 39ff 	add.w	r9, r9, #4294967295
 80017d4:	4635      	mov	r5, r6
 80017d6:	3201      	adds	r2, #1
 80017d8:	b2d0      	uxtb	r0, r2
 80017da:	4583      	cmp	fp, r0
 80017dc:	4459      	add	r1, fp
 80017de:	d90c      	bls.n	80017fa <GameLogic+0x1be>
 80017e0:	7808      	ldrb	r0, [r1, #0]
 80017e2:	4550      	cmp	r0, sl
 80017e4:	d0f7      	beq.n	80017d6 <GameLogic+0x19a>
 80017e6:	2800      	cmp	r0, #0
 80017e8:	d0f2      	beq.n	80017d0 <GameLogic+0x194>
 80017ea:	3201      	adds	r2, #1
 80017ec:	b2d0      	uxtb	r0, r2
 80017ee:	4583      	cmp	fp, r0
 80017f0:	4635      	mov	r5, r6
 80017f2:	f04f 0800 	mov.w	r8, #0
 80017f6:	4459      	add	r1, fp
 80017f8:	d8f2      	bhi.n	80017e0 <GameLogic+0x1a4>
 80017fa:	fb09 f808 	mul.w	r8, r9, r8
 80017fe:	45c4      	cmp	ip, r8
 8001800:	bfb8      	it	lt
 8001802:	46c4      	movlt	ip, r8
 8001804:	fa5f f98c 	uxtb.w	r9, ip
 8001808:	2d00      	cmp	r5, #0
 800180a:	f000 80fe 	beq.w	8001a0a <GameLogic+0x3ce>
 800180e:	6f3a      	ldr	r2, [r7, #112]	; 0x70
 8001810:	7812      	ldrb	r2, [r2, #0]
 8001812:	4592      	cmp	sl, r2
 8001814:	d005      	beq.n	8001822 <GameLogic+0x1e6>
 8001816:	2a00      	cmp	r2, #0
 8001818:	d171      	bne.n	80018fe <GameLogic+0x2c2>
 800181a:	6cfa      	ldr	r2, [r7, #76]	; 0x4c
 800181c:	3a01      	subs	r2, #1
 800181e:	e9c7 2513 	strd	r2, r5, [r7, #76]	; 0x4c
 8001822:	6efa      	ldr	r2, [r7, #108]	; 0x6c
 8001824:	7812      	ldrb	r2, [r2, #0]
 8001826:	4592      	cmp	sl, r2
 8001828:	d005      	beq.n	8001836 <GameLogic+0x1fa>
 800182a:	2a00      	cmp	r2, #0
 800182c:	d16b      	bne.n	8001906 <GameLogic+0x2ca>
 800182e:	6cba      	ldr	r2, [r7, #72]	; 0x48
 8001830:	3a01      	subs	r2, #1
 8001832:	e9c7 5211 	strd	r5, r2, [r7, #68]	; 0x44
 8001836:	f813 2f01 	ldrb.w	r2, [r3, #1]!
 800183a:	2a00      	cmp	r2, #0
 800183c:	bf08      	it	eq
 800183e:	46ae      	moveq	lr, r5
 8001840:	429c      	cmp	r4, r3
 8001842:	d1f8      	bne.n	8001836 <GameLogic+0x1fa>
 8001844:	6efa      	ldr	r2, [r7, #108]	; 0x6c
 8001846:	6db9      	ldr	r1, [r7, #88]	; 0x58
 8001848:	6ebb      	ldr	r3, [r7, #104]	; 0x68
 800184a:	440a      	add	r2, r1
 800184c:	66fa      	str	r2, [r7, #108]	; 0x6c
 800184e:	6df9      	ldr	r1, [r7, #92]	; 0x5c
 8001850:	6f3a      	ldr	r2, [r7, #112]	; 0x70
 8001852:	440a      	add	r2, r1
 8001854:	3301      	adds	r3, #1
 8001856:	673a      	str	r2, [r7, #112]	; 0x70
 8001858:	6f7a      	ldr	r2, [r7, #116]	; 0x74
 800185a:	66bb      	str	r3, [r7, #104]	; 0x68
 800185c:	b2db      	uxtb	r3, r3
 800185e:	445a      	add	r2, fp
 8001860:	459b      	cmp	fp, r3
 8001862:	445c      	add	r4, fp
 8001864:	677a      	str	r2, [r7, #116]	; 0x74
 8001866:	d889      	bhi.n	800177c <GameLogic+0x140>
 8001868:	6cfa      	ldr	r2, [r7, #76]	; 0x4c
 800186a:	6bbb      	ldr	r3, [r7, #56]	; 0x38
 800186c:	6cb9      	ldr	r1, [r7, #72]	; 0x48
 800186e:	fb02 f303 	mul.w	r3, r2, r3
 8001872:	6b7a      	ldr	r2, [r7, #52]	; 0x34
 8001874:	fb01 f202 	mul.w	r2, r1, r2
 8001878:	4293      	cmp	r3, r2
 800187a:	bfb8      	it	lt
 800187c:	4613      	movlt	r3, r2
 800187e:	459c      	cmp	ip, r3
 8001880:	6bfa      	ldr	r2, [r7, #60]	; 0x3c
 8001882:	bfb8      	it	lt
 8001884:	469c      	movlt	ip, r3
 8001886:	69bb      	ldr	r3, [r7, #24]
 8001888:	4413      	add	r3, r2
 800188a:	6aba      	ldr	r2, [r7, #40]	; 0x28
 800188c:	eb02 0383 	add.w	r3, r2, r3, lsl #2
 8001890:	f883 c008 	strb.w	ip, [r3, #8]
 8001894:	6d3b      	ldr	r3, [r7, #80]	; 0x50
 8001896:	2b00      	cmp	r3, #0
 8001898:	f000 80b0 	beq.w	80019fc <GameLogic+0x3c0>
 800189c:	6c7b      	ldr	r3, [r7, #68]	; 0x44
 800189e:	2b00      	cmp	r3, #0
 80018a0:	f000 80ac 	beq.w	80019fc <GameLogic+0x3c0>
 80018a4:	f1be 0f00 	cmp.w	lr, #0
 80018a8:	d016      	beq.n	80018d8 <GameLogic+0x29c>
 80018aa:	f8d7 30ac 	ldr.w	r3, [r7, #172]	; 0xac
 80018ae:	9301      	str	r3, [sp, #4]
 80018b0:	f8d7 30a8 	ldr.w	r3, [r7, #168]	; 0xa8
 80018b4:	9300      	str	r3, [sp, #0]
 80018b6:	697b      	ldr	r3, [r7, #20]
 80018b8:	3b01      	subs	r3, #1
 80018ba:	b2db      	uxtb	r3, r3
 80018bc:	9302      	str	r3, [sp, #8]
 80018be:	69fb      	ldr	r3, [r7, #28]
 80018c0:	6e78      	ldr	r0, [r7, #100]	; 0x64
 80018c2:	f1c3 0303 	rsb	r3, r3, #3
 80018c6:	f1ca 0203 	rsb	r2, sl, #3
 80018ca:	b2db      	uxtb	r3, r3
 80018cc:	b2d2      	uxtb	r2, r2
 80018ce:	4659      	mov	r1, fp
 80018d0:	f7ff feb4 	bl	800163c <GameLogic>
 80018d4:	6a7b      	ldr	r3, [r7, #36]	; 0x24
 80018d6:	6058      	str	r0, [r3, #4]
 80018d8:	6bfb      	ldr	r3, [r7, #60]	; 0x3c
 80018da:	3301      	adds	r3, #1
 80018dc:	63fb      	str	r3, [r7, #60]	; 0x3c
 80018de:	e709      	b.n	80016f4 <GameLogic+0xb8>
 80018e0:	f8d7 30ac 	ldr.w	r3, [r7, #172]	; 0xac
 80018e4:	f883 b000 	strb.w	fp, [r3]
 80018e8:	f8d7 30a8 	ldr.w	r3, [r7, #168]	; 0xa8
 80018ec:	2000      	movs	r0, #0
 80018ee:	377c      	adds	r7, #124	; 0x7c
 80018f0:	f883 b000 	strb.w	fp, [r3]
 80018f4:	46bd      	mov	sp, r7
 80018f6:	ecbd 8b02 	vpop	{d8}
 80018fa:	e8bd 8ff0 	ldmia.w	sp!, {r4, r5, r6, r7, r8, r9, sl, fp, pc}
 80018fe:	2200      	movs	r2, #0
 8001900:	653d      	str	r5, [r7, #80]	; 0x50
 8001902:	63ba      	str	r2, [r7, #56]	; 0x38
 8001904:	e78d      	b.n	8001822 <GameLogic+0x1e6>
 8001906:	2200      	movs	r2, #0
 8001908:	647d      	str	r5, [r7, #68]	; 0x44
 800190a:	637a      	str	r2, [r7, #52]	; 0x34
 800190c:	e793      	b.n	8001836 <GameLogic+0x1fa>
 800190e:	6b3b      	ldr	r3, [r7, #48]	; 0x30
 8001910:	6afa      	ldr	r2, [r7, #44]	; 0x2c
 8001912:	6d79      	ldr	r1, [r7, #84]	; 0x54
 8001914:	445b      	add	r3, fp
 8001916:	633b      	str	r3, [r7, #48]	; 0x30
 8001918:	428a      	cmp	r2, r1
 800191a:	f102 0301 	add.w	r3, r2, #1
 800191e:	b2db      	uxtb	r3, r3
 8001920:	d008      	beq.n	8001934 <GameLogic+0x2f8>
 8001922:	62fb      	str	r3, [r7, #44]	; 0x2c
 8001924:	e6de      	b.n	80016e4 <GameLogic+0xa8>
 8001926:	4618      	mov	r0, r3
 8001928:	377c      	adds	r7, #124	; 0x7c
 800192a:	46bd      	mov	sp, r7
 800192c:	ecbd 8b02 	vpop	{d8}
 8001930:	e8bd 8ff0 	ldmia.w	sp!, {r4, r5, r6, r7, r8, r9, sl, fp, pc}
 8001934:	6abe      	ldr	r6, [r7, #40]	; 0x28
 8001936:	6bfb      	ldr	r3, [r7, #60]	; 0x3c
 8001938:	6870      	ldr	r0, [r6, #4]
 800193a:	7a34      	ldrb	r4, [r6, #8]
 800193c:	1e5a      	subs	r2, r3, #1
 800193e:	b3cb      	cbz	r3, 80019b4 <GameLogic+0x378>
 8001940:	69fb      	ldr	r3, [r7, #28]
 8001942:	2500      	movs	r5, #0
 8001944:	2b01      	cmp	r3, #1
 8001946:	4601      	mov	r1, r0
 8001948:	462b      	mov	r3, r5
 800194a:	d023      	beq.n	8001994 <GameLogic+0x358>
 800194c:	4281      	cmp	r1, r0
 800194e:	dc08      	bgt.n	8001962 <GameLogic+0x326>
 8001950:	eb03 0c43 	add.w	ip, r3, r3, lsl #1
 8001954:	eb06 0c8c 	add.w	ip, r6, ip, lsl #2
 8001958:	db45      	blt.n	80019e6 <GameLogic+0x3aa>
 800195a:	f89c 1008 	ldrb.w	r1, [ip, #8]
 800195e:	42a1      	cmp	r1, r4
 8001960:	dc50      	bgt.n	8001a04 <GameLogic+0x3c8>
 8001962:	3301      	adds	r3, #1
 8001964:	3a01      	subs	r2, #1
 8001966:	b2db      	uxtb	r3, r3
 8001968:	eb03 0143 	add.w	r1, r3, r3, lsl #1
 800196c:	f1b2 3fff 	cmp.w	r2, #4294967295
 8001970:	eb06 0181 	add.w	r1, r6, r1, lsl #2
 8001974:	d01c      	beq.n	80019b0 <GameLogic+0x374>
 8001976:	6849      	ldr	r1, [r1, #4]
 8001978:	e7e8      	b.n	800194c <GameLogic+0x310>
 800197a:	461d      	mov	r5, r3
 800197c:	4608      	mov	r0, r1
 800197e:	3301      	adds	r3, #1
 8001980:	3a01      	subs	r2, #1
 8001982:	b2db      	uxtb	r3, r3
 8001984:	eb03 0143 	add.w	r1, r3, r3, lsl #1
 8001988:	f1b2 3fff 	cmp.w	r2, #4294967295
 800198c:	eb06 0181 	add.w	r1, r6, r1, lsl #2
 8001990:	d00e      	beq.n	80019b0 <GameLogic+0x374>
 8001992:	6849      	ldr	r1, [r1, #4]
 8001994:	4288      	cmp	r0, r1
 8001996:	dcf2      	bgt.n	800197e <GameLogic+0x342>
 8001998:	eb03 0c43 	add.w	ip, r3, r3, lsl #1
 800199c:	eb06 0c8c 	add.w	ip, r6, ip, lsl #2
 80019a0:	dbeb      	blt.n	800197a <GameLogic+0x33e>
 80019a2:	f89c 1008 	ldrb.w	r1, [ip, #8]
 80019a6:	42a1      	cmp	r1, r4
 80019a8:	dde9      	ble.n	800197e <GameLogic+0x342>
 80019aa:	461d      	mov	r5, r3
 80019ac:	460c      	mov	r4, r1
 80019ae:	e7e6      	b.n	800197e <GameLogic+0x342>
 80019b0:	63fd      	str	r5, [r7, #60]	; 0x3c
 80019b2:	462b      	mov	r3, r5
 80019b4:	6aba      	ldr	r2, [r7, #40]	; 0x28
 80019b6:	68b9      	ldr	r1, [r7, #8]
 80019b8:	eb03 0343 	add.w	r3, r3, r3, lsl #1
 80019bc:	eb02 0283 	add.w	r2, r2, r3, lsl #2
 80019c0:	009b      	lsls	r3, r3, #2
 80019c2:	f813 1021 	ldrb.w	r1, [r3, r1, lsl #2]
 80019c6:	7853      	ldrb	r3, [r2, #1]
 80019c8:	f8d7 20a8 	ldr.w	r2, [r7, #168]	; 0xa8
 80019cc:	7011      	strb	r1, [r2, #0]
 80019ce:	f8d7 20ac 	ldr.w	r2, [r7, #172]	; 0xac
 80019d2:	7013      	strb	r3, [r2, #0]
 80019d4:	ee18 3a10 	vmov	r3, s16
 80019d8:	377c      	adds	r7, #124	; 0x7c
 80019da:	469d      	mov	sp, r3
 80019dc:	46bd      	mov	sp, r7
 80019de:	ecbd 8b02 	vpop	{d8}
 80019e2:	e8bd 8ff0 	ldmia.w	sp!, {r4, r5, r6, r7, r8, r9, sl, fp, pc}
 80019e6:	461d      	mov	r5, r3
 80019e8:	4608      	mov	r0, r1
 80019ea:	e7ba      	b.n	8001962 <GameLogic+0x326>
 80019ec:	6bfa      	ldr	r2, [r7, #60]	; 0x3c
 80019ee:	69bb      	ldr	r3, [r7, #24]
 80019f0:	4413      	add	r3, r2
 80019f2:	6aba      	ldr	r2, [r7, #40]	; 0x28
 80019f4:	eb02 0383 	add.w	r3, r2, r3, lsl #2
 80019f8:	f883 c008 	strb.w	ip, [r3, #8]
 80019fc:	6a7b      	ldr	r3, [r7, #36]	; 0x24
 80019fe:	687a      	ldr	r2, [r7, #4]
 8001a00:	605a      	str	r2, [r3, #4]
 8001a02:	e769      	b.n	80018d8 <GameLogic+0x29c>
 8001a04:	461d      	mov	r5, r3
 8001a06:	460c      	mov	r4, r1
 8001a08:	e7ab      	b.n	8001962 <GameLogic+0x326>
 8001a0a:	6bfa      	ldr	r2, [r7, #60]	; 0x3c
 8001a0c:	69bb      	ldr	r3, [r7, #24]
 8001a0e:	4413      	add	r3, r2
 8001a10:	6aba      	ldr	r2, [r7, #40]	; 0x28
 8001a12:	eb02 0383 	add.w	r3, r2, r3, lsl #2
 8001a16:	687a      	ldr	r2, [r7, #4]
 8001a18:	f883 9008 	strb.w	r9, [r3, #8]
 8001a1c:	6a7b      	ldr	r3, [r7, #36]	; 0x24
 8001a1e:	605a      	str	r2, [r3, #4]
 8001a20:	e75a      	b.n	80018d8 <GameLogic+0x29c>
 8001a22:	6abb      	ldr	r3, [r7, #40]	; 0x28
 8001a24:	f8c7 b03c 	str.w	fp, [r7, #60]	; 0x3c
 8001a28:	6858      	ldr	r0, [r3, #4]
 8001a2a:	465b      	mov	r3, fp
 8001a2c:	e7c2      	b.n	80019b4 <GameLogic+0x378>
 8001a2e:	bf00      	nop

08001a30 <TicTacToe_DemoGame>:
 8001a30:	e92d 4ff0 	stmdb	sp!, {r4, r5, r6, r7, r8, r9, sl, fp, lr}
 8001a34:	ed2d 8b0a 	vpush	{d8-d12}
 8001a38:	f5ad 7d0b 	sub.w	sp, sp, #556	; 0x22c
 8001a3c:	4ccd      	ldr	r4, [pc, #820]	; (8001d74 <TicTacToe_DemoGame+0x344>)
 8001a3e:	af04      	add	r7, sp, #16
 8001a40:	f507 739a 	add.w	r3, r7, #308	; 0x134
 8001a44:	4683      	mov	fp, r0
 8001a46:	468a      	mov	sl, r1
 8001a48:	f8c7 30a4 	str.w	r3, [r7, #164]	; 0xa4
 8001a4c:	cc0f      	ldmia	r4!, {r0, r1, r2, r3}
 8001a4e:	f507 76c2 	add.w	r6, r7, #388	; 0x184
 8001a52:	c60f      	stmia	r6!, {r0, r1, r2, r3}
 8001a54:	cc0f      	ldmia	r4!, {r0, r1, r2, r3}
 8001a56:	c60f      	stmia	r6!, {r0, r1, r2, r3}
 8001a58:	cc0f      	ldmia	r4!, {r0, r1, r2, r3}
 8001a5a:	c60f      	stmia	r6!, {r0, r1, r2, r3}
 8001a5c:	e894 000f 	ldmia.w	r4, {r0, r1, r2, r3}
 8001a60:	4cc5      	ldr	r4, [pc, #788]	; (8001d78 <TicTacToe_DemoGame+0x348>)
 8001a62:	e886 000f 	stmia.w	r6, {r0, r1, r2, r3}
 8001a66:	cc0f      	ldmia	r4!, {r0, r1, r2, r3}
 8001a68:	f8d7 60a4 	ldr.w	r6, [r7, #164]	; 0xa4
 8001a6c:	c60f      	stmia	r6!, {r0, r1, r2, r3}
 8001a6e:	e894 0007 	ldmia.w	r4, {r0, r1, r2}
 8001a72:	4bc2      	ldr	r3, [pc, #776]	; (8001d7c <TicTacToe_DemoGame+0x34c>)
 8001a74:	4cc2      	ldr	r4, [pc, #776]	; (8001d80 <TicTacToe_DemoGame+0x350>)
 8001a76:	e886 0007 	stmia.w	r6, {r0, r1, r2}
 8001a7a:	e893 0003 	ldmia.w	r3, {r0, r1}
 8001a7e:	f107 03c4 	add.w	r3, r7, #196	; 0xc4
 8001a82:	e883 0003 	stmia.w	r3, {r0, r1}
 8001a86:	4bbf      	ldr	r3, [pc, #764]	; (8001d84 <TicTacToe_DemoGame+0x354>)
 8001a88:	e893 0003 	ldmia.w	r3, {r0, r1}
 8001a8c:	4bbe      	ldr	r3, [pc, #760]	; (8001d88 <TicTacToe_DemoGame+0x358>)
 8001a8e:	f887 10b8 	strb.w	r1, [r7, #184]	; 0xb8
 8001a92:	f8c7 00b4 	str.w	r0, [r7, #180]	; 0xb4
 8001a96:	e893 0003 	ldmia.w	r3, {r0, r1}
 8001a9a:	4bbc      	ldr	r3, [pc, #752]	; (8001d8c <TicTacToe_DemoGame+0x35c>)
 8001a9c:	f8a7 10c0 	strh.w	r1, [r7, #192]	; 0xc0
 8001aa0:	f8c7 00bc 	str.w	r0, [r7, #188]	; 0xbc
 8001aa4:	e893 0007 	ldmia.w	r3, {r0, r1, r2}
 8001aa8:	f107 05dc 	add.w	r5, r7, #220	; 0xdc
 8001aac:	c503      	stmia	r5!, {r0, r1}
 8001aae:	4bb8      	ldr	r3, [pc, #736]	; (8001d90 <TicTacToe_DemoGame+0x360>)
 8001ab0:	f825 2b02 	strh.w	r2, [r5], #2
 8001ab4:	0c12      	lsrs	r2, r2, #16
 8001ab6:	702a      	strb	r2, [r5, #0]
 8001ab8:	cb0f      	ldmia	r3, {r0, r1, r2, r3}
 8001aba:	f107 08f8 	add.w	r8, r7, #248	; 0xf8
 8001abe:	e8a8 0007 	stmia.w	r8!, {r0, r1, r2}
 8001ac2:	f828 3b02 	strh.w	r3, [r8], #2
 8001ac6:	0c1b      	lsrs	r3, r3, #16
 8001ac8:	f888 3000 	strb.w	r3, [r8]
 8001acc:	4bb1      	ldr	r3, [pc, #708]	; (8001d94 <TicTacToe_DemoGame+0x364>)
 8001ace:	cb0f      	ldmia	r3, {r0, r1, r2, r3}
 8001ad0:	f107 0ce8 	add.w	ip, r7, #232	; 0xe8
 8001ad4:	e8ac 0007 	stmia.w	ip!, {r0, r1, r2}
 8001ad8:	f88c 3000 	strb.w	r3, [ip]
 8001adc:	cc0f      	ldmia	r4!, {r0, r1, r2, r3}
 8001ade:	f507 798e 	add.w	r9, r7, #284	; 0x11c
 8001ae2:	e8a9 000f 	stmia.w	r9!, {r0, r1, r2, r3}
 8001ae6:	e894 0003 	ldmia.w	r4, {r0, r1}
 8001aea:	4cab      	ldr	r4, [pc, #684]	; (8001d98 <TicTacToe_DemoGame+0x368>)
 8001aec:	f849 0b04 	str.w	r0, [r9], #4
 8001af0:	f889 1000 	strb.w	r1, [r9]
 8001af4:	cc0f      	ldmia	r4!, {r0, r1, r2, r3}
 8001af6:	f507 7e84 	add.w	lr, r7, #264	; 0x108
 8001afa:	e8ae 000f 	stmia.w	lr!, {r0, r1, r2, r3}
 8001afe:	6823      	ldr	r3, [r4, #0]
 8001b00:	f8bb 2006 	ldrh.w	r2, [fp, #6]
 8001b04:	f8ae 3000 	strh.w	r3, [lr]
 8001b08:	f8bb 3004 	ldrh.w	r3, [fp, #4]
 8001b0c:	429a      	cmp	r2, r3
 8001b0e:	bf28      	it	cs
 8001b10:	461a      	movcs	r2, r3
 8001b12:	4ba2      	ldr	r3, [pc, #648]	; (8001d9c <TicTacToe_DemoGame+0x36c>)
 8001b14:	65ba      	str	r2, [r7, #88]	; 0x58
 8001b16:	681b      	ldr	r3, [r3, #0]
 8001b18:	f04f 0101 	mov.w	r1, #1
 8001b1c:	f88a 1028 	strb.w	r1, [sl, #40]	; 0x28
 8001b20:	2400      	movs	r4, #0
 8001b22:	b133      	cbz	r3, 8001b32 <TicTacToe_DemoGame+0x102>
 8001b24:	f00b fc4a 	bl	800d3bc <rand>
 8001b28:	4b9c      	ldr	r3, [pc, #624]	; (8001d9c <TicTacToe_DemoGame+0x36c>)
 8001b2a:	681b      	ldr	r3, [r3, #0]
 8001b2c:	3401      	adds	r4, #1
 8001b2e:	42a3      	cmp	r3, r4
 8001b30:	d8f8      	bhi.n	8001b24 <TicTacToe_DemoGame+0xf4>
 8001b32:	6dba      	ldr	r2, [r7, #88]	; 0x58
 8001b34:	f102 0316 	add.w	r3, r2, #22
 8001b38:	b29b      	uxth	r3, r3
 8001b3a:	ee0a 3a10 	vmov	s20, r3
 8001b3e:	f102 032b 	add.w	r3, r2, #43	; 0x2b
 8001b42:	b29b      	uxth	r3, r3
 8001b44:	ee0c 3a90 	vmov	s25, r3
 8001b48:	1c93      	adds	r3, r2, #2
 8001b4a:	b29b      	uxth	r3, r3
 8001b4c:	ee0a 3a90 	vmov	s21, r3
 8001b50:	f102 032a 	add.w	r3, r2, #42	; 0x2a
 8001b54:	b29b      	uxth	r3, r3
 8001b56:	ee0b 3a10 	vmov	s22, r3
 8001b5a:	4613      	mov	r3, r2
 8001b5c:	3337      	adds	r3, #55	; 0x37
 8001b5e:	b29b      	uxth	r3, r3
 8001b60:	ee0b 3a90 	vmov	s23, r3
 8001b64:	4613      	mov	r3, r2
 8001b66:	0852      	lsrs	r2, r2, #1
 8001b68:	633a      	str	r2, [r7, #48]	; 0x30
 8001b6a:	f10a 0274 	add.w	r2, sl, #116	; 0x74
 8001b6e:	2100      	movs	r1, #0
 8001b70:	ee09 2a10 	vmov	s18, r2
 8001b74:	f10a 0238 	add.w	r2, sl, #56	; 0x38
 8001b78:	ee09 2a90 	vmov	s19, r2
 8001b7c:	e9c7 1111 	strd	r1, r1, [r7, #68]	; 0x44
 8001b80:	f107 02e8 	add.w	r2, r7, #232	; 0xe8
 8001b84:	ee08 2a90 	vmov	s17, r2
 8001b88:	1c5a      	adds	r2, r3, #1
 8001b8a:	3315      	adds	r3, #21
 8001b8c:	65f9      	str	r1, [r7, #92]	; 0x5c
 8001b8e:	63f9      	str	r1, [r7, #60]	; 0x3c
 8001b90:	60ba      	str	r2, [r7, #8]
 8001b92:	607b      	str	r3, [r7, #4]
 8001b94:	f00a f854 	bl	800bc40 <PlayerDelAll>
 8001b98:	4981      	ldr	r1, [pc, #516]	; (8001da0 <TicTacToe_DemoGame+0x370>)
 8001b9a:	4658      	mov	r0, fp
 8001b9c:	f002 fd52 	bl	8004644 <LCD_Fill>
 8001ba0:	4880      	ldr	r0, [pc, #512]	; (8001da4 <TicTacToe_DemoGame+0x374>)
 8001ba2:	f04f 31ff 	mov.w	r1, #4294967295
 8001ba6:	f009 ffcb 	bl	800bb40 <PlayerAdd>
 8001baa:	f8bb 3006 	ldrh.w	r3, [fp, #6]
 8001bae:	f8bb 9004 	ldrh.w	r9, [fp, #4]
 8001bb2:	4599      	cmp	r9, r3
 8001bb4:	bf28      	it	cs
 8001bb6:	4699      	movcs	r9, r3
 8001bb8:	2300      	movs	r3, #0
 8001bba:	f507 78c6 	add.w	r8, r7, #396	; 0x18c
 8001bbe:	f8c7 30a0 	str.w	r3, [r7, #160]	; 0xa0
 8001bc2:	464e      	mov	r6, r9
 8001bc4:	f8d7 30a0 	ldr.w	r3, [r7, #160]	; 0xa0
 8001bc8:	2400      	movs	r4, #0
 8001bca:	f3c3 09cf 	ubfx	r9, r3, #3, #16
 8001bce:	f1a8 0508 	sub.w	r5, r8, #8
 8001bd2:	f8c7 40a4 	str.w	r4, [r7, #164]	; 0xa4
 8001bd6:	e00d      	b.n	8001bf4 <TicTacToe_DemoGame+0x1c4>
 8001bd8:	2408      	movs	r4, #8
 8001bda:	e9cd 6401 	strd	r6, r4, [sp, #4]
 8001bde:	f8cd c000 	str.w	ip, [sp]
 8001be2:	f7ff f8df 	bl	8000da4 <DrawSym.constprop.2>
 8001be6:	f8d7 30a4 	ldr.w	r3, [r7, #164]	; 0xa4
 8001bea:	4545      	cmp	r5, r8
 8001bec:	4433      	add	r3, r6
 8001bee:	f8c7 30a4 	str.w	r3, [r7, #164]	; 0xa4
 8001bf2:	d013      	beq.n	8001c1c <TicTacToe_DemoGame+0x1ec>
 8001bf4:	f815 1b01 	ldrb.w	r1, [r5], #1
 8001bf8:	f8d7 20a4 	ldr.w	r2, [r7, #164]	; 0xa4
 8001bfc:	2901      	cmp	r1, #1
 8001bfe:	f06f 4c7f 	mvn.w	ip, #4278190080	; 0xff000000
 8001c02:	464b      	mov	r3, r9
 8001c04:	4658      	mov	r0, fp
 8001c06:	f3c2 02cf 	ubfx	r2, r2, #3, #16
 8001c0a:	d1e5      	bne.n	8001bd8 <TicTacToe_DemoGame+0x1a8>
 8001c0c:	2308      	movs	r3, #8
 8001c0e:	e9cd 6301 	strd	r6, r3, [sp, #4]
 8001c12:	f44f 037f 	mov.w	r3, #16711680	; 0xff0000
 8001c16:	9300      	str	r3, [sp, #0]
 8001c18:	464b      	mov	r3, r9
 8001c1a:	e7e2      	b.n	8001be2 <TicTacToe_DemoGame+0x1b2>
 8001c1c:	f8d7 30a0 	ldr.w	r3, [r7, #160]	; 0xa0
 8001c20:	4433      	add	r3, r6
 8001c22:	f108 0808 	add.w	r8, r8, #8
 8001c26:	f8c7 30a0 	str.w	r3, [r7, #160]	; 0xa0
 8001c2a:	f507 73e6 	add.w	r3, r7, #460	; 0x1cc
 8001c2e:	4598      	cmp	r8, r3
 8001c30:	d1c8      	bne.n	8001bc4 <TicTacToe_DemoGame+0x194>
 8001c32:	f507 708e 	add.w	r0, r7, #284	; 0x11c
 8001c36:	f7fe fe9e 	bl	8000976 <strlen>
 8001c3a:	4a5b      	ldr	r2, [pc, #364]	; (8001da8 <TicTacToe_DemoGame+0x378>)
 8001c3c:	6dbc      	ldr	r4, [r7, #88]	; 0x58
 8001c3e:	7813      	ldrb	r3, [r2, #0]
 8001c40:	4d57      	ldr	r5, [pc, #348]	; (8001da0 <TicTacToe_DemoGame+0x370>)
 8001c42:	9502      	str	r5, [sp, #8]
 8001c44:	fb00 4013 	mls	r0, r0, r3, r4
 8001c48:	2600      	movs	r6, #0
 8001c4a:	f44f 037f 	mov.w	r3, #16711680	; 0xff0000
 8001c4e:	f3c0 014f 	ubfx	r1, r0, #1, #16
 8001c52:	9200      	str	r2, [sp, #0]
 8001c54:	9301      	str	r3, [sp, #4]
 8001c56:	ee1a 2a10 	vmov	r2, s20
 8001c5a:	f507 738e 	add.w	r3, r7, #284	; 0x11c
 8001c5e:	4658      	mov	r0, fp
 8001c60:	9603      	str	r6, [sp, #12]
 8001c62:	f002 fe8f 	bl	8004984 <LCD_WriteString>
 8001c66:	f507 7084 	add.w	r0, r7, #264	; 0x108
 8001c6a:	f7fe fe84 	bl	8000976 <strlen>
 8001c6e:	4a4f      	ldr	r2, [pc, #316]	; (8001dac <TicTacToe_DemoGame+0x37c>)
 8001c70:	7813      	ldrb	r3, [r2, #0]
 8001c72:	9200      	str	r2, [sp, #0]
 8001c74:	fb00 4013 	mls	r0, r0, r3, r4
 8001c78:	23ff      	movs	r3, #255	; 0xff
 8001c7a:	f3c0 014f 	ubfx	r1, r0, #1, #16
 8001c7e:	e9cd 5602 	strd	r5, r6, [sp, #8]
 8001c82:	ee1c 2a90 	vmov	r2, s25
 8001c86:	9301      	str	r3, [sp, #4]
 8001c88:	4658      	mov	r0, fp
 8001c8a:	f507 7384 	add.w	r3, r7, #264	; 0x108
 8001c8e:	f002 fe79 	bl	8004984 <LCD_WriteString>
 8001c92:	f241 3088 	movw	r0, #5000	; 0x1388
 8001c96:	f003 f9db 	bl	8005050 <LL_mDelay>
 8001c9a:	f8bb 4006 	ldrh.w	r4, [fp, #6]
 8001c9e:	f8bb 3004 	ldrh.w	r3, [fp, #4]
 8001ca2:	429c      	cmp	r4, r3
 8001ca4:	bf28      	it	cs
 8001ca6:	461c      	movcs	r4, r3
 8001ca8:	eb04 0344 	add.w	r3, r4, r4, lsl #1
 8001cac:	08db      	lsrs	r3, r3, #3
 8001cae:	f207 189b 	addw	r8, r7, #411	; 0x19b
 8001cb2:	f207 15a3 	addw	r5, r7, #419	; 0x1a3
 8001cb6:	f04f 0908 	mov.w	r9, #8
 8001cba:	f818 1f01 	ldrb.w	r1, [r8, #1]!
 8001cbe:	f3c6 02cf 	ubfx	r2, r6, #3, #16
 8001cc2:	e9cd 4900 	strd	r4, r9, [sp]
 8001cc6:	4658      	mov	r0, fp
 8001cc8:	f8c7 30a4 	str.w	r3, [r7, #164]	; 0xa4
 8001ccc:	f7ff f9c6 	bl	800105c <DrawSym.constprop.3>
 8001cd0:	45a8      	cmp	r8, r5
 8001cd2:	f8d7 30a4 	ldr.w	r3, [r7, #164]	; 0xa4
 8001cd6:	4426      	add	r6, r4
 8001cd8:	d1ef      	bne.n	8001cba <TicTacToe_DemoGame+0x28a>
 8001cda:	f8bb 4006 	ldrh.w	r4, [fp, #6]
 8001cde:	f8bb 3004 	ldrh.w	r3, [fp, #4]
 8001ce2:	429c      	cmp	r4, r3
 8001ce4:	bf28      	it	cs
 8001ce6:	461c      	movcs	r4, r3
 8001ce8:	0863      	lsrs	r3, r4, #1
 8001cea:	f207 18a3 	addw	r8, r7, #419	; 0x1a3
 8001cee:	f207 16ab 	addw	r6, r7, #427	; 0x1ab
 8001cf2:	2500      	movs	r5, #0
 8001cf4:	f04f 0908 	mov.w	r9, #8
 8001cf8:	f818 1f01 	ldrb.w	r1, [r8, #1]!
 8001cfc:	f3c5 02cf 	ubfx	r2, r5, #3, #16
 8001d00:	e9cd 4900 	strd	r4, r9, [sp]
 8001d04:	4658      	mov	r0, fp
 8001d06:	f8c7 30a4 	str.w	r3, [r7, #164]	; 0xa4
 8001d0a:	f7ff f9a7 	bl	800105c <DrawSym.constprop.3>
 8001d0e:	45b0      	cmp	r8, r6
 8001d10:	f8d7 30a4 	ldr.w	r3, [r7, #164]	; 0xa4
 8001d14:	4425      	add	r5, r4
 8001d16:	d1ef      	bne.n	8001cf8 <TicTacToe_DemoGame+0x2c8>
 8001d18:	f44f 60fa 	mov.w	r0, #2000	; 0x7d0
 8001d1c:	4d24      	ldr	r5, [pc, #144]	; (8001db0 <TicTacToe_DemoGame+0x380>)
 8001d1e:	f003 f997 	bl	8005050 <LL_mDelay>
 8001d22:	2300      	movs	r3, #0
 8001d24:	f8c7 30a0 	str.w	r3, [r7, #160]	; 0xa0
 8001d28:	cd0f      	ldmia	r5!, {r0, r1, r2, r3}
 8001d2a:	f507 74e2 	add.w	r4, r7, #452	; 0x1c4
 8001d2e:	c40f      	stmia	r4!, {r0, r1, r2, r3}
 8001d30:	cd0f      	ldmia	r5!, {r0, r1, r2, r3}
 8001d32:	c40f      	stmia	r4!, {r0, r1, r2, r3}
 8001d34:	cd0f      	ldmia	r5!, {r0, r1, r2, r3}
 8001d36:	c40f      	stmia	r4!, {r0, r1, r2, r3}
 8001d38:	e895 000f 	ldmia.w	r5, {r0, r1, r2, r3}
 8001d3c:	e884 000f 	stmia.w	r4, {r0, r1, r2, r3}
 8001d40:	692b      	ldr	r3, [r5, #16]
 8001d42:	f8a7 30b0 	strh.w	r3, [r7, #176]	; 0xb0
 8001d46:	0c1b      	lsrs	r3, r3, #16
 8001d48:	f8bb 9004 	ldrh.w	r9, [fp, #4]
 8001d4c:	f887 30b2 	strb.w	r3, [r7, #178]	; 0xb2
 8001d50:	f8bb 3006 	ldrh.w	r3, [fp, #6]
 8001d54:	4599      	cmp	r9, r3
 8001d56:	bf28      	it	cs
 8001d58:	4699      	movcs	r9, r3
 8001d5a:	f507 78e6 	add.w	r8, r7, #460	; 0x1cc
 8001d5e:	464e      	mov	r6, r9
 8001d60:	f8d7 30a0 	ldr.w	r3, [r7, #160]	; 0xa0
 8001d64:	2400      	movs	r4, #0
 8001d66:	f3c3 09cf 	ubfx	r9, r3, #3, #16
 8001d6a:	f1a8 0508 	sub.w	r5, r8, #8
 8001d6e:	f8c7 40a4 	str.w	r4, [r7, #164]	; 0xa4
 8001d72:	e02d      	b.n	8001dd0 <TicTacToe_DemoGame+0x3a0>
 8001d74:	0800e320 	.word	0x0800e320
 8001d78:	0800e4dc 	.word	0x0800e4dc
 8001d7c:	0800e4f8 	.word	0x0800e4f8
 8001d80:	0800e500 	.word	0x0800e500
 8001d84:	0800e518 	.word	0x0800e518
 8001d88:	0800e520 	.word	0x0800e520
 8001d8c:	0800e528 	.word	0x0800e528
 8001d90:	0800e534 	.word	0x0800e534
 8001d94:	0800e544 	.word	0x0800e544
 8001d98:	0800e554 	.word	0x0800e554
 8001d9c:	20000190 	.word	0x20000190
 8001da0:	00ffff00 	.word	0x00ffff00
 8001da4:	200000e0 	.word	0x200000e0
 8001da8:	20000004 	.word	0x20000004
 8001dac:	20000010 	.word	0x20000010
 8001db0:	0800e360 	.word	0x0800e360
 8001db4:	2408      	movs	r4, #8
 8001db6:	e9cd 6401 	strd	r6, r4, [sp, #4]
 8001dba:	f8cd c000 	str.w	ip, [sp]
 8001dbe:	f7fe fff1 	bl	8000da4 <DrawSym.constprop.2>
 8001dc2:	f8d7 30a4 	ldr.w	r3, [r7, #164]	; 0xa4
 8001dc6:	4545      	cmp	r5, r8
 8001dc8:	4433      	add	r3, r6
 8001dca:	f8c7 30a4 	str.w	r3, [r7, #164]	; 0xa4
 8001dce:	d013      	beq.n	8001df8 <TicTacToe_DemoGame+0x3c8>
 8001dd0:	f815 1b01 	ldrb.w	r1, [r5], #1
 8001dd4:	f8d7 20a4 	ldr.w	r2, [r7, #164]	; 0xa4
 8001dd8:	2901      	cmp	r1, #1
 8001dda:	f06f 4c7f 	mvn.w	ip, #4278190080	; 0xff000000
 8001dde:	464b      	mov	r3, r9
 8001de0:	4658      	mov	r0, fp
 8001de2:	f3c2 02cf 	ubfx	r2, r2, #3, #16
 8001de6:	d1e5      	bne.n	8001db4 <TicTacToe_DemoGame+0x384>
 8001de8:	2308      	movs	r3, #8
 8001dea:	e9cd 6301 	strd	r6, r3, [sp, #4]
 8001dee:	f44f 037f 	mov.w	r3, #16711680	; 0xff0000
 8001df2:	9300      	str	r3, [sp, #0]
 8001df4:	464b      	mov	r3, r9
 8001df6:	e7e2      	b.n	8001dbe <TicTacToe_DemoGame+0x38e>
 8001df8:	f8d7 30a0 	ldr.w	r3, [r7, #160]	; 0xa0
 8001dfc:	4433      	add	r3, r6
 8001dfe:	f108 0808 	add.w	r8, r8, #8
 8001e02:	f8c7 30a0 	str.w	r3, [r7, #160]	; 0xa0
 8001e06:	f507 7303 	add.w	r3, r7, #524	; 0x20c
 8001e0a:	4598      	cmp	r8, r3
 8001e0c:	d1a8      	bne.n	8001d60 <TicTacToe_DemoGame+0x330>
 8001e0e:	f107 03b0 	add.w	r3, r7, #176	; 0xb0
 8001e12:	f8c7 30a4 	str.w	r3, [r7, #164]	; 0xa4
 8001e16:	f04f 0908 	mov.w	r9, #8
 8001e1a:	f8bb 4006 	ldrh.w	r4, [fp, #6]
 8001e1e:	f8bb 3004 	ldrh.w	r3, [fp, #4]
 8001e22:	429c      	cmp	r4, r3
 8001e24:	bf28      	it	cs
 8001e26:	461c      	movcs	r4, r3
 8001e28:	f8d7 30a4 	ldr.w	r3, [r7, #164]	; 0xa4
 8001e2c:	f813 5b01 	ldrb.w	r5, [r3], #1
 8001e30:	f8c7 30a4 	str.w	r3, [r7, #164]	; 0xa4
 8001e34:	f507 72e2 	add.w	r2, r7, #452	; 0x1c4
 8001e38:	fb04 f305 	mul.w	r3, r4, r5
 8001e3c:	fb05 2609 	mla	r6, r5, r9, r2
 8001e40:	f507 72e6 	add.w	r2, r7, #460	; 0x1cc
 8001e44:	f04f 0800 	mov.w	r8, #0
 8001e48:	f3c3 03cf 	ubfx	r3, r3, #3, #16
 8001e4c:	fb19 2505 	smlabb	r5, r9, r5, r2
 8001e50:	f816 1b01 	ldrb.w	r1, [r6], #1
 8001e54:	f3c8 02cf 	ubfx	r2, r8, #3, #16
 8001e58:	e9cd 4900 	strd	r4, r9, [sp]
 8001e5c:	4658      	mov	r0, fp
 8001e5e:	f8c7 30a0 	str.w	r3, [r7, #160]	; 0xa0
 8001e62:	f7ff f8fb 	bl	800105c <DrawSym.constprop.3>
 8001e66:	42b5      	cmp	r5, r6
 8001e68:	f8d7 30a0 	ldr.w	r3, [r7, #160]	; 0xa0
 8001e6c:	44a0      	add	r8, r4
 8001e6e:	d1ef      	bne.n	8001e50 <TicTacToe_DemoGame+0x420>
 8001e70:	f8d7 30a4 	ldr.w	r3, [r7, #164]	; 0xa4
 8001e74:	f107 02b3 	add.w	r2, r7, #179	; 0xb3
 8001e78:	429a      	cmp	r2, r3
 8001e7a:	d1ce      	bne.n	8001e1a <TicTacToe_DemoGame+0x3ea>
 8001e7c:	f8bb 5006 	ldrh.w	r5, [fp, #6]
 8001e80:	f8bb 3004 	ldrh.w	r3, [fp, #4]
 8001e84:	429d      	cmp	r5, r3
 8001e86:	bf28      	it	cs
 8001e88:	461d      	movcs	r5, r3
 8001e8a:	ea4f 08e5 	mov.w	r8, r5, asr #3
 8001e8e:	f242 7410 	movw	r4, #10000	; 0x2710
 8001e92:	4aa6      	ldr	r2, [pc, #664]	; (800212c <TicTacToe_DemoGame+0x6fc>)
 8001e94:	f89a 3029 	ldrb.w	r3, [sl, #41]	; 0x29
 8001e98:	6811      	ldr	r1, [r2, #0]
 8001e9a:	b9d3      	cbnz	r3, 8001ed2 <TicTacToe_DemoGame+0x4a2>
 8001e9c:	bf00      	nop
 8001e9e:	f89a 3029 	ldrb.w	r3, [sl, #41]	; 0x29
 8001ea2:	b9b3      	cbnz	r3, 8001ed2 <TicTacToe_DemoGame+0x4a2>
 8001ea4:	2501      	movs	r5, #1
 8001ea6:	4ba1      	ldr	r3, [pc, #644]	; (800212c <TicTacToe_DemoGame+0x6fc>)
 8001ea8:	681e      	ldr	r6, [r3, #0]
 8001eaa:	fb04 f305 	mul.w	r3, r4, r5
 8001eae:	1a72      	subs	r2, r6, r1
 8001eb0:	429a      	cmp	r2, r3
 8001eb2:	d309      	bcc.n	8001ec8 <TicTacToe_DemoGame+0x498>
 8001eb4:	3501      	adds	r5, #1
 8001eb6:	2d0d      	cmp	r5, #13
 8001eb8:	f04f 0100 	mov.w	r1, #0
 8001ebc:	489c      	ldr	r0, [pc, #624]	; (8002130 <TicTacToe_DemoGame+0x700>)
 8001ebe:	bf28      	it	cs
 8001ec0:	2501      	movcs	r5, #1
 8001ec2:	f009 fe3d 	bl	800bb40 <PlayerAdd>
 8001ec6:	4631      	mov	r1, r6
 8001ec8:	bf00      	nop
 8001eca:	f89a 3029 	ldrb.w	r3, [sl, #41]	; 0x29
 8001ece:	2b00      	cmp	r3, #0
 8001ed0:	d0e9      	beq.n	8001ea6 <TicTacToe_DemoGame+0x476>
 8001ed2:	f89a 3028 	ldrb.w	r3, [sl, #40]	; 0x28
 8001ed6:	b15b      	cbz	r3, 8001ef0 <TicTacToe_DemoGame+0x4c0>
 8001ed8:	bf00      	nop
 8001eda:	f89a 3029 	ldrb.w	r3, [sl, #41]	; 0x29
 8001ede:	2b00      	cmp	r3, #0
 8001ee0:	d1f7      	bne.n	8001ed2 <TicTacToe_DemoGame+0x4a2>
 8001ee2:	f8da 3020 	ldr.w	r3, [sl, #32]
 8001ee6:	2b03      	cmp	r3, #3
 8001ee8:	d80e      	bhi.n	8001f08 <TicTacToe_DemoGame+0x4d8>
 8001eea:	4b90      	ldr	r3, [pc, #576]	; (800212c <TicTacToe_DemoGame+0x6fc>)
 8001eec:	6819      	ldr	r1, [r3, #0]
 8001eee:	e7d5      	b.n	8001e9c <TicTacToe_DemoGame+0x46c>
 8001ef0:	4650      	mov	r0, sl
 8001ef2:	f00a ff53 	bl	800cd9c <XPT2046_GetTouch>
 8001ef6:	bf00      	nop
 8001ef8:	f89a 3029 	ldrb.w	r3, [sl, #41]	; 0x29
 8001efc:	2b00      	cmp	r3, #0
 8001efe:	d1e8      	bne.n	8001ed2 <TicTacToe_DemoGame+0x4a2>
 8001f00:	f8da 3020 	ldr.w	r3, [sl, #32]
 8001f04:	2b03      	cmp	r3, #3
 8001f06:	d9f0      	bls.n	8001eea <TicTacToe_DemoGame+0x4ba>
 8001f08:	ee19 2a90 	vmov	r2, s19
 8001f0c:	ee19 1a10 	vmov	r1, s18
 8001f10:	f107 00d4 	add.w	r0, r7, #212	; 0xd4
 8001f14:	f00a fed6 	bl	800ccc4 <XPT2046_ConvertPoint>
 8001f18:	f8d7 30d8 	ldr.w	r3, [r7, #216]	; 0xd8
 8001f1c:	fb93 f3f8 	sdiv	r3, r3, r8
 8001f20:	1e9a      	subs	r2, r3, #2
 8001f22:	2a04      	cmp	r2, #4
 8001f24:	d8b5      	bhi.n	8001e92 <TicTacToe_DemoGame+0x462>
 8001f26:	2100      	movs	r1, #0
 8001f28:	4882      	ldr	r0, [pc, #520]	; (8002134 <TicTacToe_DemoGame+0x704>)
 8001f2a:	64fb      	str	r3, [r7, #76]	; 0x4c
 8001f2c:	461d      	mov	r5, r3
 8001f2e:	f009 fe07 	bl	800bb40 <PlayerAdd>
 8001f32:	f8bb 4006 	ldrh.w	r4, [fp, #6]
 8001f36:	f8bb 3004 	ldrh.w	r3, [fp, #4]
 8001f3a:	429c      	cmp	r4, r3
 8001f3c:	f507 71e2 	add.w	r1, r7, #452	; 0x1c4
 8001f40:	bf28      	it	cs
 8001f42:	461c      	movcs	r4, r3
 8001f44:	fb04 f305 	mul.w	r3, r4, r5
 8001f48:	eb01 06c5 	add.w	r6, r1, r5, lsl #3
 8001f4c:	f507 71e6 	add.w	r1, r7, #460	; 0x1cc
 8001f50:	eb01 08c5 	add.w	r8, r1, r5, lsl #3
 8001f54:	f3c3 03cf 	ubfx	r3, r3, #3, #16
 8001f58:	2500      	movs	r5, #0
 8001f5a:	f04f 0908 	mov.w	r9, #8
 8001f5e:	f816 1b01 	ldrb.w	r1, [r6], #1
 8001f62:	f3c5 02cf 	ubfx	r2, r5, #3, #16
 8001f66:	e9cd 4900 	strd	r4, r9, [sp]
 8001f6a:	4658      	mov	r0, fp
 8001f6c:	f8c7 30a4 	str.w	r3, [r7, #164]	; 0xa4
 8001f70:	f7ff f874 	bl	800105c <DrawSym.constprop.3>
 8001f74:	45b0      	cmp	r8, r6
 8001f76:	f8d7 30a4 	ldr.w	r3, [r7, #164]	; 0xa4
 8001f7a:	4425      	add	r5, r4
 8001f7c:	d1ef      	bne.n	8001f5e <TicTacToe_DemoGame+0x52e>
 8001f7e:	f44f 70fa 	mov.w	r0, #500	; 0x1f4
 8001f82:	f003 f865 	bl	8005050 <LL_mDelay>
 8001f86:	2251      	movs	r2, #81	; 0x51
 8001f88:	496b      	ldr	r1, [pc, #428]	; (8002138 <TicTacToe_DemoGame+0x708>)
 8001f8a:	f507 70e2 	add.w	r0, r7, #452	; 0x1c4
 8001f8e:	f00b f8ef 	bl	800d170 <memcpy>
 8001f92:	4b6a      	ldr	r3, [pc, #424]	; (800213c <TicTacToe_DemoGame+0x70c>)
 8001f94:	f8bb 2004 	ldrh.w	r2, [fp, #4]
 8001f98:	681b      	ldr	r3, [r3, #0]
 8001f9a:	f8a7 30b0 	strh.w	r3, [r7, #176]	; 0xb0
 8001f9e:	0c1b      	lsrs	r3, r3, #16
 8001fa0:	f887 30b2 	strb.w	r3, [r7, #178]	; 0xb2
 8001fa4:	f8bb 3006 	ldrh.w	r3, [fp, #6]
 8001fa8:	4293      	cmp	r3, r2
 8001faa:	bf28      	it	cs
 8001fac:	4613      	movcs	r3, r2
 8001fae:	4698      	mov	r8, r3
 8001fb0:	6cfb      	ldr	r3, [r7, #76]	; 0x4c
 8001fb2:	3301      	adds	r3, #1
 8001fb4:	653b      	str	r3, [r7, #80]	; 0x50
 8001fb6:	b2db      	uxtb	r3, r3
 8001fb8:	63bb      	str	r3, [r7, #56]	; 0x38
 8001fba:	2300      	movs	r3, #0
 8001fbc:	f507 79e6 	add.w	r9, r7, #460	; 0x1cc
 8001fc0:	f8c7 30a4 	str.w	r3, [r7, #164]	; 0xa4
 8001fc4:	f8d7 30a4 	ldr.w	r3, [r7, #164]	; 0xa4
 8001fc8:	4a5d      	ldr	r2, [pc, #372]	; (8002140 <TicTacToe_DemoGame+0x710>)
 8001fca:	fba2 3603 	umull	r3, r6, r2, r3
 8001fce:	f3c6 064f 	ubfx	r6, r6, #1, #16
 8001fd2:	f1a9 0509 	sub.w	r5, r9, #9
 8001fd6:	2400      	movs	r4, #0
 8001fd8:	e00a      	b.n	8001ff0 <TicTacToe_DemoGame+0x5c0>
 8001fda:	2009      	movs	r0, #9
 8001fdc:	e9cd 8001 	strd	r8, r0, [sp, #4]
 8001fe0:	f8cd c000 	str.w	ip, [sp]
 8001fe4:	4658      	mov	r0, fp
 8001fe6:	f7fe fedd 	bl	8000da4 <DrawSym.constprop.2>
 8001fea:	45a9      	cmp	r9, r5
 8001fec:	4444      	add	r4, r8
 8001fee:	d018      	beq.n	8002022 <TicTacToe_DemoGame+0x5f2>
 8001ff0:	4b53      	ldr	r3, [pc, #332]	; (8002140 <TicTacToe_DemoGame+0x710>)
 8001ff2:	f815 1f01 	ldrb.w	r1, [r5, #1]!
 8001ff6:	fba3 3204 	umull	r3, r2, r3, r4
 8001ffa:	2901      	cmp	r1, #1
 8001ffc:	f06f 4c7f 	mvn.w	ip, #4278190080	; 0xff000000
 8002000:	4633      	mov	r3, r6
 8002002:	f3c2 024f 	ubfx	r2, r2, #1, #16
 8002006:	d1e8      	bne.n	8001fda <TicTacToe_DemoGame+0x5aa>
 8002008:	2309      	movs	r3, #9
 800200a:	e9cd 8301 	strd	r8, r3, [sp, #4]
 800200e:	f44f 037f 	mov.w	r3, #16711680	; 0xff0000
 8002012:	9300      	str	r3, [sp, #0]
 8002014:	4658      	mov	r0, fp
 8002016:	4633      	mov	r3, r6
 8002018:	f7fe fec4 	bl	8000da4 <DrawSym.constprop.2>
 800201c:	45a9      	cmp	r9, r5
 800201e:	4444      	add	r4, r8
 8002020:	d1e6      	bne.n	8001ff0 <TicTacToe_DemoGame+0x5c0>
 8002022:	f8d7 30a4 	ldr.w	r3, [r7, #164]	; 0xa4
 8002026:	4443      	add	r3, r8
 8002028:	f109 0909 	add.w	r9, r9, #9
 800202c:	f8c7 30a4 	str.w	r3, [r7, #164]	; 0xa4
 8002030:	f207 231d 	addw	r3, r7, #541	; 0x21d
 8002034:	4599      	cmp	r9, r3
 8002036:	d1c5      	bne.n	8001fc4 <TicTacToe_DemoGame+0x594>
 8002038:	f107 03b0 	add.w	r3, r7, #176	; 0xb0
 800203c:	f8c7 30a4 	str.w	r3, [r7, #164]	; 0xa4
 8002040:	f04f 0909 	mov.w	r9, #9
 8002044:	f8bb 5006 	ldrh.w	r5, [fp, #6]
 8002048:	f8bb 3004 	ldrh.w	r3, [fp, #4]
 800204c:	4a3c      	ldr	r2, [pc, #240]	; (8002140 <TicTacToe_DemoGame+0x710>)
 800204e:	429d      	cmp	r5, r3
 8002050:	bf28      	it	cs
 8002052:	461d      	movcs	r5, r3
 8002054:	f8d7 30a4 	ldr.w	r3, [r7, #164]	; 0xa4
 8002058:	f813 6b01 	ldrb.w	r6, [r3], #1
 800205c:	f8c7 30a4 	str.w	r3, [r7, #164]	; 0xa4
 8002060:	fb05 f306 	mul.w	r3, r5, r6
 8002064:	fba2 2303 	umull	r2, r3, r2, r3
 8002068:	f04f 32ff 	mov.w	r2, #4294967295
 800206c:	fb19 2406 	smlabb	r4, r9, r6, r2
 8002070:	f507 72e2 	add.w	r2, r7, #452	; 0x1c4
 8002074:	4414      	add	r4, r2
 8002076:	f507 72e6 	add.w	r2, r7, #460	; 0x1cc
 800207a:	f04f 0800 	mov.w	r8, #0
 800207e:	f3c3 034f 	ubfx	r3, r3, #1, #16
 8002082:	fb19 2606 	smlabb	r6, r9, r6, r2
 8002086:	4a2e      	ldr	r2, [pc, #184]	; (8002140 <TicTacToe_DemoGame+0x710>)
 8002088:	f814 1f01 	ldrb.w	r1, [r4, #1]!
 800208c:	fba2 0208 	umull	r0, r2, r2, r8
 8002090:	e9cd 5900 	strd	r5, r9, [sp]
 8002094:	f3c2 024f 	ubfx	r2, r2, #1, #16
 8002098:	f8c7 30a0 	str.w	r3, [r7, #160]	; 0xa0
 800209c:	4658      	mov	r0, fp
 800209e:	f7fe ffdd 	bl	800105c <DrawSym.constprop.3>
 80020a2:	42a6      	cmp	r6, r4
 80020a4:	f8d7 30a0 	ldr.w	r3, [r7, #160]	; 0xa0
 80020a8:	44a8      	add	r8, r5
 80020aa:	d1ec      	bne.n	8002086 <TicTacToe_DemoGame+0x656>
 80020ac:	f8d7 30a4 	ldr.w	r3, [r7, #164]	; 0xa4
 80020b0:	f107 02b3 	add.w	r2, r7, #179	; 0xb3
 80020b4:	429a      	cmp	r2, r3
 80020b6:	d1c5      	bne.n	8002044 <TicTacToe_DemoGame+0x614>
 80020b8:	f8bb 5006 	ldrh.w	r5, [fp, #6]
 80020bc:	f8bb 3004 	ldrh.w	r3, [fp, #4]
 80020c0:	429d      	cmp	r5, r3
 80020c2:	bf28      	it	cs
 80020c4:	461d      	movcs	r5, r3
 80020c6:	ea4f 09e5 	mov.w	r9, r5, asr #3
 80020ca:	f242 7410 	movw	r4, #10000	; 0x2710
 80020ce:	4a17      	ldr	r2, [pc, #92]	; (800212c <TicTacToe_DemoGame+0x6fc>)
 80020d0:	f89a 3029 	ldrb.w	r3, [sl, #41]	; 0x29
 80020d4:	6811      	ldr	r1, [r2, #0]
 80020d6:	b9d3      	cbnz	r3, 800210e <TicTacToe_DemoGame+0x6de>
 80020d8:	bf00      	nop
 80020da:	f89a 3029 	ldrb.w	r3, [sl, #41]	; 0x29
 80020de:	b9b3      	cbnz	r3, 800210e <TicTacToe_DemoGame+0x6de>
 80020e0:	2501      	movs	r5, #1
 80020e2:	4b12      	ldr	r3, [pc, #72]	; (800212c <TicTacToe_DemoGame+0x6fc>)
 80020e4:	681e      	ldr	r6, [r3, #0]
 80020e6:	fb04 f305 	mul.w	r3, r4, r5
 80020ea:	1a72      	subs	r2, r6, r1
 80020ec:	429a      	cmp	r2, r3
 80020ee:	d309      	bcc.n	8002104 <TicTacToe_DemoGame+0x6d4>
 80020f0:	3501      	adds	r5, #1
 80020f2:	2d0d      	cmp	r5, #13
 80020f4:	f04f 0100 	mov.w	r1, #0
 80020f8:	480d      	ldr	r0, [pc, #52]	; (8002130 <TicTacToe_DemoGame+0x700>)
 80020fa:	bf28      	it	cs
 80020fc:	2501      	movcs	r5, #1
 80020fe:	f009 fd1f 	bl	800bb40 <PlayerAdd>
 8002102:	4631      	mov	r1, r6
 8002104:	bf00      	nop
 8002106:	f89a 3029 	ldrb.w	r3, [sl, #41]	; 0x29
 800210a:	2b00      	cmp	r3, #0
 800210c:	d0e9      	beq.n	80020e2 <TicTacToe_DemoGame+0x6b2>
 800210e:	f89a 3028 	ldrb.w	r3, [sl, #40]	; 0x28
 8002112:	b1bb      	cbz	r3, 8002144 <TicTacToe_DemoGame+0x714>
 8002114:	bf00      	nop
 8002116:	f89a 3029 	ldrb.w	r3, [sl, #41]	; 0x29
 800211a:	2b00      	cmp	r3, #0
 800211c:	d1f7      	bne.n	800210e <TicTacToe_DemoGame+0x6de>
 800211e:	f8da 3020 	ldr.w	r3, [sl, #32]
 8002122:	2b03      	cmp	r3, #3
 8002124:	d81a      	bhi.n	800215c <TicTacToe_DemoGame+0x72c>
 8002126:	4b01      	ldr	r3, [pc, #4]	; (800212c <TicTacToe_DemoGame+0x6fc>)
 8002128:	6819      	ldr	r1, [r3, #0]
 800212a:	e7d5      	b.n	80020d8 <TicTacToe_DemoGame+0x6a8>
 800212c:	20000190 	.word	0x20000190
 8002130:	20000104 	.word	0x20000104
 8002134:	200000f8 	.word	0x200000f8
 8002138:	0800e3a4 	.word	0x0800e3a4
 800213c:	0800e3f8 	.word	0x0800e3f8
 8002140:	38e38e39 	.word	0x38e38e39
 8002144:	4650      	mov	r0, sl
 8002146:	f00a fe29 	bl	800cd9c <XPT2046_GetTouch>
 800214a:	bf00      	nop
 800214c:	f89a 3029 	ldrb.w	r3, [sl, #41]	; 0x29
 8002150:	2b00      	cmp	r3, #0
 8002152:	d1dc      	bne.n	800210e <TicTacToe_DemoGame+0x6de>
 8002154:	f8da 3020 	ldr.w	r3, [sl, #32]
 8002158:	2b03      	cmp	r3, #3
 800215a:	d9e4      	bls.n	8002126 <TicTacToe_DemoGame+0x6f6>
 800215c:	ee19 2a90 	vmov	r2, s19
 8002160:	ee19 1a10 	vmov	r1, s18
 8002164:	f107 00d4 	add.w	r0, r7, #212	; 0xd4
 8002168:	f00a fdac 	bl	800ccc4 <XPT2046_ConvertPoint>
 800216c:	f8d7 30d8 	ldr.w	r3, [r7, #216]	; 0xd8
 8002170:	fb93 f6f9 	sdiv	r6, r3, r9
 8002174:	f1a6 0803 	sub.w	r8, r6, #3
 8002178:	f1b8 0f02 	cmp.w	r8, #2
 800217c:	d8a7      	bhi.n	80020ce <TicTacToe_DemoGame+0x69e>
 800217e:	4896      	ldr	r0, [pc, #600]	; (80023d8 <TicTacToe_DemoGame+0x9a8>)
 8002180:	2100      	movs	r1, #0
 8002182:	f009 fcdd 	bl	800bb40 <PlayerAdd>
 8002186:	f8bb 3006 	ldrh.w	r3, [fp, #6]
 800218a:	f8bb 5004 	ldrh.w	r5, [fp, #4]
 800218e:	4a93      	ldr	r2, [pc, #588]	; (80023dc <TicTacToe_DemoGame+0x9ac>)
 8002190:	429d      	cmp	r5, r3
 8002192:	bf28      	it	cs
 8002194:	461d      	movcs	r5, r3
 8002196:	eb06 09c6 	add.w	r9, r6, r6, lsl #3
 800219a:	fb05 f306 	mul.w	r3, r5, r6
 800219e:	fba2 2303 	umull	r2, r3, r2, r3
 80021a2:	f109 36ff 	add.w	r6, r9, #4294967295
 80021a6:	f507 72e2 	add.w	r2, r7, #452	; 0x1c4
 80021aa:	4416      	add	r6, r2
 80021ac:	f507 72e6 	add.w	r2, r7, #460	; 0x1cc
 80021b0:	f3c3 034f 	ubfx	r3, r3, #1, #16
 80021b4:	4491      	add	r9, r2
 80021b6:	2400      	movs	r4, #0
 80021b8:	2209      	movs	r2, #9
 80021ba:	f816 1f01 	ldrb.w	r1, [r6, #1]!
 80021be:	e9cd 5200 	strd	r5, r2, [sp]
 80021c2:	4a86      	ldr	r2, [pc, #536]	; (80023dc <TicTacToe_DemoGame+0x9ac>)
 80021c4:	f8c7 30a4 	str.w	r3, [r7, #164]	; 0xa4
 80021c8:	fba2 0204 	umull	r0, r2, r2, r4
 80021cc:	f3c2 024f 	ubfx	r2, r2, #1, #16
 80021d0:	4658      	mov	r0, fp
 80021d2:	f7fe ff43 	bl	800105c <DrawSym.constprop.3>
 80021d6:	454e      	cmp	r6, r9
 80021d8:	f8d7 30a4 	ldr.w	r3, [r7, #164]	; 0xa4
 80021dc:	442c      	add	r4, r5
 80021de:	d1eb      	bne.n	80021b8 <TicTacToe_DemoGame+0x788>
 80021e0:	f44f 70fa 	mov.w	r0, #500	; 0x1f4
 80021e4:	f002 ff34 	bl	8005050 <LL_mDelay>
 80021e8:	f1b8 0f00 	cmp.w	r8, #0
 80021ec:	f001 8230 	beq.w	8003650 <TicTacToe_DemoGame+0x1c20>
 80021f0:	f1b8 0f01 	cmp.w	r8, #1
 80021f4:	6d3b      	ldr	r3, [r7, #80]	; 0x50
 80021f6:	f001 8224 	beq.w	8003642 <TicTacToe_DemoGame+0x1c12>
 80021fa:	2b03      	cmp	r3, #3
 80021fc:	bf0c      	ite	eq
 80021fe:	2305      	moveq	r3, #5
 8002200:	2303      	movne	r3, #3
 8002202:	62bb      	str	r3, [r7, #40]	; 0x28
 8002204:	6dfb      	ldr	r3, [r7, #92]	; 0x5c
 8002206:	b113      	cbz	r3, 800220e <TicTacToe_DemoGame+0x7de>
 8002208:	4618      	mov	r0, r3
 800220a:	f00a ffa9 	bl	800d160 <free>
 800220e:	6d3c      	ldr	r4, [r7, #80]	; 0x50
 8002210:	fb04 f104 	mul.w	r1, r4, r4
 8002214:	4608      	mov	r0, r1
 8002216:	460d      	mov	r5, r1
 8002218:	6439      	str	r1, [r7, #64]	; 0x40
 800221a:	f00a ff99 	bl	800d150 <malloc>
 800221e:	1e6b      	subs	r3, r5, #1
 8002220:	18c3      	adds	r3, r0, r3
 8002222:	617b      	str	r3, [r7, #20]
 8002224:	08ab      	lsrs	r3, r5, #2
 8002226:	60fb      	str	r3, [r7, #12]
 8002228:	f025 0303 	bic.w	r3, r5, #3
 800222c:	61bb      	str	r3, [r7, #24]
 800222e:	6cfb      	ldr	r3, [r7, #76]	; 0x4c
 8002230:	65f8      	str	r0, [r7, #92]	; 0x5c
 8002232:	fb03 0304 	mla	r3, r3, r4, r0
 8002236:	61fb      	str	r3, [r7, #28]
 8002238:	eb00 0384 	add.w	r3, r0, r4, lsl #2
 800223c:	613b      	str	r3, [r7, #16]
 800223e:	4243      	negs	r3, r0
 8002240:	627b      	str	r3, [r7, #36]	; 0x24
 8002242:	1e43      	subs	r3, r0, #1
 8002244:	623b      	str	r3, [r7, #32]
 8002246:	4653      	mov	r3, sl
 8002248:	46da      	mov	sl, fp
 800224a:	469b      	mov	fp, r3
 800224c:	f009 fcf8 	bl	800bc40 <PlayerDelAll>
 8002250:	4863      	ldr	r0, [pc, #396]	; (80023e0 <TicTacToe_DemoGame+0x9b0>)
 8002252:	f04f 31ff 	mov.w	r1, #4294967295
 8002256:	f009 fc73 	bl	800bb40 <PlayerAdd>
 800225a:	f8ba 9004 	ldrh.w	r9, [sl, #4]
 800225e:	f8ba 8006 	ldrh.w	r8, [sl, #6]
 8002262:	fb08 f309 	mul.w	r3, r8, r9
 8002266:	2b00      	cmp	r3, #0
 8002268:	d039      	beq.n	80022de <TicTacToe_DemoGame+0x8ae>
 800226a:	4c5e      	ldr	r4, [pc, #376]	; (80023e4 <TicTacToe_DemoGame+0x9b4>)
 800226c:	464e      	mov	r6, r9
 800226e:	2500      	movs	r5, #0
 8002270:	46c1      	mov	r9, r8
 8002272:	f00b f8a3 	bl	800d3bc <rand>
 8002276:	b280      	uxth	r0, r0
 8002278:	fb06 f100 	mul.w	r1, r6, r0
 800227c:	fba4 3101 	umull	r3, r1, r4, r1
 8002280:	f8ba 6004 	ldrh.w	r6, [sl, #4]
 8002284:	f3c1 38cf 	ubfx	r8, r1, #15, #16
 8002288:	4546      	cmp	r6, r8
 800228a:	d9f2      	bls.n	8002272 <TicTacToe_DemoGame+0x842>
 800228c:	f8ba 6006 	ldrh.w	r6, [sl, #6]
 8002290:	45b1      	cmp	r9, r6
 8002292:	d30d      	bcc.n	80022b0 <TicTacToe_DemoGame+0x880>
 8002294:	f00b f892 	bl	800d3bc <rand>
 8002298:	fa1f f980 	uxth.w	r9, r0
 800229c:	fb06 f909 	mul.w	r9, r6, r9
 80022a0:	fba4 3909 	umull	r3, r9, r4, r9
 80022a4:	f8ba 6006 	ldrh.w	r6, [sl, #6]
 80022a8:	f3c9 39cf 	ubfx	r9, r9, #15, #16
 80022ac:	454e      	cmp	r6, r9
 80022ae:	d9f1      	bls.n	8002294 <TicTacToe_DemoGame+0x864>
 80022b0:	4b4d      	ldr	r3, [pc, #308]	; (80023e8 <TicTacToe_DemoGame+0x9b8>)
 80022b2:	9301      	str	r3, [sp, #4]
 80022b4:	f109 0301 	add.w	r3, r9, #1
 80022b8:	b29b      	uxth	r3, r3
 80022ba:	9300      	str	r3, [sp, #0]
 80022bc:	f108 0301 	add.w	r3, r8, #1
 80022c0:	464a      	mov	r2, r9
 80022c2:	b29b      	uxth	r3, r3
 80022c4:	4641      	mov	r1, r8
 80022c6:	4650      	mov	r0, sl
 80022c8:	f002 f8b0 	bl	800442c <LCD_FillWindow>
 80022cc:	f8ba 6004 	ldrh.w	r6, [sl, #4]
 80022d0:	f8ba 9006 	ldrh.w	r9, [sl, #6]
 80022d4:	3501      	adds	r5, #1
 80022d6:	fb09 f306 	mul.w	r3, r9, r6
 80022da:	429d      	cmp	r5, r3
 80022dc:	dbc9      	blt.n	8002272 <TicTacToe_DemoGame+0x842>
 80022de:	6bfb      	ldr	r3, [r7, #60]	; 0x3c
 80022e0:	4941      	ldr	r1, [pc, #260]	; (80023e8 <TicTacToe_DemoGame+0x9b8>)
 80022e2:	3301      	adds	r3, #1
 80022e4:	4650      	mov	r0, sl
 80022e6:	63fb      	str	r3, [r7, #60]	; 0x3c
 80022e8:	f002 f9ac 	bl	8004644 <LCD_Fill>
 80022ec:	6dfc      	ldr	r4, [r7, #92]	; 0x5c
 80022ee:	6c3a      	ldr	r2, [r7, #64]	; 0x40
 80022f0:	2100      	movs	r1, #0
 80022f2:	4620      	mov	r0, r4
 80022f4:	f00a ff64 	bl	800d1c0 <memset>
 80022f8:	f8ba 6006 	ldrh.w	r6, [sl, #6]
 80022fc:	f8ba 3004 	ldrh.w	r3, [sl, #4]
 8002300:	6a7a      	ldr	r2, [r7, #36]	; 0x24
 8002302:	62fc      	str	r4, [r7, #44]	; 0x2c
 8002304:	429e      	cmp	r6, r3
 8002306:	bf28      	it	cs
 8002308:	461e      	movcs	r6, r3
 800230a:	2300      	movs	r3, #0
 800230c:	e9c7 3225 	strd	r3, r2, [r7, #148]	; 0x94
 8002310:	46b0      	mov	r8, r6
 8002312:	4650      	mov	r0, sl
 8002314:	6d3e      	ldr	r6, [r7, #80]	; 0x50
 8002316:	f8d7 a04c 	ldr.w	sl, [r7, #76]	; 0x4c
 800231a:	f8c7 309c 	str.w	r3, [r7, #156]	; 0x9c
 800231e:	f8c7 3090 	str.w	r3, [r7, #144]	; 0x90
 8002322:	f8c7 b08c 	str.w	fp, [r7, #140]	; 0x8c
 8002326:	f8d7 3094 	ldr.w	r3, [r7, #148]	; 0x94
 800232a:	f8d7 209c 	ldr.w	r2, [r7, #156]	; 0x9c
 800232e:	fbb3 f9f6 	udiv	r9, r3, r6
 8002332:	6dfb      	ldr	r3, [r7, #92]	; 0x5c
 8002334:	189d      	adds	r5, r3, r2
 8002336:	f8d7 3098 	ldr.w	r3, [r7, #152]	; 0x98
 800233a:	2400      	movs	r4, #0
 800233c:	fa1f f989 	uxth.w	r9, r9
 8002340:	f103 3bff 	add.w	fp, r3, #4294967295
 8002344:	f8c7 40a4 	str.w	r4, [r7, #164]	; 0xa4
 8002348:	f815 1b01 	ldrb.w	r1, [r5], #1
 800234c:	f8d7 40a4 	ldr.w	r4, [r7, #164]	; 0xa4
 8002350:	fbb4 f2f6 	udiv	r2, r4, r6
 8002354:	2901      	cmp	r1, #1
 8002356:	e9cd 8601 	strd	r8, r6, [sp, #4]
 800235a:	464b      	mov	r3, r9
 800235c:	b292      	uxth	r2, r2
 800235e:	d027      	beq.n	80023b0 <TicTacToe_DemoGame+0x980>
 8002360:	f06f 447f 	mvn.w	r4, #4278190080	; 0xff000000
 8002364:	9400      	str	r4, [sp, #0]
 8002366:	f8d7 40a4 	ldr.w	r4, [r7, #164]	; 0xa4
 800236a:	4444      	add	r4, r8
 800236c:	e9c7 0428 	strd	r0, r4, [r7, #160]	; 0xa0
 8002370:	f7fe fd18 	bl	8000da4 <DrawSym.constprop.2>
 8002374:	eb0b 0305 	add.w	r3, fp, r5
 8002378:	459a      	cmp	sl, r3
 800237a:	f8d7 00a0 	ldr.w	r0, [r7, #160]	; 0xa0
 800237e:	dce3      	bgt.n	8002348 <TicTacToe_DemoGame+0x918>
 8002380:	f8d7 3094 	ldr.w	r3, [r7, #148]	; 0x94
 8002384:	f8d7 2090 	ldr.w	r2, [r7, #144]	; 0x90
 8002388:	4443      	add	r3, r8
 800238a:	f8c7 3094 	str.w	r3, [r7, #148]	; 0x94
 800238e:	f8d7 3098 	ldr.w	r3, [r7, #152]	; 0x98
 8002392:	1b9b      	subs	r3, r3, r6
 8002394:	f8c7 3098 	str.w	r3, [r7, #152]	; 0x98
 8002398:	f8d7 309c 	ldr.w	r3, [r7, #156]	; 0x9c
 800239c:	4592      	cmp	sl, r2
 800239e:	4433      	add	r3, r6
 80023a0:	f8c7 309c 	str.w	r3, [r7, #156]	; 0x9c
 80023a4:	f102 0301 	add.w	r3, r2, #1
 80023a8:	dd20      	ble.n	80023ec <TicTacToe_DemoGame+0x9bc>
 80023aa:	f8c7 3090 	str.w	r3, [r7, #144]	; 0x90
 80023ae:	e7ba      	b.n	8002326 <TicTacToe_DemoGame+0x8f6>
 80023b0:	f44f 037f 	mov.w	r3, #16711680	; 0xff0000
 80023b4:	9300      	str	r3, [sp, #0]
 80023b6:	464b      	mov	r3, r9
 80023b8:	f8c7 00a0 	str.w	r0, [r7, #160]	; 0xa0
 80023bc:	f7fe fcf2 	bl	8000da4 <DrawSym.constprop.2>
 80023c0:	f8d7 20a4 	ldr.w	r2, [r7, #164]	; 0xa4
 80023c4:	f8d7 00a0 	ldr.w	r0, [r7, #160]	; 0xa0
 80023c8:	eb0b 0305 	add.w	r3, fp, r5
 80023cc:	4442      	add	r2, r8
 80023ce:	459a      	cmp	sl, r3
 80023d0:	f8c7 20a4 	str.w	r2, [r7, #164]	; 0xa4
 80023d4:	dcb8      	bgt.n	8002348 <TicTacToe_DemoGame+0x918>
 80023d6:	e7d3      	b.n	8002380 <TicTacToe_DemoGame+0x950>
 80023d8:	200000f8 	.word	0x200000f8
 80023dc:	38e38e39 	.word	0x38e38e39
 80023e0:	200000ec 	.word	0x200000ec
 80023e4:	80008001 	.word	0x80008001
 80023e8:	00ffff00 	.word	0x00ffff00
 80023ec:	4682      	mov	sl, r0
 80023ee:	f107 01c4 	add.w	r1, r7, #196	; 0xc4
 80023f2:	f507 70a8 	add.w	r0, r7, #336	; 0x150
 80023f6:	f8d7 b08c 	ldr.w	fp, [r7, #140]	; 0x8c
 80023fa:	4dc4      	ldr	r5, [pc, #784]	; (800270c <TicTacToe_DemoGame+0xcdc>)
 80023fc:	4ec4      	ldr	r6, [pc, #784]	; (8002710 <TicTacToe_DemoGame+0xce0>)
 80023fe:	f00b f834 	bl	800d46a <strcpy>
 8002402:	f107 00c4 	add.w	r0, r7, #196	; 0xc4
 8002406:	f7fe fab6 	bl	8000976 <strlen>
 800240a:	f507 73a8 	add.w	r3, r7, #336	; 0x150
 800240e:	1819      	adds	r1, r3, r0
 8002410:	220a      	movs	r2, #10
 8002412:	6bf8      	ldr	r0, [r7, #60]	; 0x3c
 8002414:	f00b f874 	bl	800d500 <utoa>
 8002418:	f507 70a8 	add.w	r0, r7, #336	; 0x150
 800241c:	f7fe faab 	bl	8000976 <strlen>
 8002420:	782b      	ldrb	r3, [r5, #0]
 8002422:	6dba      	ldr	r2, [r7, #88]	; 0x58
 8002424:	9602      	str	r6, [sp, #8]
 8002426:	2400      	movs	r4, #0
 8002428:	462e      	mov	r6, r5
 800242a:	fb00 2013 	mls	r0, r0, r3, r2
 800242e:	9500      	str	r5, [sp, #0]
 8002430:	f44f 057f 	mov.w	r5, #16711680	; 0xff0000
 8002434:	f3c0 014f 	ubfx	r1, r0, #1, #16
 8002438:	ee1a 2a90 	vmov	r2, s21
 800243c:	4650      	mov	r0, sl
 800243e:	9501      	str	r5, [sp, #4]
 8002440:	f507 73a8 	add.w	r3, r7, #336	; 0x150
 8002444:	9403      	str	r4, [sp, #12]
 8002446:	f002 fa9d 	bl	8004984 <LCD_WriteString>
 800244a:	4bb1      	ldr	r3, [pc, #708]	; (8002710 <TicTacToe_DemoGame+0xce0>)
 800244c:	9301      	str	r3, [sp, #4]
 800244e:	ee1a 2a90 	vmov	r2, s21
 8002452:	4bb0      	ldr	r3, [pc, #704]	; (8002714 <TicTacToe_DemoGame+0xce4>)
 8002454:	9600      	str	r6, [sp, #0]
 8002456:	4650      	mov	r0, sl
 8002458:	e9cd 5402 	strd	r5, r4, [sp, #8]
 800245c:	4621      	mov	r1, r4
 800245e:	f002 fa91 	bl	8004984 <LCD_WriteString>
 8002462:	f107 01b4 	add.w	r1, r7, #180	; 0xb4
 8002466:	f507 70a8 	add.w	r0, r7, #336	; 0x150
 800246a:	f00a fff5 	bl	800d458 <stpcpy>
 800246e:	220a      	movs	r2, #10
 8002470:	4601      	mov	r1, r0
 8002472:	6c78      	ldr	r0, [r7, #68]	; 0x44
 8002474:	f00b f844 	bl	800d500 <utoa>
 8002478:	f507 70a8 	add.w	r0, r7, #336	; 0x150
 800247c:	f7fe fa7b 	bl	8000976 <strlen>
 8002480:	f507 7ca8 	add.w	ip, r7, #336	; 0x150
 8002484:	4460      	add	r0, ip
 8002486:	f107 01bc 	add.w	r1, r7, #188	; 0xbc
 800248a:	f00a ffe5 	bl	800d458 <stpcpy>
 800248e:	220a      	movs	r2, #10
 8002490:	4601      	mov	r1, r0
 8002492:	6cb8      	ldr	r0, [r7, #72]	; 0x48
 8002494:	f00b f834 	bl	800d500 <utoa>
 8002498:	f507 70a8 	add.w	r0, r7, #336	; 0x150
 800249c:	f7fe fa6b 	bl	8000976 <strlen>
 80024a0:	7833      	ldrb	r3, [r6, #0]
 80024a2:	6dba      	ldr	r2, [r7, #88]	; 0x58
 80024a4:	9403      	str	r4, [sp, #12]
 80024a6:	4635      	mov	r5, r6
 80024a8:	4e99      	ldr	r6, [pc, #612]	; (8002710 <TicTacToe_DemoGame+0xce0>)
 80024aa:	9500      	str	r5, [sp, #0]
 80024ac:	fb00 2013 	mls	r0, r0, r3, r2
 80024b0:	f3c0 014f 	ubfx	r1, r0, #1, #16
 80024b4:	ee1a 2a10 	vmov	r2, s20
 80024b8:	f507 73a8 	add.w	r3, r7, #336	; 0x150
 80024bc:	4650      	mov	r0, sl
 80024be:	e9cd 4601 	strd	r4, r6, [sp, #4]
 80024c2:	f002 fa5f 	bl	8004984 <LCD_WriteString>
 80024c6:	4d94      	ldr	r5, [pc, #592]	; (8002718 <TicTacToe_DemoGame+0xce8>)
 80024c8:	f507 709a 	add.w	r0, r7, #308	; 0x134
 80024cc:	f7fe fa53 	bl	8000976 <strlen>
 80024d0:	782b      	ldrb	r3, [r5, #0]
 80024d2:	6dba      	ldr	r2, [r7, #88]	; 0x58
 80024d4:	9500      	str	r5, [sp, #0]
 80024d6:	fb00 2013 	mls	r0, r0, r3, r2
 80024da:	25ff      	movs	r5, #255	; 0xff
 80024dc:	f3c0 014f 	ubfx	r1, r0, #1, #16
 80024e0:	ee1b 2a10 	vmov	r2, s22
 80024e4:	f507 739a 	add.w	r3, r7, #308	; 0x134
 80024e8:	4650      	mov	r0, sl
 80024ea:	e9cd 6402 	strd	r6, r4, [sp, #8]
 80024ee:	9501      	str	r5, [sp, #4]
 80024f0:	f002 fa48 	bl	8004984 <LCD_WriteString>
 80024f4:	f507 708e 	add.w	r0, r7, #284	; 0x11c
 80024f8:	f7fe fa3d 	bl	8000976 <strlen>
 80024fc:	4986      	ldr	r1, [pc, #536]	; (8002718 <TicTacToe_DemoGame+0xce8>)
 80024fe:	780b      	ldrb	r3, [r1, #0]
 8002500:	9403      	str	r4, [sp, #12]
 8002502:	6dba      	ldr	r2, [r7, #88]	; 0x58
 8002504:	9100      	str	r1, [sp, #0]
 8002506:	fb00 2013 	mls	r0, r0, r3, r2
 800250a:	f3c0 014f 	ubfx	r1, r0, #1, #16
 800250e:	f507 738e 	add.w	r3, r7, #284	; 0x11c
 8002512:	4650      	mov	r0, sl
 8002514:	e9cd 5601 	strd	r5, r6, [sp, #4]
 8002518:	ee1b 2a90 	vmov	r2, s23
 800251c:	f002 fa32 	bl	8004984 <LCD_WriteString>
 8002520:	2301      	movs	r3, #1
 8002522:	67bb      	str	r3, [r7, #120]	; 0x78
 8002524:	465b      	mov	r3, fp
 8002526:	46d3      	mov	fp, sl
 8002528:	469a      	mov	sl, r3
 800252a:	2300      	movs	r3, #0
 800252c:	f887 30af 	strb.w	r3, [r7, #175]	; 0xaf
 8002530:	f887 30ae 	strb.w	r3, [r7, #174]	; 0xae
 8002534:	f887 30ad 	strb.w	r3, [r7, #173]	; 0xad
 8002538:	f887 30ac 	strb.w	r3, [r7, #172]	; 0xac
 800253c:	f887 30ab 	strb.w	r3, [r7, #171]	; 0xab
 8002540:	6fbb      	ldr	r3, [r7, #120]	; 0x78
 8002542:	2b00      	cmp	r3, #0
 8002544:	f000 8170 	beq.w	8002828 <TicTacToe_DemoGame+0xdf8>
 8002548:	6a3b      	ldr	r3, [r7, #32]
 800254a:	6979      	ldr	r1, [r7, #20]
 800254c:	f813 2f01 	ldrb.w	r2, [r3, #1]!
 8002550:	2a00      	cmp	r2, #0
 8002552:	f000 82be 	beq.w	8002ad2 <TicTacToe_DemoGame+0x10a2>
 8002556:	4299      	cmp	r1, r3
 8002558:	d1f8      	bne.n	800254c <TicTacToe_DemoGame+0xb1c>
 800255a:	6bbb      	ldr	r3, [r7, #56]	; 0x38
 800255c:	f887 30ac 	strb.w	r3, [r7, #172]	; 0xac
 8002560:	f887 30ab 	strb.w	r3, [r7, #171]	; 0xab
 8002564:	6cbb      	ldr	r3, [r7, #72]	; 0x48
 8002566:	3305      	adds	r3, #5
 8002568:	64bb      	str	r3, [r7, #72]	; 0x48
 800256a:	6c7b      	ldr	r3, [r7, #68]	; 0x44
 800256c:	3305      	adds	r3, #5
 800256e:	647b      	str	r3, [r7, #68]	; 0x44
 8002570:	f107 03e8 	add.w	r3, r7, #232	; 0xe8
 8002574:	ee08 3a90 	vmov	s17, r3
 8002578:	f04f 0901 	mov.w	r9, #1
 800257c:	f242 7410 	movw	r4, #10000	; 0x2710
 8002580:	f1b9 0f00 	cmp.w	r9, #0
 8002584:	f040 839a 	bne.w	8002cbc <TicTacToe_DemoGame+0x128c>
 8002588:	4a64      	ldr	r2, [pc, #400]	; (800271c <TicTacToe_DemoGame+0xcec>)
 800258a:	f89a 3029 	ldrb.w	r3, [sl, #41]	; 0x29
 800258e:	6811      	ldr	r1, [r2, #0]
 8002590:	b9d3      	cbnz	r3, 80025c8 <TicTacToe_DemoGame+0xb98>
 8002592:	bf00      	nop
 8002594:	f89a 3029 	ldrb.w	r3, [sl, #41]	; 0x29
 8002598:	b9b3      	cbnz	r3, 80025c8 <TicTacToe_DemoGame+0xb98>
 800259a:	2501      	movs	r5, #1
 800259c:	4b5f      	ldr	r3, [pc, #380]	; (800271c <TicTacToe_DemoGame+0xcec>)
 800259e:	681e      	ldr	r6, [r3, #0]
 80025a0:	fb04 f305 	mul.w	r3, r4, r5
 80025a4:	1a72      	subs	r2, r6, r1
 80025a6:	429a      	cmp	r2, r3
 80025a8:	d309      	bcc.n	80025be <TicTacToe_DemoGame+0xb8e>
 80025aa:	3501      	adds	r5, #1
 80025ac:	2d0d      	cmp	r5, #13
 80025ae:	f04f 0100 	mov.w	r1, #0
 80025b2:	485b      	ldr	r0, [pc, #364]	; (8002720 <TicTacToe_DemoGame+0xcf0>)
 80025b4:	bf28      	it	cs
 80025b6:	2501      	movcs	r5, #1
 80025b8:	f009 fac2 	bl	800bb40 <PlayerAdd>
 80025bc:	4631      	mov	r1, r6
 80025be:	bf00      	nop
 80025c0:	f89a 3029 	ldrb.w	r3, [sl, #41]	; 0x29
 80025c4:	2b00      	cmp	r3, #0
 80025c6:	d0e9      	beq.n	800259c <TicTacToe_DemoGame+0xb6c>
 80025c8:	f89a 3028 	ldrb.w	r3, [sl, #40]	; 0x28
 80025cc:	2b00      	cmp	r3, #0
 80025ce:	f000 811c 	beq.w	800280a <TicTacToe_DemoGame+0xdda>
 80025d2:	bf00      	nop
 80025d4:	f89a 3029 	ldrb.w	r3, [sl, #41]	; 0x29
 80025d8:	2b00      	cmp	r3, #0
 80025da:	d1f5      	bne.n	80025c8 <TicTacToe_DemoGame+0xb98>
 80025dc:	f8da 3020 	ldr.w	r3, [sl, #32]
 80025e0:	2b03      	cmp	r3, #3
 80025e2:	d9d1      	bls.n	8002588 <TicTacToe_DemoGame+0xb58>
 80025e4:	ee19 2a90 	vmov	r2, s19
 80025e8:	ee19 1a10 	vmov	r1, s18
 80025ec:	f107 00cc 	add.w	r0, r7, #204	; 0xcc
 80025f0:	f00a fb68 	bl	800ccc4 <XPT2046_ConvertPoint>
 80025f4:	e9d7 2333 	ldrd	r2, r3, [r7, #204]	; 0xcc
 80025f8:	2a2f      	cmp	r2, #47	; 0x2f
 80025fa:	d806      	bhi.n	800260a <TicTacToe_DemoGame+0xbda>
 80025fc:	68b9      	ldr	r1, [r7, #8]
 80025fe:	4299      	cmp	r1, r3
 8002600:	da03      	bge.n	800260a <TicTacToe_DemoGame+0xbda>
 8002602:	6879      	ldr	r1, [r7, #4]
 8002604:	428b      	cmp	r3, r1
 8002606:	f77f aac5 	ble.w	8001b94 <TicTacToe_DemoGame+0x164>
 800260a:	6d39      	ldr	r1, [r7, #80]	; 0x50
 800260c:	6db8      	ldr	r0, [r7, #88]	; 0x58
 800260e:	fbb0 f8f1 	udiv	r8, r0, r1
 8002612:	fb93 f3f8 	sdiv	r3, r3, r8
 8002616:	4299      	cmp	r1, r3
 8002618:	d9b2      	bls.n	8002580 <TicTacToe_DemoGame+0xb50>
 800261a:	fb92 f8f8 	sdiv	r8, r2, r8
 800261e:	4541      	cmp	r1, r8
 8002620:	d9ae      	bls.n	8002580 <TicTacToe_DemoGame+0xb50>
 8002622:	6df8      	ldr	r0, [r7, #92]	; 0x5c
 8002624:	fb01 8103 	mla	r1, r1, r3, r8
 8002628:	1842      	adds	r2, r0, r1
 800262a:	5c41      	ldrb	r1, [r0, r1]
 800262c:	2900      	cmp	r1, #0
 800262e:	d1a7      	bne.n	8002580 <TicTacToe_DemoGame+0xb50>
 8002630:	461e      	mov	r6, r3
 8002632:	2302      	movs	r3, #2
 8002634:	7013      	strb	r3, [r2, #0]
 8002636:	483b      	ldr	r0, [pc, #236]	; (8002724 <TicTacToe_DemoGame+0xcf4>)
 8002638:	67b9      	str	r1, [r7, #120]	; 0x78
 800263a:	460c      	mov	r4, r1
 800263c:	f009 fa80 	bl	800bb40 <PlayerAdd>
 8002640:	6dbb      	ldr	r3, [r7, #88]	; 0x58
 8002642:	6d38      	ldr	r0, [r7, #80]	; 0x50
 8002644:	66bc      	str	r4, [r7, #104]	; 0x68
 8002646:	fb08 f203 	mul.w	r2, r8, r3
 800264a:	fb06 f303 	mul.w	r3, r6, r3
 800264e:	fbb2 f2f0 	udiv	r2, r2, r0
 8002652:	fbb3 f3f0 	udiv	r3, r3, r0
 8002656:	b292      	uxth	r2, r2
 8002658:	b29b      	uxth	r3, r3
 800265a:	f8c7 20a4 	str.w	r2, [r7, #164]	; 0xa4
 800265e:	66fb      	str	r3, [r7, #108]	; 0x6c
 8002660:	4658      	mov	r0, fp
 8002662:	f8c7 a034 	str.w	sl, [r7, #52]	; 0x34
 8002666:	4c29      	ldr	r4, [pc, #164]	; (800270c <TicTacToe_DemoGame+0xcdc>)
 8002668:	7823      	ldrb	r3, [r4, #0]
 800266a:	1e5a      	subs	r2, r3, #1
 800266c:	10d2      	asrs	r2, r2, #3
 800266e:	1c55      	adds	r5, r2, #1
 8002670:	2d04      	cmp	r5, #4
 8002672:	f8c7 5088 	str.w	r5, [r7, #136]	; 0x88
 8002676:	f300 859a 	bgt.w	80031ae <TicTacToe_DemoGame+0x177e>
 800267a:	7866      	ldrb	r6, [r4, #1]
 800267c:	f8c7 6090 	str.w	r6, [r7, #144]	; 0x90
 8002680:	00ea      	lsls	r2, r5, #3
 8002682:	1af3      	subs	r3, r6, r3
 8002684:	1e51      	subs	r1, r2, #1
 8002686:	eb03 73d3 	add.w	r3, r3, r3, lsr #31
 800268a:	2201      	movs	r2, #1
 800268c:	408a      	lsls	r2, r1
 800268e:	105b      	asrs	r3, r3, #1
 8002690:	fa02 f303 	lsl.w	r3, r2, r3
 8002694:	657b      	str	r3, [r7, #84]	; 0x54
 8002696:	7a23      	ldrb	r3, [r4, #8]
 8002698:	6861      	ldr	r1, [r4, #4]
 800269a:	f8c7 1084 	str.w	r1, [r7, #132]	; 0x84
 800269e:	2b4f      	cmp	r3, #79	; 0x4f
 80026a0:	d80b      	bhi.n	80026ba <TicTacToe_DemoGame+0xc8a>
 80026a2:	7a62      	ldrb	r2, [r4, #9]
 80026a4:	2a4e      	cmp	r2, #78	; 0x4e
 80026a6:	d908      	bls.n	80026ba <TicTacToe_DemoGame+0xc8a>
 80026a8:	f1c3 034f 	rsb	r3, r3, #79	; 0x4f
 80026ac:	b2db      	uxtb	r3, r3
 80026ae:	fb05 f303 	mul.w	r3, r5, r3
 80026b2:	fb06 1303 	mla	r3, r6, r3, r1
 80026b6:	f8c7 3084 	str.w	r3, [r7, #132]	; 0x84
 80026ba:	f8d7 1090 	ldr.w	r1, [r7, #144]	; 0x90
 80026be:	2900      	cmp	r1, #0
 80026c0:	f000 84be 	beq.w	8003040 <TicTacToe_DemoGame+0x1610>
 80026c4:	6ebc      	ldr	r4, [r7, #104]	; 0x68
 80026c6:	4b18      	ldr	r3, [pc, #96]	; (8002728 <TicTacToe_DemoGame+0xcf8>)
 80026c8:	fb83 2304 	smull	r2, r3, r3, r4
 80026cc:	191a      	adds	r2, r3, r4
 80026ce:	17e3      	asrs	r3, r4, #31
 80026d0:	eba3 13e2 	sub.w	r3, r3, r2, asr #7
 80026d4:	3b2d      	subs	r3, #45	; 0x2d
 80026d6:	b2db      	uxtb	r3, r3
 80026d8:	021a      	lsls	r2, r3, #8
 80026da:	ea42 4203 	orr.w	r2, r2, r3, lsl #16
 80026de:	4313      	orrs	r3, r2
 80026e0:	663b      	str	r3, [r7, #96]	; 0x60
 80026e2:	6efb      	ldr	r3, [r7, #108]	; 0x6c
 80026e4:	3b01      	subs	r3, #1
 80026e6:	b29b      	uxth	r3, r3
 80026e8:	667b      	str	r3, [r7, #100]	; 0x64
 80026ea:	f8d7 30a4 	ldr.w	r3, [r7, #164]	; 0xa4
 80026ee:	3b01      	subs	r3, #1
 80026f0:	b29b      	uxth	r3, r3
 80026f2:	f8c7 3094 	str.w	r3, [r7, #148]	; 0x94
 80026f6:	fb11 f301 	smulbb	r3, r1, r1
 80026fa:	2200      	movs	r2, #0
 80026fc:	f8c7 30a0 	str.w	r3, [r7, #160]	; 0xa0
 8002700:	6d3b      	ldr	r3, [r7, #80]	; 0x50
 8002702:	677a      	str	r2, [r7, #116]	; 0x74
 8002704:	e9c7 221f 	strd	r2, r2, [r7, #124]	; 0x7c
 8002708:	e010      	b.n	800272c <TicTacToe_DemoGame+0xcfc>
 800270a:	bf00      	nop
 800270c:	20000004 	.word	0x20000004
 8002710:	00ffff00 	.word	0x00ffff00
 8002714:	0800e4d4 	.word	0x0800e4d4
 8002718:	20000010 	.word	0x20000010
 800271c:	20000190 	.word	0x20000190
 8002720:	20000104 	.word	0x20000104
 8002724:	200000f8 	.word	0x200000f8
 8002728:	80808081 	.word	0x80808081
 800272c:	fb01 fa03 	mul.w	sl, r1, r3
 8002730:	1e4b      	subs	r3, r1, #1
 8002732:	f8c7 308c 	str.w	r3, [r7, #140]	; 0x8c
 8002736:	673a      	str	r2, [r7, #112]	; 0x70
 8002738:	f8d7 3088 	ldr.w	r3, [r7, #136]	; 0x88
 800273c:	2b01      	cmp	r3, #1
 800273e:	f000 84bd 	beq.w	80030bc <TicTacToe_DemoGame+0x168c>
 8002742:	2b02      	cmp	r3, #2
 8002744:	f000 84f2 	beq.w	800312c <TicTacToe_DemoGame+0x16fc>
 8002748:	2b03      	cmp	r3, #3
 800274a:	f000 84f5 	beq.w	8003138 <TicTacToe_DemoGame+0x1708>
 800274e:	f8d7 3084 	ldr.w	r3, [r7, #132]	; 0x84
 8002752:	f8d3 b000 	ldr.w	fp, [r3]
 8002756:	6db9      	ldr	r1, [r7, #88]	; 0x58
 8002758:	e9d7 321b 	ldrd	r3, r2, [r7, #108]	; 0x6c
 800275c:	441a      	add	r2, r3
 800275e:	6f7b      	ldr	r3, [r7, #116]	; 0x74
 8002760:	440b      	add	r3, r1
 8002762:	e9d7 1421 	ldrd	r1, r4, [r7, #132]	; 0x84
 8002766:	4421      	add	r1, r4
 8002768:	f8c7 1084 	str.w	r1, [r7, #132]	; 0x84
 800276c:	6e79      	ldr	r1, [r7, #100]	; 0x64
 800276e:	677b      	str	r3, [r7, #116]	; 0x74
 8002770:	fbb3 f3fa 	udiv	r3, r3, sl
 8002774:	eb01 0803 	add.w	r8, r1, r3
 8002778:	673b      	str	r3, [r7, #112]	; 0x70
 800277a:	f8d7 108c 	ldr.w	r1, [r7, #140]	; 0x8c
 800277e:	f8d7 3080 	ldr.w	r3, [r7, #128]	; 0x80
 8002782:	4299      	cmp	r1, r3
 8002784:	b292      	uxth	r2, r2
 8002786:	fa1f f888 	uxth.w	r8, r8
 800278a:	f000 8463 	beq.w	8003054 <TicTacToe_DemoGame+0x1624>
 800278e:	2b00      	cmp	r3, #0
 8002790:	f000 849a 	beq.w	80030c8 <TicTacToe_DemoGame+0x1698>
 8002794:	6ffb      	ldr	r3, [r7, #124]	; 0x7c
 8002796:	2600      	movs	r6, #0
 8002798:	ebc3 2903 	rsb	r9, r3, r3, lsl #8
 800279c:	4634      	mov	r4, r6
 800279e:	4635      	mov	r5, r6
 80027a0:	e025      	b.n	80027ee <TicTacToe_DemoGame+0xdbe>
 80027a2:	f8d7 108c 	ldr.w	r1, [r7, #140]	; 0x8c
 80027a6:	428c      	cmp	r4, r1
 80027a8:	d025      	beq.n	80027f6 <TicTacToe_DemoGame+0xdc6>
 80027aa:	6d79      	ldr	r1, [r7, #84]	; 0x54
 80027ac:	420b      	tst	r3, r1
 80027ae:	6e3b      	ldr	r3, [r7, #96]	; 0x60
 80027b0:	bf08      	it	eq
 80027b2:	23ff      	moveq	r3, #255	; 0xff
 80027b4:	9301      	str	r3, [sp, #4]
 80027b6:	f8d7 30a4 	ldr.w	r3, [r7, #164]	; 0xa4
 80027ba:	1959      	adds	r1, r3, r5
 80027bc:	6dbb      	ldr	r3, [r7, #88]	; 0x58
 80027be:	f8cd 8000 	str.w	r8, [sp]
 80027c2:	441e      	add	r6, r3
 80027c4:	f8d7 3094 	ldr.w	r3, [r7, #148]	; 0x94
 80027c8:	fbb6 f5fa 	udiv	r5, r6, sl
 80027cc:	442b      	add	r3, r5
 80027ce:	e9c7 2026 	strd	r2, r0, [r7, #152]	; 0x98
 80027d2:	b29b      	uxth	r3, r3
 80027d4:	b289      	uxth	r1, r1
 80027d6:	f001 fe29 	bl	800442c <LCD_FillWindow>
 80027da:	f8d7 3090 	ldr.w	r3, [r7, #144]	; 0x90
 80027de:	3401      	adds	r4, #1
 80027e0:	42a3      	cmp	r3, r4
 80027e2:	e9d7 2026 	ldrd	r2, r0, [r7, #152]	; 0x98
 80027e6:	f109 09ff 	add.w	r9, r9, #255	; 0xff
 80027ea:	f000 841b 	beq.w	8003024 <TicTacToe_DemoGame+0x15f4>
 80027ee:	fa0b f304 	lsl.w	r3, fp, r4
 80027f2:	2c00      	cmp	r4, #0
 80027f4:	d1d5      	bne.n	80027a2 <TicTacToe_DemoGame+0xd72>
 80027f6:	f8d7 30a0 	ldr.w	r3, [r7, #160]	; 0xa0
 80027fa:	fbb9 f3f3 	udiv	r3, r9, r3
 80027fe:	b2db      	uxtb	r3, r3
 8002800:	f443 037f 	orr.w	r3, r3, #16711680	; 0xff0000
 8002804:	f443 437f 	orr.w	r3, r3, #65280	; 0xff00
 8002808:	e7d4      	b.n	80027b4 <TicTacToe_DemoGame+0xd84>
 800280a:	4650      	mov	r0, sl
 800280c:	f00a fac6 	bl	800cd9c <XPT2046_GetTouch>
 8002810:	bf00      	nop
 8002812:	f89a 3029 	ldrb.w	r3, [sl, #41]	; 0x29
 8002816:	2b00      	cmp	r3, #0
 8002818:	f47f aed6 	bne.w	80025c8 <TicTacToe_DemoGame+0xb98>
 800281c:	f8da 3020 	ldr.w	r3, [sl, #32]
 8002820:	2b03      	cmp	r3, #3
 8002822:	f67f aeb1 	bls.w	8002588 <TicTacToe_DemoGame+0xb58>
 8002826:	e6dd      	b.n	80025e4 <TicTacToe_DemoGame+0xbb4>
 8002828:	461a      	mov	r2, r3
 800282a:	6978      	ldr	r0, [r7, #20]
 800282c:	6a3b      	ldr	r3, [r7, #32]
 800282e:	f813 1f01 	ldrb.w	r1, [r3, #1]!
 8002832:	b901      	cbnz	r1, 8002836 <TicTacToe_DemoGame+0xe06>
 8002834:	3201      	adds	r2, #1
 8002836:	4283      	cmp	r3, r0
 8002838:	d1f9      	bne.n	800282e <TicTacToe_DemoGame+0xdfe>
 800283a:	2a00      	cmp	r2, #0
 800283c:	f43f ae8d 	beq.w	800255a <TicTacToe_DemoGame+0xb2a>
 8002840:	eb02 0342 	add.w	r3, r2, r2, lsl #1
 8002844:	009b      	lsls	r3, r3, #2
 8002846:	6c3a      	ldr	r2, [r7, #64]	; 0x40
 8002848:	f8c7 a090 	str.w	sl, [r7, #144]	; 0x90
 800284c:	3307      	adds	r3, #7
 800284e:	f023 0307 	bic.w	r3, r3, #7
 8002852:	3207      	adds	r2, #7
 8002854:	4669      	mov	r1, sp
 8002856:	f022 0207 	bic.w	r2, r2, #7
 800285a:	ebad 0d03 	sub.w	sp, sp, r3
 800285e:	f10d 0910 	add.w	r9, sp, #16
 8002862:	2300      	movs	r3, #0
 8002864:	ee0c 1a10 	vmov	s24, r1
 8002868:	ee08 ba10 	vmov	s16, fp
 800286c:	ebad 0d02 	sub.w	sp, sp, r2
 8002870:	6bb9      	ldr	r1, [r7, #56]	; 0x38
 8002872:	f8d7 b00c 	ldr.w	fp, [r7, #12]
 8002876:	f8d7 a05c 	ldr.w	sl, [r7, #92]	; 0x5c
 800287a:	f8c7 9098 	str.w	r9, [r7, #152]	; 0x98
 800287e:	f8c7 30a4 	str.w	r3, [r7, #164]	; 0xa4
 8002882:	ae04      	add	r6, sp, #16
 8002884:	f8c7 30a0 	str.w	r3, [r7, #160]	; 0xa0
 8002888:	f8c7 309c 	str.w	r3, [r7, #156]	; 0x9c
 800288c:	4699      	mov	r9, r3
 800288e:	f8d7 50a4 	ldr.w	r5, [r7, #164]	; 0xa4
 8002892:	2400      	movs	r4, #0
 8002894:	f81a 3005 	ldrb.w	r3, [sl, r5]
 8002898:	2b00      	cmp	r3, #0
 800289a:	d044      	beq.n	8002926 <TicTacToe_DemoGame+0xef6>
 800289c:	3401      	adds	r4, #1
 800289e:	b2e4      	uxtb	r4, r4
 80028a0:	42a1      	cmp	r1, r4
 80028a2:	f105 0501 	add.w	r5, r5, #1
 80028a6:	d8f5      	bhi.n	8002894 <TicTacToe_DemoGame+0xe64>
 80028a8:	f8d7 30a0 	ldr.w	r3, [r7, #160]	; 0xa0
 80028ac:	f8d7 20a4 	ldr.w	r2, [r7, #164]	; 0xa4
 80028b0:	6d38      	ldr	r0, [r7, #80]	; 0x50
 80028b2:	3301      	adds	r3, #1
 80028b4:	f8c7 30a0 	str.w	r3, [r7, #160]	; 0xa0
 80028b8:	b2db      	uxtb	r3, r3
 80028ba:	4402      	add	r2, r0
 80028bc:	4299      	cmp	r1, r3
 80028be:	f8c7 20a4 	str.w	r2, [r7, #164]	; 0xa4
 80028c2:	f8c7 309c 	str.w	r3, [r7, #156]	; 0x9c
 80028c6:	d8e2      	bhi.n	800288e <TicTacToe_DemoGame+0xe5e>
 80028c8:	46c8      	mov	r8, r9
 80028ca:	f8d7 9098 	ldr.w	r9, [r7, #152]	; 0x98
 80028ce:	f8d7 a090 	ldr.w	sl, [r7, #144]	; 0x90
 80028d2:	f8d9 0004 	ldr.w	r0, [r9, #4]
 80028d6:	f899 4008 	ldrb.w	r4, [r9, #8]
 80028da:	ee18 ba10 	vmov	fp, s16
 80028de:	f108 31ff 	add.w	r1, r8, #4294967295
 80028e2:	f1b8 0f00 	cmp.w	r8, #0
 80028e6:	f000 80a5 	beq.w	8002a34 <TicTacToe_DemoGame+0x1004>
 80028ea:	6fbe      	ldr	r6, [r7, #120]	; 0x78
 80028ec:	4602      	mov	r2, r0
 80028ee:	2300      	movs	r3, #0
 80028f0:	e00f      	b.n	8002912 <TicTacToe_DemoGame+0xee2>
 80028f2:	7a2a      	ldrb	r2, [r5, #8]
 80028f4:	42a2      	cmp	r2, r4
 80028f6:	dd01      	ble.n	80028fc <TicTacToe_DemoGame+0xecc>
 80028f8:	461e      	mov	r6, r3
 80028fa:	4614      	mov	r4, r2
 80028fc:	3301      	adds	r3, #1
 80028fe:	3901      	subs	r1, #1
 8002900:	b2db      	uxtb	r3, r3
 8002902:	eb03 0243 	add.w	r2, r3, r3, lsl #1
 8002906:	1c4d      	adds	r5, r1, #1
 8002908:	eb09 0282 	add.w	r2, r9, r2, lsl #2
 800290c:	f000 8091 	beq.w	8002a32 <TicTacToe_DemoGame+0x1002>
 8002910:	6852      	ldr	r2, [r2, #4]
 8002912:	4290      	cmp	r0, r2
 8002914:	dcf2      	bgt.n	80028fc <TicTacToe_DemoGame+0xecc>
 8002916:	eb03 0543 	add.w	r5, r3, r3, lsl #1
 800291a:	eb09 0585 	add.w	r5, r9, r5, lsl #2
 800291e:	dae8      	bge.n	80028f2 <TicTacToe_DemoGame+0xec2>
 8002920:	461e      	mov	r6, r3
 8002922:	4610      	mov	r0, r2
 8002924:	e7ea      	b.n	80028fc <TicTacToe_DemoGame+0xecc>
 8002926:	f8da 3000 	ldr.w	r3, [sl]
 800292a:	6033      	str	r3, [r6, #0]
 800292c:	f1bb 0f02 	cmp.w	fp, #2
 8002930:	f8da 3004 	ldr.w	r3, [sl, #4]
 8002934:	6073      	str	r3, [r6, #4]
 8002936:	d038      	beq.n	80029aa <TicTacToe_DemoGame+0xf7a>
 8002938:	f8da 3008 	ldr.w	r3, [sl, #8]
 800293c:	60b3      	str	r3, [r6, #8]
 800293e:	f1bb 0f03 	cmp.w	fp, #3
 8002942:	d032      	beq.n	80029aa <TicTacToe_DemoGame+0xf7a>
 8002944:	f8da 300c 	ldr.w	r3, [sl, #12]
 8002948:	60f3      	str	r3, [r6, #12]
 800294a:	f1bb 0f04 	cmp.w	fp, #4
 800294e:	d02c      	beq.n	80029aa <TicTacToe_DemoGame+0xf7a>
 8002950:	f8da 3010 	ldr.w	r3, [sl, #16]
 8002954:	6133      	str	r3, [r6, #16]
 8002956:	f1bb 0f05 	cmp.w	fp, #5
 800295a:	d026      	beq.n	80029aa <TicTacToe_DemoGame+0xf7a>
 800295c:	f8da 3014 	ldr.w	r3, [sl, #20]
 8002960:	6173      	str	r3, [r6, #20]
 8002962:	f1bb 0f06 	cmp.w	fp, #6
 8002966:	d020      	beq.n	80029aa <TicTacToe_DemoGame+0xf7a>
 8002968:	f8da 3018 	ldr.w	r3, [sl, #24]
 800296c:	61b3      	str	r3, [r6, #24]
 800296e:	f1bb 0f07 	cmp.w	fp, #7
 8002972:	d01a      	beq.n	80029aa <TicTacToe_DemoGame+0xf7a>
 8002974:	f8da 301c 	ldr.w	r3, [sl, #28]
 8002978:	61f3      	str	r3, [r6, #28]
 800297a:	f1bb 0f08 	cmp.w	fp, #8
 800297e:	d014      	beq.n	80029aa <TicTacToe_DemoGame+0xf7a>
 8002980:	f8da 3020 	ldr.w	r3, [sl, #32]
 8002984:	6233      	str	r3, [r6, #32]
 8002986:	f1bb 0f09 	cmp.w	fp, #9
 800298a:	d00e      	beq.n	80029aa <TicTacToe_DemoGame+0xf7a>
 800298c:	f8da 3024 	ldr.w	r3, [sl, #36]	; 0x24
 8002990:	6273      	str	r3, [r6, #36]	; 0x24
 8002992:	f1bb 0f0a 	cmp.w	fp, #10
 8002996:	d008      	beq.n	80029aa <TicTacToe_DemoGame+0xf7a>
 8002998:	f8da 3028 	ldr.w	r3, [sl, #40]	; 0x28
 800299c:	62b3      	str	r3, [r6, #40]	; 0x28
 800299e:	f1bb 0f0c 	cmp.w	fp, #12
 80029a2:	bf04      	itt	eq
 80029a4:	f8da 302c 	ldreq.w	r3, [sl, #44]	; 0x2c
 80029a8:	62f3      	streq	r3, [r6, #44]	; 0x2c
 80029aa:	6c3a      	ldr	r2, [r7, #64]	; 0x40
 80029ac:	69b8      	ldr	r0, [r7, #24]
 80029ae:	4282      	cmp	r2, r0
 80029b0:	d00f      	beq.n	80029d2 <TicTacToe_DemoGame+0xfa2>
 80029b2:	f81a 3000 	ldrb.w	r3, [sl, r0]
 80029b6:	5433      	strb	r3, [r6, r0]
 80029b8:	1c43      	adds	r3, r0, #1
 80029ba:	429a      	cmp	r2, r3
 80029bc:	dd09      	ble.n	80029d2 <TicTacToe_DemoGame+0xfa2>
 80029be:	f81a 2003 	ldrb.w	r2, [sl, r3]
 80029c2:	54f2      	strb	r2, [r6, r3]
 80029c4:	6c3a      	ldr	r2, [r7, #64]	; 0x40
 80029c6:	1c83      	adds	r3, r0, #2
 80029c8:	429a      	cmp	r2, r3
 80029ca:	bfc4      	itt	gt
 80029cc:	f81a 2003 	ldrbgt.w	r2, [sl, r3]
 80029d0:	54f2      	strbgt	r2, [r6, r3]
 80029d2:	e9d7 2026 	ldrd	r2, r0, [r7, #152]	; 0x98
 80029d6:	f04f 0301 	mov.w	r3, #1
 80029da:	5573      	strb	r3, [r6, r5]
 80029dc:	eb09 0349 	add.w	r3, r9, r9, lsl #1
 80029e0:	eb02 0883 	add.w	r8, r2, r3, lsl #2
 80029e4:	f802 0023 	strb.w	r0, [r2, r3, lsl #2]
 80029e8:	4643      	mov	r3, r8
 80029ea:	f04f 0c00 	mov.w	ip, #0
 80029ee:	3308      	adds	r3, #8
 80029f0:	2200      	movs	r2, #0
 80029f2:	f8c8 2004 	str.w	r2, [r8, #4]
 80029f6:	f887 c1c4 	strb.w	ip, [r7, #452]	; 0x1c4
 80029fa:	f887 c0d4 	strb.w	ip, [r7, #212]	; 0xd4
 80029fe:	f888 4001 	strb.w	r4, [r8, #1]
 8002a02:	f888 c008 	strb.w	ip, [r8, #8]
 8002a06:	f107 02d4 	add.w	r2, r7, #212	; 0xd4
 8002a0a:	9300      	str	r3, [sp, #0]
 8002a0c:	4630      	mov	r0, r6
 8002a0e:	f8c7 1094 	str.w	r1, [r7, #148]	; 0x94
 8002a12:	f507 73e2 	add.w	r3, r7, #452	; 0x1c4
 8002a16:	f7fe fd25 	bl	8001464 <ScanField.constprop.1>
 8002a1a:	f8d7 1094 	ldr.w	r1, [r7, #148]	; 0x94
 8002a1e:	2800      	cmp	r0, #0
 8002a20:	d043      	beq.n	8002aaa <TicTacToe_DemoGame+0x107a>
 8002a22:	2801      	cmp	r0, #1
 8002a24:	bf18      	it	ne
 8002a26:	2000      	movne	r0, #0
 8002a28:	f8c8 0004 	str.w	r0, [r8, #4]
 8002a2c:	f109 0901 	add.w	r9, r9, #1
 8002a30:	e734      	b.n	800289c <TicTacToe_DemoGame+0xe6c>
 8002a32:	46b0      	mov	r8, r6
 8002a34:	eb08 0248 	add.w	r2, r8, r8, lsl #1
 8002a38:	eb09 0382 	add.w	r3, r9, r2, lsl #2
 8002a3c:	f819 2022 	ldrb.w	r2, [r9, r2, lsl #2]
 8002a40:	785b      	ldrb	r3, [r3, #1]
 8002a42:	f887 30ac 	strb.w	r3, [r7, #172]	; 0xac
 8002a46:	ee1c 3a10 	vmov	r3, s24
 8002a4a:	f887 20ab 	strb.w	r2, [r7, #171]	; 0xab
 8002a4e:	469d      	mov	sp, r3
 8002a50:	6bba      	ldr	r2, [r7, #56]	; 0x38
 8002a52:	f897 30ab 	ldrb.w	r3, [r7, #171]	; 0xab
 8002a56:	429a      	cmp	r2, r3
 8002a58:	f43f ad84 	beq.w	8002564 <TicTacToe_DemoGame+0xb34>
 8002a5c:	f897 00ac 	ldrb.w	r0, [r7, #172]	; 0xac
 8002a60:	4282      	cmp	r2, r0
 8002a62:	f43f ad7f 	beq.w	8002564 <TicTacToe_DemoGame+0xb34>
 8002a66:	6d3a      	ldr	r2, [r7, #80]	; 0x50
 8002a68:	fb02 f303 	mul.w	r3, r2, r3
 8002a6c:	4403      	add	r3, r0
 8002a6e:	6dfa      	ldr	r2, [r7, #92]	; 0x5c
 8002a70:	5cd4      	ldrb	r4, [r2, r3]
 8002a72:	2c00      	cmp	r4, #0
 8002a74:	d04b      	beq.n	8002b0e <TicTacToe_DemoGame+0x10de>
 8002a76:	f107 03af 	add.w	r3, r7, #175	; 0xaf
 8002a7a:	9300      	str	r3, [sp, #0]
 8002a7c:	6bb9      	ldr	r1, [r7, #56]	; 0x38
 8002a7e:	6df8      	ldr	r0, [r7, #92]	; 0x5c
 8002a80:	f107 03ae 	add.w	r3, r7, #174	; 0xae
 8002a84:	f107 02ad 	add.w	r2, r7, #173	; 0xad
 8002a88:	f7fe fcec 	bl	8001464 <ScanField.constprop.1>
 8002a8c:	4681      	mov	r9, r0
 8002a8e:	2800      	cmp	r0, #0
 8002a90:	f43f ad74 	beq.w	800257c <TicTacToe_DemoGame+0xb4c>
 8002a94:	2801      	cmp	r0, #1
 8002a96:	6cbb      	ldr	r3, [r7, #72]	; 0x48
 8002a98:	f47f ad65 	bne.w	8002566 <TicTacToe_DemoGame+0xb36>
 8002a9c:	330a      	adds	r3, #10
 8002a9e:	64bb      	str	r3, [r7, #72]	; 0x48
 8002aa0:	f107 03f8 	add.w	r3, r7, #248	; 0xf8
 8002aa4:	ee08 3a90 	vmov	s17, r3
 8002aa8:	e568      	b.n	800257c <TicTacToe_DemoGame+0xb4c>
 8002aaa:	6abb      	ldr	r3, [r7, #40]	; 0x28
 8002aac:	9302      	str	r3, [sp, #8]
 8002aae:	f107 03ac 	add.w	r3, r7, #172	; 0xac
 8002ab2:	9301      	str	r3, [sp, #4]
 8002ab4:	f107 03ab 	add.w	r3, r7, #171	; 0xab
 8002ab8:	9300      	str	r3, [sp, #0]
 8002aba:	2302      	movs	r3, #2
 8002abc:	f8c7 1094 	str.w	r1, [r7, #148]	; 0x94
 8002ac0:	461a      	mov	r2, r3
 8002ac2:	4630      	mov	r0, r6
 8002ac4:	f7fe fdba 	bl	800163c <GameLogic>
 8002ac8:	f8d7 1094 	ldr.w	r1, [r7, #148]	; 0x94
 8002acc:	f8c8 0004 	str.w	r0, [r8, #4]
 8002ad0:	e7ac      	b.n	8002a2c <TicTacToe_DemoGame+0xffc>
 8002ad2:	6bbc      	ldr	r4, [r7, #56]	; 0x38
 8002ad4:	f00a fc72 	bl	800d3bc <rand>
 8002ad8:	f887 00ab 	strb.w	r0, [r7, #171]	; 0xab
 8002adc:	f00a fc6e 	bl	800d3bc <rand>
 8002ae0:	f897 30ab 	ldrb.w	r3, [r7, #171]	; 0xab
 8002ae4:	b2c0      	uxtb	r0, r0
 8002ae6:	429c      	cmp	r4, r3
 8002ae8:	f887 00ac 	strb.w	r0, [r7, #172]	; 0xac
 8002aec:	d9f2      	bls.n	8002ad4 <TicTacToe_DemoGame+0x10a4>
 8002aee:	6d3a      	ldr	r2, [r7, #80]	; 0x50
 8002af0:	fb02 f303 	mul.w	r3, r2, r3
 8002af4:	6dfa      	ldr	r2, [r7, #92]	; 0x5c
 8002af6:	4284      	cmp	r4, r0
 8002af8:	4402      	add	r2, r0
 8002afa:	d9eb      	bls.n	8002ad4 <TicTacToe_DemoGame+0x10a4>
 8002afc:	5cd2      	ldrb	r2, [r2, r3]
 8002afe:	2a00      	cmp	r2, #0
 8002b00:	d1e8      	bne.n	8002ad4 <TicTacToe_DemoGame+0x10a4>
 8002b02:	6dfa      	ldr	r2, [r7, #92]	; 0x5c
 8002b04:	63bc      	str	r4, [r7, #56]	; 0x38
 8002b06:	4403      	add	r3, r0
 8002b08:	5cd4      	ldrb	r4, [r2, r3]
 8002b0a:	2c00      	cmp	r4, #0
 8002b0c:	d1b3      	bne.n	8002a76 <TicTacToe_DemoGame+0x1046>
 8002b0e:	4611      	mov	r1, r2
 8002b10:	2201      	movs	r2, #1
 8002b12:	54ca      	strb	r2, [r1, r3]
 8002b14:	48b7      	ldr	r0, [pc, #732]	; (8002df4 <TicTacToe_DemoGame+0x13c4>)
 8002b16:	4621      	mov	r1, r4
 8002b18:	f009 f812 	bl	800bb40 <PlayerAdd>
 8002b1c:	f8c7 a034 	str.w	sl, [r7, #52]	; 0x34
 8002b20:	f8d7 a058 	ldr.w	sl, [r7, #88]	; 0x58
 8002b24:	657c      	str	r4, [r7, #84]	; 0x54
 8002b26:	4658      	mov	r0, fp
 8002b28:	4cb3      	ldr	r4, [pc, #716]	; (8002df8 <TicTacToe_DemoGame+0x13c8>)
 8002b2a:	7823      	ldrb	r3, [r4, #0]
 8002b2c:	1e5a      	subs	r2, r3, #1
 8002b2e:	10d2      	asrs	r2, r2, #3
 8002b30:	1c55      	adds	r5, r2, #1
 8002b32:	2d04      	cmp	r5, #4
 8002b34:	f8c7 5080 	str.w	r5, [r7, #128]	; 0x80
 8002b38:	f300 824e 	bgt.w	8002fd8 <TicTacToe_DemoGame+0x15a8>
 8002b3c:	7866      	ldrb	r6, [r4, #1]
 8002b3e:	f8c7 6090 	str.w	r6, [r7, #144]	; 0x90
 8002b42:	00ea      	lsls	r2, r5, #3
 8002b44:	1af3      	subs	r3, r6, r3
 8002b46:	1e51      	subs	r1, r2, #1
 8002b48:	eb03 73d3 	add.w	r3, r3, r3, lsr #31
 8002b4c:	2201      	movs	r2, #1
 8002b4e:	408a      	lsls	r2, r1
 8002b50:	105b      	asrs	r3, r3, #1
 8002b52:	fa02 f303 	lsl.w	r3, r2, r3
 8002b56:	667b      	str	r3, [r7, #100]	; 0x64
 8002b58:	7a23      	ldrb	r3, [r4, #8]
 8002b5a:	6861      	ldr	r1, [r4, #4]
 8002b5c:	67f9      	str	r1, [r7, #124]	; 0x7c
 8002b5e:	2b58      	cmp	r3, #88	; 0x58
 8002b60:	d80a      	bhi.n	8002b78 <TicTacToe_DemoGame+0x1148>
 8002b62:	7a62      	ldrb	r2, [r4, #9]
 8002b64:	2a57      	cmp	r2, #87	; 0x57
 8002b66:	d907      	bls.n	8002b78 <TicTacToe_DemoGame+0x1148>
 8002b68:	f1c3 0358 	rsb	r3, r3, #88	; 0x58
 8002b6c:	b2db      	uxtb	r3, r3
 8002b6e:	fb05 f303 	mul.w	r3, r5, r3
 8002b72:	fb06 1303 	mla	r3, r6, r3, r1
 8002b76:	67fb      	str	r3, [r7, #124]	; 0x7c
 8002b78:	f8d7 1090 	ldr.w	r1, [r7, #144]	; 0x90
 8002b7c:	2900      	cmp	r1, #0
 8002b7e:	f000 8183 	beq.w	8002e88 <TicTacToe_DemoGame+0x1458>
 8002b82:	6d7c      	ldr	r4, [r7, #84]	; 0x54
 8002b84:	4b9d      	ldr	r3, [pc, #628]	; (8002dfc <TicTacToe_DemoGame+0x13cc>)
 8002b86:	fb83 2304 	smull	r2, r3, r3, r4
 8002b8a:	191a      	adds	r2, r3, r4
 8002b8c:	17e3      	asrs	r3, r4, #31
 8002b8e:	eba3 13e2 	sub.w	r3, r3, r2, asr #7
 8002b92:	3b01      	subs	r3, #1
 8002b94:	b2db      	uxtb	r3, r3
 8002b96:	ea43 2303 	orr.w	r3, r3, r3, lsl #8
 8002b9a:	f443 037f 	orr.w	r3, r3, #16711680	; 0xff0000
 8002b9e:	663b      	str	r3, [r7, #96]	; 0x60
 8002ba0:	f897 30ac 	ldrb.w	r3, [r7, #172]	; 0xac
 8002ba4:	6d3c      	ldr	r4, [r7, #80]	; 0x50
 8002ba6:	fb0a f303 	mul.w	r3, sl, r3
 8002baa:	fbb3 f3f4 	udiv	r3, r3, r4
 8002bae:	b29d      	uxth	r5, r3
 8002bb0:	f897 30ab 	ldrb.w	r3, [r7, #171]	; 0xab
 8002bb4:	f8c7 50a4 	str.w	r5, [r7, #164]	; 0xa4
 8002bb8:	fb0a f303 	mul.w	r3, sl, r3
 8002bbc:	fbb3 f3f4 	udiv	r3, r3, r4
 8002bc0:	b29e      	uxth	r6, r3
 8002bc2:	1e6b      	subs	r3, r5, #1
 8002bc4:	b29b      	uxth	r3, r3
 8002bc6:	f8c7 30a0 	str.w	r3, [r7, #160]	; 0xa0
 8002bca:	1e73      	subs	r3, r6, #1
 8002bcc:	b29b      	uxth	r3, r3
 8002bce:	66bb      	str	r3, [r7, #104]	; 0x68
 8002bd0:	fb11 f301 	smulbb	r3, r1, r1
 8002bd4:	2200      	movs	r2, #0
 8002bd6:	f8c7 309c 	str.w	r3, [r7, #156]	; 0x9c
 8002bda:	fb01 f304 	mul.w	r3, r1, r4
 8002bde:	3901      	subs	r1, #1
 8002be0:	66fe      	str	r6, [r7, #108]	; 0x6c
 8002be2:	677a      	str	r2, [r7, #116]	; 0x74
 8002be4:	f8c7 1084 	str.w	r1, [r7, #132]	; 0x84
 8002be8:	67ba      	str	r2, [r7, #120]	; 0x78
 8002bea:	f8c7 2088 	str.w	r2, [r7, #136]	; 0x88
 8002bee:	673a      	str	r2, [r7, #112]	; 0x70
 8002bf0:	469b      	mov	fp, r3
 8002bf2:	f8d7 3080 	ldr.w	r3, [r7, #128]	; 0x80
 8002bf6:	2b01      	cmp	r3, #1
 8002bf8:	f000 8150 	beq.w	8002e9c <TicTacToe_DemoGame+0x146c>
 8002bfc:	2b02      	cmp	r3, #2
 8002bfe:	f000 81ae 	beq.w	8002f5e <TicTacToe_DemoGame+0x152e>
 8002c02:	2b03      	cmp	r3, #3
 8002c04:	f000 81b0 	beq.w	8002f68 <TicTacToe_DemoGame+0x1538>
 8002c08:	6ffb      	ldr	r3, [r7, #124]	; 0x7c
 8002c0a:	681b      	ldr	r3, [r3, #0]
 8002c0c:	f8c7 308c 	str.w	r3, [r7, #140]	; 0x8c
 8002c10:	e9d7 321b 	ldrd	r3, r2, [r7, #108]	; 0x6c
 8002c14:	e9d7 141f 	ldrd	r1, r4, [r7, #124]	; 0x7c
 8002c18:	441a      	add	r2, r3
 8002c1a:	4421      	add	r1, r4
 8002c1c:	6f7b      	ldr	r3, [r7, #116]	; 0x74
 8002c1e:	67f9      	str	r1, [r7, #124]	; 0x7c
 8002c20:	6eb9      	ldr	r1, [r7, #104]	; 0x68
 8002c22:	4453      	add	r3, sl
 8002c24:	677b      	str	r3, [r7, #116]	; 0x74
 8002c26:	fbb3 f3fb 	udiv	r3, r3, fp
 8002c2a:	eb01 0803 	add.w	r8, r1, r3
 8002c2e:	673b      	str	r3, [r7, #112]	; 0x70
 8002c30:	e9d7 1321 	ldrd	r1, r3, [r7, #132]	; 0x84
 8002c34:	428b      	cmp	r3, r1
 8002c36:	b292      	uxth	r2, r2
 8002c38:	fa1f f888 	uxth.w	r8, r8
 8002c3c:	f000 8133 	beq.w	8002ea6 <TicTacToe_DemoGame+0x1476>
 8002c40:	2b00      	cmp	r3, #0
 8002c42:	f000 815f 	beq.w	8002f04 <TicTacToe_DemoGame+0x14d4>
 8002c46:	6fbb      	ldr	r3, [r7, #120]	; 0x78
 8002c48:	2600      	movs	r6, #0
 8002c4a:	ebc3 2903 	rsb	r9, r3, r3, lsl #8
 8002c4e:	4634      	mov	r4, r6
 8002c50:	4635      	mov	r5, r6
 8002c52:	e024      	b.n	8002c9e <TicTacToe_DemoGame+0x126e>
 8002c54:	f8d7 1084 	ldr.w	r1, [r7, #132]	; 0x84
 8002c58:	428c      	cmp	r4, r1
 8002c5a:	d025      	beq.n	8002ca8 <TicTacToe_DemoGame+0x1278>
 8002c5c:	6e79      	ldr	r1, [r7, #100]	; 0x64
 8002c5e:	420b      	tst	r3, r1
 8002c60:	6e3b      	ldr	r3, [r7, #96]	; 0x60
 8002c62:	bf08      	it	eq
 8002c64:	23ff      	moveq	r3, #255	; 0xff
 8002c66:	9301      	str	r3, [sp, #4]
 8002c68:	f8d7 30a4 	ldr.w	r3, [r7, #164]	; 0xa4
 8002c6c:	f8cd 8000 	str.w	r8, [sp]
 8002c70:	1959      	adds	r1, r3, r5
 8002c72:	f8d7 30a0 	ldr.w	r3, [r7, #160]	; 0xa0
 8002c76:	4456      	add	r6, sl
 8002c78:	fbb6 f5fb 	udiv	r5, r6, fp
 8002c7c:	442b      	add	r3, r5
 8002c7e:	e9c7 2025 	strd	r2, r0, [r7, #148]	; 0x94
 8002c82:	b29b      	uxth	r3, r3
 8002c84:	b289      	uxth	r1, r1
 8002c86:	f001 fbd1 	bl	800442c <LCD_FillWindow>
 8002c8a:	f8d7 3090 	ldr.w	r3, [r7, #144]	; 0x90
 8002c8e:	3401      	adds	r4, #1
 8002c90:	42a3      	cmp	r3, r4
 8002c92:	e9d7 2025 	ldrd	r2, r0, [r7, #148]	; 0x94
 8002c96:	f109 09ff 	add.w	r9, r9, #255	; 0xff
 8002c9a:	f000 80e3 	beq.w	8002e64 <TicTacToe_DemoGame+0x1434>
 8002c9e:	f8d7 308c 	ldr.w	r3, [r7, #140]	; 0x8c
 8002ca2:	40a3      	lsls	r3, r4
 8002ca4:	2c00      	cmp	r4, #0
 8002ca6:	d1d5      	bne.n	8002c54 <TicTacToe_DemoGame+0x1224>
 8002ca8:	f8d7 309c 	ldr.w	r3, [r7, #156]	; 0x9c
 8002cac:	fbb9 f3f3 	udiv	r3, r9, r3
 8002cb0:	b2db      	uxtb	r3, r3
 8002cb2:	f443 037f 	orr.w	r3, r3, #16711680	; 0xff0000
 8002cb6:	f443 437f 	orr.w	r3, r3, #65280	; 0xff00
 8002cba:	e7d4      	b.n	8002c66 <TicTacToe_DemoGame+0x1236>
 8002cbc:	4653      	mov	r3, sl
 8002cbe:	46da      	mov	sl, fp
 8002cc0:	469b      	mov	fp, r3
 8002cc2:	f008 ffbd 	bl	800bc40 <PlayerDelAll>
 8002cc6:	484e      	ldr	r0, [pc, #312]	; (8002e00 <TicTacToe_DemoGame+0x13d0>)
 8002cc8:	2100      	movs	r1, #0
 8002cca:	f008 ff39 	bl	800bb40 <PlayerAdd>
 8002cce:	f897 60ad 	ldrb.w	r6, [r7, #173]	; 0xad
 8002cd2:	2e00      	cmp	r6, #0
 8002cd4:	d057      	beq.n	8002d86 <TicTacToe_DemoGame+0x1356>
 8002cd6:	f897 40ae 	ldrb.w	r4, [r7, #174]	; 0xae
 8002cda:	2c00      	cmp	r4, #0
 8002cdc:	f000 8094 	beq.w	8002e08 <TicTacToe_DemoGame+0x13d8>
 8002ce0:	2e01      	cmp	r6, #1
 8002ce2:	d102      	bne.n	8002cea <TicTacToe_DemoGame+0x12ba>
 8002ce4:	2c01      	cmp	r4, #1
 8002ce6:	f000 817b 	beq.w	8002fe0 <TicTacToe_DemoGame+0x15b0>
 8002cea:	f8ba 4006 	ldrh.w	r4, [sl, #6]
 8002cee:	f8ba 3004 	ldrh.w	r3, [sl, #4]
 8002cf2:	f8c7 b0a4 	str.w	fp, [r7, #164]	; 0xa4
 8002cf6:	429c      	cmp	r4, r3
 8002cf8:	bf28      	it	cs
 8002cfa:	461c      	movcs	r4, r3
 8002cfc:	6cfb      	ldr	r3, [r7, #76]	; 0x4c
 8002cfe:	f8d7 801c 	ldr.w	r8, [r7, #28]
 8002d02:	f8d7 b050 	ldr.w	fp, [r7, #80]	; 0x50
 8002d06:	2500      	movs	r5, #0
 8002d08:	fb04 f603 	mul.w	r6, r4, r3
 8002d0c:	46a9      	mov	r9, r5
 8002d0e:	f898 1000 	ldrb.w	r1, [r8]
 8002d12:	fbb5 f2fb 	udiv	r2, r5, fp
 8002d16:	e9cd 4b00 	strd	r4, fp, [sp]
 8002d1a:	6cfb      	ldr	r3, [r7, #76]	; 0x4c
 8002d1c:	b292      	uxth	r2, r2
 8002d1e:	eba8 0803 	sub.w	r8, r8, r3
 8002d22:	4650      	mov	r0, sl
 8002d24:	fb96 f3fb 	sdiv	r3, r6, fp
 8002d28:	b29b      	uxth	r3, r3
 8002d2a:	f7fe f997 	bl	800105c <DrawSym.constprop.3>
 8002d2e:	6cfa      	ldr	r2, [r7, #76]	; 0x4c
 8002d30:	454a      	cmp	r2, r9
 8002d32:	eba6 0604 	sub.w	r6, r6, r4
 8002d36:	4425      	add	r5, r4
 8002d38:	f109 0901 	add.w	r9, r9, #1
 8002d3c:	dce7      	bgt.n	8002d0e <TicTacToe_DemoGame+0x12de>
 8002d3e:	f8d7 b0a4 	ldr.w	fp, [r7, #164]	; 0xa4
 8002d42:	ee18 0a90 	vmov	r0, s17
 8002d46:	f7fd fe16 	bl	8000976 <strlen>
 8002d4a:	492b      	ldr	r1, [pc, #172]	; (8002df8 <TicTacToe_DemoGame+0x13c8>)
 8002d4c:	6b3c      	ldr	r4, [r7, #48]	; 0x30
 8002d4e:	784a      	ldrb	r2, [r1, #1]
 8002d50:	780b      	ldrb	r3, [r1, #0]
 8002d52:	eba4 0252 	sub.w	r2, r4, r2, lsr #1
 8002d56:	6dbc      	ldr	r4, [r7, #88]	; 0x58
 8002d58:	fb00 4013 	mls	r0, r0, r3, r4
 8002d5c:	4c29      	ldr	r4, [pc, #164]	; (8002e04 <TicTacToe_DemoGame+0x13d4>)
 8002d5e:	23ff      	movs	r3, #255	; 0xff
 8002d60:	e9cd 1400 	strd	r1, r4, [sp]
 8002d64:	f3c0 014f 	ubfx	r1, r0, #1, #16
 8002d68:	2000      	movs	r0, #0
 8002d6a:	e9cd 3002 	strd	r3, r0, [sp, #8]
 8002d6e:	b292      	uxth	r2, r2
 8002d70:	4650      	mov	r0, sl
 8002d72:	ee18 3a90 	vmov	r3, s17
 8002d76:	f001 fe05 	bl	8004984 <LCD_WriteString>
 8002d7a:	f242 0008 	movw	r0, #8200	; 0x2008
 8002d7e:	f002 f967 	bl	8005050 <LL_mDelay>
 8002d82:	f7ff ba63 	b.w	800224c <TicTacToe_DemoGame+0x81c>
 8002d86:	f897 50ae 	ldrb.w	r5, [r7, #174]	; 0xae
 8002d8a:	2d00      	cmp	r5, #0
 8002d8c:	d0d9      	beq.n	8002d42 <TicTacToe_DemoGame+0x1312>
 8002d8e:	f8ba 3006 	ldrh.w	r3, [sl, #6]
 8002d92:	f8ba 8004 	ldrh.w	r8, [sl, #4]
 8002d96:	6d3a      	ldr	r2, [r7, #80]	; 0x50
 8002d98:	4598      	cmp	r8, r3
 8002d9a:	bf28      	it	cs
 8002d9c:	4698      	movcs	r8, r3
 8002d9e:	1e6b      	subs	r3, r5, #1
 8002da0:	f8c7 30a4 	str.w	r3, [r7, #164]	; 0xa4
 8002da4:	fb08 f303 	mul.w	r3, r8, r3
 8002da8:	fbb3 f3f2 	udiv	r3, r3, r2
 8002dac:	b29a      	uxth	r2, r3
 8002dae:	6dfb      	ldr	r3, [r7, #92]	; 0x5c
 8002db0:	eb03 0905 	add.w	r9, r3, r5
 8002db4:	465b      	mov	r3, fp
 8002db6:	4634      	mov	r4, r6
 8002db8:	46ab      	mov	fp, r5
 8002dba:	461d      	mov	r5, r3
 8002dbc:	6d38      	ldr	r0, [r7, #80]	; 0x50
 8002dbe:	f8d7 10a4 	ldr.w	r1, [r7, #164]	; 0xa4
 8002dc2:	eba9 030b 	sub.w	r3, r9, fp
 8002dc6:	4481      	add	r9, r0
 8002dc8:	5c59      	ldrb	r1, [r3, r1]
 8002dca:	fbb6 f3f0 	udiv	r3, r6, r0
 8002dce:	e9cd 8000 	strd	r8, r0, [sp]
 8002dd2:	b29b      	uxth	r3, r3
 8002dd4:	f8c7 20a0 	str.w	r2, [r7, #160]	; 0xa0
 8002dd8:	4650      	mov	r0, sl
 8002dda:	f7fe f93f 	bl	800105c <DrawSym.constprop.3>
 8002dde:	6cfa      	ldr	r2, [r7, #76]	; 0x4c
 8002de0:	42a2      	cmp	r2, r4
 8002de2:	4446      	add	r6, r8
 8002de4:	f8d7 20a0 	ldr.w	r2, [r7, #160]	; 0xa0
 8002de8:	f104 0401 	add.w	r4, r4, #1
 8002dec:	dce6      	bgt.n	8002dbc <TicTacToe_DemoGame+0x138c>
 8002dee:	46ab      	mov	fp, r5
 8002df0:	e7a7      	b.n	8002d42 <TicTacToe_DemoGame+0x1312>
 8002df2:	bf00      	nop
 8002df4:	200000f8 	.word	0x200000f8
 8002df8:	20000004 	.word	0x20000004
 8002dfc:	80808081 	.word	0x80808081
 8002e00:	200000d4 	.word	0x200000d4
 8002e04:	00ffff00 	.word	0x00ffff00
 8002e08:	1e73      	subs	r3, r6, #1
 8002e0a:	f8ba 2004 	ldrh.w	r2, [sl, #4]
 8002e0e:	f8ba 6006 	ldrh.w	r6, [sl, #6]
 8002e12:	4296      	cmp	r6, r2
 8002e14:	bf28      	it	cs
 8002e16:	4616      	movcs	r6, r2
 8002e18:	6d3a      	ldr	r2, [r7, #80]	; 0x50
 8002e1a:	fb06 f903 	mul.w	r9, r6, r3
 8002e1e:	fb02 f503 	mul.w	r5, r2, r3
 8002e22:	6dfb      	ldr	r3, [r7, #92]	; 0x5c
 8002e24:	fbb9 f9f2 	udiv	r9, r9, r2
 8002e28:	ea6f 0805 	mvn.w	r8, r5
 8002e2c:	eba8 0803 	sub.w	r8, r8, r3
 8002e30:	441d      	add	r5, r3
 8002e32:	4643      	mov	r3, r8
 8002e34:	fa1f f989 	uxth.w	r9, r9
 8002e38:	46d8      	mov	r8, fp
 8002e3a:	469b      	mov	fp, r3
 8002e3c:	6d3b      	ldr	r3, [r7, #80]	; 0x50
 8002e3e:	f815 1b01 	ldrb.w	r1, [r5], #1
 8002e42:	fbb4 f2f3 	udiv	r2, r4, r3
 8002e46:	e9cd 6300 	strd	r6, r3, [sp]
 8002e4a:	b292      	uxth	r2, r2
 8002e4c:	464b      	mov	r3, r9
 8002e4e:	4650      	mov	r0, sl
 8002e50:	f7fe f904 	bl	800105c <DrawSym.constprop.3>
 8002e54:	6cfb      	ldr	r3, [r7, #76]	; 0x4c
 8002e56:	eb0b 0205 	add.w	r2, fp, r5
 8002e5a:	429a      	cmp	r2, r3
 8002e5c:	4434      	add	r4, r6
 8002e5e:	dbed      	blt.n	8002e3c <TicTacToe_DemoGame+0x140c>
 8002e60:	46c3      	mov	fp, r8
 8002e62:	e76e      	b.n	8002d42 <TicTacToe_DemoGame+0x1312>
 8002e64:	461a      	mov	r2, r3
 8002e66:	6fbb      	ldr	r3, [r7, #120]	; 0x78
 8002e68:	4413      	add	r3, r2
 8002e6a:	f8c7 308c 	str.w	r3, [r7, #140]	; 0x8c
 8002e6e:	f8d7 3088 	ldr.w	r3, [r7, #136]	; 0x88
 8002e72:	f8d7 208c 	ldr.w	r2, [r7, #140]	; 0x8c
 8002e76:	67ba      	str	r2, [r7, #120]	; 0x78
 8002e78:	f8d7 2090 	ldr.w	r2, [r7, #144]	; 0x90
 8002e7c:	3301      	adds	r3, #1
 8002e7e:	429a      	cmp	r2, r3
 8002e80:	f8c7 3088 	str.w	r3, [r7, #136]	; 0x88
 8002e84:	f47f aeb5 	bne.w	8002bf2 <TicTacToe_DemoGame+0x11c2>
 8002e88:	6d7a      	ldr	r2, [r7, #84]	; 0x54
 8002e8a:	f64f 6301 	movw	r3, #65025	; 0xfe01
 8002e8e:	429a      	cmp	r2, r3
 8002e90:	f000 80a2 	beq.w	8002fd8 <TicTacToe_DemoGame+0x15a8>
 8002e94:	f202 23fd 	addw	r3, r2, #765	; 0x2fd
 8002e98:	657b      	str	r3, [r7, #84]	; 0x54
 8002e9a:	e645      	b.n	8002b28 <TicTacToe_DemoGame+0x10f8>
 8002e9c:	6ffb      	ldr	r3, [r7, #124]	; 0x7c
 8002e9e:	781b      	ldrb	r3, [r3, #0]
 8002ea0:	f8c7 308c 	str.w	r3, [r7, #140]	; 0x8c
 8002ea4:	e6b4      	b.n	8002c10 <TicTacToe_DemoGame+0x11e0>
 8002ea6:	2b00      	cmp	r3, #0
 8002ea8:	d069      	beq.n	8002f7e <TicTacToe_DemoGame+0x154e>
 8002eaa:	6fb9      	ldr	r1, [r7, #120]	; 0x78
 8002eac:	f8d7 3090 	ldr.w	r3, [r7, #144]	; 0x90
 8002eb0:	2600      	movs	r6, #0
 8002eb2:	440b      	add	r3, r1
 8002eb4:	f8c7 308c 	str.w	r3, [r7, #140]	; 0x8c
 8002eb8:	ebc1 2501 	rsb	r5, r1, r1, lsl #8
 8002ebc:	ebc3 2903 	rsb	r9, r3, r3, lsl #8
 8002ec0:	4634      	mov	r4, r6
 8002ec2:	f8d7 30a4 	ldr.w	r3, [r7, #164]	; 0xa4
 8002ec6:	f8cd 8000 	str.w	r8, [sp]
 8002eca:	1919      	adds	r1, r3, r4
 8002ecc:	f8d7 309c 	ldr.w	r3, [r7, #156]	; 0x9c
 8002ed0:	fbb5 f3f3 	udiv	r3, r5, r3
 8002ed4:	b2db      	uxtb	r3, r3
 8002ed6:	f443 037f 	orr.w	r3, r3, #16711680	; 0xff0000
 8002eda:	f443 437f 	orr.w	r3, r3, #65280	; 0xff00
 8002ede:	9301      	str	r3, [sp, #4]
 8002ee0:	f8d7 30a0 	ldr.w	r3, [r7, #160]	; 0xa0
 8002ee4:	4456      	add	r6, sl
 8002ee6:	fbb6 f4fb 	udiv	r4, r6, fp
 8002eea:	4423      	add	r3, r4
 8002eec:	e9c7 2025 	strd	r2, r0, [r7, #148]	; 0x94
 8002ef0:	b289      	uxth	r1, r1
 8002ef2:	35ff      	adds	r5, #255	; 0xff
 8002ef4:	b29b      	uxth	r3, r3
 8002ef6:	f001 fa99 	bl	800442c <LCD_FillWindow>
 8002efa:	45a9      	cmp	r9, r5
 8002efc:	e9d7 2025 	ldrd	r2, r0, [r7, #148]	; 0x94
 8002f00:	d1df      	bne.n	8002ec2 <TicTacToe_DemoGame+0x1492>
 8002f02:	e7b4      	b.n	8002e6e <TicTacToe_DemoGame+0x143e>
 8002f04:	6fb9      	ldr	r1, [r7, #120]	; 0x78
 8002f06:	461c      	mov	r4, r3
 8002f08:	f8d7 3090 	ldr.w	r3, [r7, #144]	; 0x90
 8002f0c:	440b      	add	r3, r1
 8002f0e:	f8c7 308c 	str.w	r3, [r7, #140]	; 0x8c
 8002f12:	ebc1 2501 	rsb	r5, r1, r1, lsl #8
 8002f16:	ebc3 2903 	rsb	r9, r3, r3, lsl #8
 8002f1a:	4626      	mov	r6, r4
 8002f1c:	f8d7 30a4 	ldr.w	r3, [r7, #164]	; 0xa4
 8002f20:	f8cd 8000 	str.w	r8, [sp]
 8002f24:	1919      	adds	r1, r3, r4
 8002f26:	f8d7 309c 	ldr.w	r3, [r7, #156]	; 0x9c
 8002f2a:	fbb5 f3f3 	udiv	r3, r5, r3
 8002f2e:	b2db      	uxtb	r3, r3
 8002f30:	f443 037f 	orr.w	r3, r3, #16711680	; 0xff0000
 8002f34:	f443 437f 	orr.w	r3, r3, #65280	; 0xff00
 8002f38:	9301      	str	r3, [sp, #4]
 8002f3a:	f8d7 30a0 	ldr.w	r3, [r7, #160]	; 0xa0
 8002f3e:	4456      	add	r6, sl
 8002f40:	fbb6 f4fb 	udiv	r4, r6, fp
 8002f44:	4423      	add	r3, r4
 8002f46:	e9c7 2025 	strd	r2, r0, [r7, #148]	; 0x94
 8002f4a:	b289      	uxth	r1, r1
 8002f4c:	35ff      	adds	r5, #255	; 0xff
 8002f4e:	b29b      	uxth	r3, r3
 8002f50:	f001 fa6c 	bl	800442c <LCD_FillWindow>
 8002f54:	45a9      	cmp	r9, r5
 8002f56:	e9d7 2025 	ldrd	r2, r0, [r7, #148]	; 0x94
 8002f5a:	d1df      	bne.n	8002f1c <TicTacToe_DemoGame+0x14ec>
 8002f5c:	e787      	b.n	8002e6e <TicTacToe_DemoGame+0x143e>
 8002f5e:	6ffb      	ldr	r3, [r7, #124]	; 0x7c
 8002f60:	881b      	ldrh	r3, [r3, #0]
 8002f62:	f8c7 308c 	str.w	r3, [r7, #140]	; 0x8c
 8002f66:	e653      	b.n	8002c10 <TicTacToe_DemoGame+0x11e0>
 8002f68:	6ff9      	ldr	r1, [r7, #124]	; 0x7c
 8002f6a:	788b      	ldrb	r3, [r1, #2]
 8002f6c:	041a      	lsls	r2, r3, #16
 8002f6e:	784b      	ldrb	r3, [r1, #1]
 8002f70:	ea42 2203 	orr.w	r2, r2, r3, lsl #8
 8002f74:	780b      	ldrb	r3, [r1, #0]
 8002f76:	4313      	orrs	r3, r2
 8002f78:	f8c7 308c 	str.w	r3, [r7, #140]	; 0x8c
 8002f7c:	e648      	b.n	8002c10 <TicTacToe_DemoGame+0x11e0>
 8002f7e:	6fb9      	ldr	r1, [r7, #120]	; 0x78
 8002f80:	461c      	mov	r4, r3
 8002f82:	f8d7 3090 	ldr.w	r3, [r7, #144]	; 0x90
 8002f86:	440b      	add	r3, r1
 8002f88:	f8c7 308c 	str.w	r3, [r7, #140]	; 0x8c
 8002f8c:	ebc1 2501 	rsb	r5, r1, r1, lsl #8
 8002f90:	ebc3 2903 	rsb	r9, r3, r3, lsl #8
 8002f94:	4626      	mov	r6, r4
 8002f96:	f8d7 30a4 	ldr.w	r3, [r7, #164]	; 0xa4
 8002f9a:	f8cd 8000 	str.w	r8, [sp]
 8002f9e:	1919      	adds	r1, r3, r4
 8002fa0:	f8d7 309c 	ldr.w	r3, [r7, #156]	; 0x9c
 8002fa4:	fbb5 f3f3 	udiv	r3, r5, r3
 8002fa8:	b2db      	uxtb	r3, r3
 8002faa:	f443 037f 	orr.w	r3, r3, #16711680	; 0xff0000
 8002fae:	f443 437f 	orr.w	r3, r3, #65280	; 0xff00
 8002fb2:	9301      	str	r3, [sp, #4]
 8002fb4:	f8d7 30a0 	ldr.w	r3, [r7, #160]	; 0xa0
 8002fb8:	4456      	add	r6, sl
 8002fba:	fbb6 f4fb 	udiv	r4, r6, fp
 8002fbe:	4423      	add	r3, r4
 8002fc0:	e9c7 2025 	strd	r2, r0, [r7, #148]	; 0x94
 8002fc4:	b289      	uxth	r1, r1
 8002fc6:	35ff      	adds	r5, #255	; 0xff
 8002fc8:	b29b      	uxth	r3, r3
 8002fca:	f001 fa2f 	bl	800442c <LCD_FillWindow>
 8002fce:	45a9      	cmp	r9, r5
 8002fd0:	e9d7 2025 	ldrd	r2, r0, [r7, #148]	; 0x94
 8002fd4:	d1df      	bne.n	8002f96 <TicTacToe_DemoGame+0x1566>
 8002fd6:	e74a      	b.n	8002e6e <TicTacToe_DemoGame+0x143e>
 8002fd8:	f8d7 a034 	ldr.w	sl, [r7, #52]	; 0x34
 8002fdc:	4683      	mov	fp, r0
 8002fde:	e54a      	b.n	8002a76 <TicTacToe_DemoGame+0x1046>
 8002fe0:	f8ba 3006 	ldrh.w	r3, [sl, #6]
 8002fe4:	f8ba 6004 	ldrh.w	r6, [sl, #4]
 8002fe8:	f8d7 902c 	ldr.w	r9, [r7, #44]	; 0x2c
 8002fec:	429e      	cmp	r6, r3
 8002fee:	bf28      	it	cs
 8002ff0:	461e      	movcs	r6, r3
 8002ff2:	6cfb      	ldr	r3, [r7, #76]	; 0x4c
 8002ff4:	2500      	movs	r5, #0
 8002ff6:	f103 0802 	add.w	r8, r3, #2
 8002ffa:	462c      	mov	r4, r5
 8002ffc:	6d3b      	ldr	r3, [r7, #80]	; 0x50
 8002ffe:	f899 1000 	ldrb.w	r1, [r9]
 8003002:	e9cd 6300 	strd	r6, r3, [sp]
 8003006:	fbb5 f3f3 	udiv	r3, r5, r3
 800300a:	b29b      	uxth	r3, r3
 800300c:	461a      	mov	r2, r3
 800300e:	4650      	mov	r0, sl
 8003010:	f7fe f824 	bl	800105c <DrawSym.constprop.3>
 8003014:	6cfa      	ldr	r2, [r7, #76]	; 0x4c
 8003016:	42a2      	cmp	r2, r4
 8003018:	44c1      	add	r9, r8
 800301a:	4435      	add	r5, r6
 800301c:	f104 0401 	add.w	r4, r4, #1
 8003020:	dcec      	bgt.n	8002ffc <TicTacToe_DemoGame+0x15cc>
 8003022:	e68e      	b.n	8002d42 <TicTacToe_DemoGame+0x1312>
 8003024:	461a      	mov	r2, r3
 8003026:	6ffb      	ldr	r3, [r7, #124]	; 0x7c
 8003028:	4413      	add	r3, r2
 800302a:	469b      	mov	fp, r3
 800302c:	f8d7 3080 	ldr.w	r3, [r7, #128]	; 0x80
 8003030:	f8d7 2090 	ldr.w	r2, [r7, #144]	; 0x90
 8003034:	3301      	adds	r3, #1
 8003036:	429a      	cmp	r2, r3
 8003038:	e9c7 b31f 	strd	fp, r3, [r7, #124]	; 0x7c
 800303c:	f47f ab7c 	bne.w	8002738 <TicTacToe_DemoGame+0xd08>
 8003040:	4b72      	ldr	r3, [pc, #456]	; (800320c <TicTacToe_DemoGame+0x17dc>)
 8003042:	6eba      	ldr	r2, [r7, #104]	; 0x68
 8003044:	429a      	cmp	r2, r3
 8003046:	f000 80b2 	beq.w	80031ae <TicTacToe_DemoGame+0x177e>
 800304a:	f1a2 0384 	sub.w	r3, r2, #132	; 0x84
 800304e:	66bb      	str	r3, [r7, #104]	; 0x68
 8003050:	f7ff bb09 	b.w	8002666 <TicTacToe_DemoGame+0xc36>
 8003054:	2900      	cmp	r1, #0
 8003056:	d07d      	beq.n	8003154 <TicTacToe_DemoGame+0x1724>
 8003058:	6ffb      	ldr	r3, [r7, #124]	; 0x7c
 800305a:	f8d7 1090 	ldr.w	r1, [r7, #144]	; 0x90
 800305e:	eb01 0b03 	add.w	fp, r1, r3
 8003062:	2600      	movs	r6, #0
 8003064:	ebcb 290b 	rsb	r9, fp, fp, lsl #8
 8003068:	f8c7 b07c 	str.w	fp, [r7, #124]	; 0x7c
 800306c:	f8d7 b058 	ldr.w	fp, [r7, #88]	; 0x58
 8003070:	ebc3 2503 	rsb	r5, r3, r3, lsl #8
 8003074:	4634      	mov	r4, r6
 8003076:	f8d7 30a4 	ldr.w	r3, [r7, #164]	; 0xa4
 800307a:	f8cd 8000 	str.w	r8, [sp]
 800307e:	1919      	adds	r1, r3, r4
 8003080:	f8d7 30a0 	ldr.w	r3, [r7, #160]	; 0xa0
 8003084:	fbb5 f3f3 	udiv	r3, r5, r3
 8003088:	b2db      	uxtb	r3, r3
 800308a:	f443 037f 	orr.w	r3, r3, #16711680	; 0xff0000
 800308e:	f443 437f 	orr.w	r3, r3, #65280	; 0xff00
 8003092:	9301      	str	r3, [sp, #4]
 8003094:	f8d7 3094 	ldr.w	r3, [r7, #148]	; 0x94
 8003098:	445e      	add	r6, fp
 800309a:	fbb6 f4fa 	udiv	r4, r6, sl
 800309e:	4423      	add	r3, r4
 80030a0:	e9c7 2026 	strd	r2, r0, [r7, #152]	; 0x98
 80030a4:	b289      	uxth	r1, r1
 80030a6:	35ff      	adds	r5, #255	; 0xff
 80030a8:	b29b      	uxth	r3, r3
 80030aa:	f001 f9bf 	bl	800442c <LCD_FillWindow>
 80030ae:	454d      	cmp	r5, r9
 80030b0:	e9d7 2026 	ldrd	r2, r0, [r7, #152]	; 0x98
 80030b4:	d1df      	bne.n	8003076 <TicTacToe_DemoGame+0x1646>
 80030b6:	f8d7 b07c 	ldr.w	fp, [r7, #124]	; 0x7c
 80030ba:	e7b7      	b.n	800302c <TicTacToe_DemoGame+0x15fc>
 80030bc:	f8d7 3084 	ldr.w	r3, [r7, #132]	; 0x84
 80030c0:	f893 b000 	ldrb.w	fp, [r3]
 80030c4:	f7ff bb47 	b.w	8002756 <TicTacToe_DemoGame+0xd26>
 80030c8:	461c      	mov	r4, r3
 80030ca:	f8d7 1090 	ldr.w	r1, [r7, #144]	; 0x90
 80030ce:	6ffb      	ldr	r3, [r7, #124]	; 0x7c
 80030d0:	eb01 0b03 	add.w	fp, r1, r3
 80030d4:	ebcb 290b 	rsb	r9, fp, fp, lsl #8
 80030d8:	f8c7 b07c 	str.w	fp, [r7, #124]	; 0x7c
 80030dc:	f8d7 b094 	ldr.w	fp, [r7, #148]	; 0x94
 80030e0:	ebc3 2503 	rsb	r5, r3, r3, lsl #8
 80030e4:	4626      	mov	r6, r4
 80030e6:	f8d7 30a4 	ldr.w	r3, [r7, #164]	; 0xa4
 80030ea:	1919      	adds	r1, r3, r4
 80030ec:	6dbb      	ldr	r3, [r7, #88]	; 0x58
 80030ee:	f8cd 8000 	str.w	r8, [sp]
 80030f2:	441e      	add	r6, r3
 80030f4:	f8d7 30a0 	ldr.w	r3, [r7, #160]	; 0xa0
 80030f8:	fbb5 f3f3 	udiv	r3, r5, r3
 80030fc:	b2db      	uxtb	r3, r3
 80030fe:	f443 037f 	orr.w	r3, r3, #16711680	; 0xff0000
 8003102:	f443 437f 	orr.w	r3, r3, #65280	; 0xff00
 8003106:	9301      	str	r3, [sp, #4]
 8003108:	fbb6 f4fa 	udiv	r4, r6, sl
 800310c:	eb0b 0304 	add.w	r3, fp, r4
 8003110:	e9c7 2026 	strd	r2, r0, [r7, #152]	; 0x98
 8003114:	b289      	uxth	r1, r1
 8003116:	35ff      	adds	r5, #255	; 0xff
 8003118:	b29b      	uxth	r3, r3
 800311a:	f001 f987 	bl	800442c <LCD_FillWindow>
 800311e:	454d      	cmp	r5, r9
 8003120:	e9d7 2026 	ldrd	r2, r0, [r7, #152]	; 0x98
 8003124:	d1df      	bne.n	80030e6 <TicTacToe_DemoGame+0x16b6>
 8003126:	f8d7 b07c 	ldr.w	fp, [r7, #124]	; 0x7c
 800312a:	e77f      	b.n	800302c <TicTacToe_DemoGame+0x15fc>
 800312c:	f8d7 3084 	ldr.w	r3, [r7, #132]	; 0x84
 8003130:	f8b3 b000 	ldrh.w	fp, [r3]
 8003134:	f7ff bb0f 	b.w	8002756 <TicTacToe_DemoGame+0xd26>
 8003138:	f8d7 2084 	ldr.w	r2, [r7, #132]	; 0x84
 800313c:	f892 b002 	ldrb.w	fp, [r2, #2]
 8003140:	7853      	ldrb	r3, [r2, #1]
 8003142:	ea4f 4b0b 	mov.w	fp, fp, lsl #16
 8003146:	ea4b 2b03 	orr.w	fp, fp, r3, lsl #8
 800314a:	7813      	ldrb	r3, [r2, #0]
 800314c:	ea4b 0b03 	orr.w	fp, fp, r3
 8003150:	f7ff bb01 	b.w	8002756 <TicTacToe_DemoGame+0xd26>
 8003154:	6ffb      	ldr	r3, [r7, #124]	; 0x7c
 8003156:	460c      	mov	r4, r1
 8003158:	f8d7 1090 	ldr.w	r1, [r7, #144]	; 0x90
 800315c:	eb01 0b03 	add.w	fp, r1, r3
 8003160:	ebc3 2503 	rsb	r5, r3, r3, lsl #8
 8003164:	ebcb 290b 	rsb	r9, fp, fp, lsl #8
 8003168:	4626      	mov	r6, r4
 800316a:	f8d7 30a4 	ldr.w	r3, [r7, #164]	; 0xa4
 800316e:	1919      	adds	r1, r3, r4
 8003170:	6dbb      	ldr	r3, [r7, #88]	; 0x58
 8003172:	f8cd 8000 	str.w	r8, [sp]
 8003176:	441e      	add	r6, r3
 8003178:	f8d7 30a0 	ldr.w	r3, [r7, #160]	; 0xa0
 800317c:	fbb5 f3f3 	udiv	r3, r5, r3
 8003180:	b2db      	uxtb	r3, r3
 8003182:	f443 037f 	orr.w	r3, r3, #16711680	; 0xff0000
 8003186:	f443 437f 	orr.w	r3, r3, #65280	; 0xff00
 800318a:	9301      	str	r3, [sp, #4]
 800318c:	f8d7 3094 	ldr.w	r3, [r7, #148]	; 0x94
 8003190:	fbb6 f4fa 	udiv	r4, r6, sl
 8003194:	4423      	add	r3, r4
 8003196:	e9c7 2026 	strd	r2, r0, [r7, #152]	; 0x98
 800319a:	b289      	uxth	r1, r1
 800319c:	35ff      	adds	r5, #255	; 0xff
 800319e:	b29b      	uxth	r3, r3
 80031a0:	f001 f944 	bl	800442c <LCD_FillWindow>
 80031a4:	454d      	cmp	r5, r9
 80031a6:	e9d7 2026 	ldrd	r2, r0, [r7, #152]	; 0x98
 80031aa:	d1de      	bne.n	800316a <TicTacToe_DemoGame+0x173a>
 80031ac:	e73e      	b.n	800302c <TicTacToe_DemoGame+0x15fc>
 80031ae:	6cfa      	ldr	r2, [r7, #76]	; 0x4c
 80031b0:	f8d7 a034 	ldr.w	sl, [r7, #52]	; 0x34
 80031b4:	6a39      	ldr	r1, [r7, #32]
 80031b6:	693e      	ldr	r6, [r7, #16]
 80031b8:	f8d7 e01c 	ldr.w	lr, [r7, #28]
 80031bc:	6bbd      	ldr	r5, [r7, #56]	; 0x38
 80031be:	f8c7 a074 	str.w	sl, [r7, #116]	; 0x74
 80031c2:	1c93      	adds	r3, r2, #2
 80031c4:	2401      	movs	r4, #1
 80031c6:	f8c7 3098 	str.w	r3, [r7, #152]	; 0x98
 80031ca:	6dfb      	ldr	r3, [r7, #92]	; 0x5c
 80031cc:	67fc      	str	r4, [r7, #124]	; 0x7c
 80031ce:	f04f 0800 	mov.w	r8, #0
 80031d2:	4683      	mov	fp, r0
 80031d4:	f8c7 4080 	str.w	r4, [r7, #128]	; 0x80
 80031d8:	6d38      	ldr	r0, [r7, #80]	; 0x50
 80031da:	f887 80ae 	strb.w	r8, [r7, #174]	; 0xae
 80031de:	43d4      	mvns	r4, r2
 80031e0:	ee07 ba90 	vmov	s15, fp
 80031e4:	f887 80ad 	strb.w	r8, [r7, #173]	; 0xad
 80031e8:	f8c7 808c 	str.w	r8, [r7, #140]	; 0x8c
 80031ec:	f8c7 8094 	str.w	r8, [r7, #148]	; 0x94
 80031f0:	f8c7 80a0 	str.w	r8, [r7, #160]	; 0xa0
 80031f4:	f8c7 809c 	str.w	r8, [r7, #156]	; 0x9c
 80031f8:	46c3      	mov	fp, r8
 80031fa:	f8c7 0088 	str.w	r0, [r7, #136]	; 0x88
 80031fe:	f8c7 0090 	str.w	r0, [r7, #144]	; 0x90
 8003202:	f8c7 4084 	str.w	r4, [r7, #132]	; 0x84
 8003206:	4698      	mov	r8, r3
 8003208:	4694      	mov	ip, r2
 800320a:	e119      	b.n	8003440 <TicTacToe_DemoGame+0x1a10>
 800320c:	ffffd42c 	.word	0xffffd42c
 8003210:	2a00      	cmp	r2, #0
 8003212:	f000 8162 	beq.w	80034da <TicTacToe_DemoGame+0x1aaa>
 8003216:	4604      	mov	r4, r0
 8003218:	2200      	movs	r2, #0
 800321a:	f04f 0a01 	mov.w	sl, #1
 800321e:	f893 9001 	ldrb.w	r9, [r3, #1]
 8003222:	f1b9 0f02 	cmp.w	r9, #2
 8003226:	d006      	beq.n	8003236 <TicTacToe_DemoGame+0x1806>
 8003228:	f1b9 0f00 	cmp.w	r9, #0
 800322c:	f040 8172 	bne.w	8003514 <TicTacToe_DemoGame+0x1ae4>
 8003230:	3c01      	subs	r4, #1
 8003232:	f04f 0a01 	mov.w	sl, #1
 8003236:	f893 9002 	ldrb.w	r9, [r3, #2]
 800323a:	f1b9 0f02 	cmp.w	r9, #2
 800323e:	f000 8108 	beq.w	8003452 <TicTacToe_DemoGame+0x1a22>
 8003242:	f1b9 0f00 	cmp.w	r9, #0
 8003246:	f040 816d 	bne.w	8003524 <TicTacToe_DemoGame+0x1af4>
 800324a:	2803      	cmp	r0, #3
 800324c:	f104 34ff 	add.w	r4, r4, #4294967295
 8003250:	bf18      	it	ne
 8003252:	f04f 0a01 	movne.w	sl, #1
 8003256:	f000 816d 	beq.w	8003534 <TicTacToe_DemoGame+0x1b04>
 800325a:	f893 9003 	ldrb.w	r9, [r3, #3]
 800325e:	f1b9 0f02 	cmp.w	r9, #2
 8003262:	f000 8173 	beq.w	800354c <TicTacToe_DemoGame+0x1b1c>
 8003266:	f1b9 0f00 	cmp.w	r9, #0
 800326a:	f040 816d 	bne.w	8003548 <TicTacToe_DemoGame+0x1b18>
 800326e:	3c01      	subs	r4, #1
 8003270:	2d04      	cmp	r5, #4
 8003272:	bf18      	it	ne
 8003274:	f04f 0a01 	movne.w	sl, #1
 8003278:	f000 815c 	beq.w	8003534 <TicTacToe_DemoGame+0x1b04>
 800327c:	f893 9004 	ldrb.w	r9, [r3, #4]
 8003280:	f1b9 0f02 	cmp.w	r9, #2
 8003284:	f000 816a 	beq.w	800355c <TicTacToe_DemoGame+0x1b2c>
 8003288:	f1b9 0f00 	cmp.w	r9, #0
 800328c:	f040 8194 	bne.w	80035b8 <TicTacToe_DemoGame+0x1b88>
 8003290:	3c01      	subs	r4, #1
 8003292:	2d05      	cmp	r5, #5
 8003294:	bf18      	it	ne
 8003296:	f04f 0a01 	movne.w	sl, #1
 800329a:	f000 814b 	beq.w	8003534 <TicTacToe_DemoGame+0x1b04>
 800329e:	f893 9005 	ldrb.w	r9, [r3, #5]
 80032a2:	f1b9 0f02 	cmp.w	r9, #2
 80032a6:	f000 8162 	beq.w	800356e <TicTacToe_DemoGame+0x1b3e>
 80032aa:	f1b9 0f00 	cmp.w	r9, #0
 80032ae:	f040 8188 	bne.w	80035c2 <TicTacToe_DemoGame+0x1b92>
 80032b2:	3c01      	subs	r4, #1
 80032b4:	2d07      	cmp	r5, #7
 80032b6:	bf08      	it	eq
 80032b8:	f04f 0a01 	moveq.w	sl, #1
 80032bc:	f040 813a 	bne.w	8003534 <TicTacToe_DemoGame+0x1b04>
 80032c0:	f893 9006 	ldrb.w	r9, [r3, #6]
 80032c4:	f1b9 0f02 	cmp.w	r9, #2
 80032c8:	f000 80c6 	beq.w	8003458 <TicTacToe_DemoGame+0x1a28>
 80032cc:	f1b9 0f00 	cmp.w	r9, #0
 80032d0:	f000 817c 	beq.w	80035cc <TicTacToe_DemoGame+0x1b9c>
 80032d4:	46d9      	mov	r9, fp
 80032d6:	f811 2f01 	ldrb.w	r2, [r1, #1]!
 80032da:	2a02      	cmp	r2, #2
 80032dc:	f000 8101 	beq.w	80034e2 <TicTacToe_DemoGame+0x1ab2>
 80032e0:	2a00      	cmp	r2, #0
 80032e2:	f000 8104 	beq.w	80034ee <TicTacToe_DemoGame+0x1abe>
 80032e6:	f8c7 00a4 	str.w	r0, [r7, #164]	; 0xa4
 80032ea:	f04f 0a00 	mov.w	sl, #0
 80032ee:	2401      	movs	r4, #1
 80032f0:	f811 b000 	ldrb.w	fp, [r1, r0]
 80032f4:	f1bb 0f02 	cmp.w	fp, #2
 80032f8:	d009      	beq.n	800330e <TicTacToe_DemoGame+0x18de>
 80032fa:	f1bb 0f00 	cmp.w	fp, #0
 80032fe:	f040 810d 	bne.w	800351c <TicTacToe_DemoGame+0x1aec>
 8003302:	f8d7 20a4 	ldr.w	r2, [r7, #164]	; 0xa4
 8003306:	3a01      	subs	r2, #1
 8003308:	f8c7 20a4 	str.w	r2, [r7, #164]	; 0xa4
 800330c:	2401      	movs	r4, #1
 800330e:	f101 0b02 	add.w	fp, r1, #2
 8003312:	f81b b01c 	ldrb.w	fp, [fp, ip, lsl #1]
 8003316:	f1bb 0f02 	cmp.w	fp, #2
 800331a:	f000 80b9 	beq.w	8003490 <TicTacToe_DemoGame+0x1a60>
 800331e:	f1bb 0f00 	cmp.w	fp, #0
 8003322:	f040 810e 	bne.w	8003542 <TicTacToe_DemoGame+0x1b12>
 8003326:	f8d7 20a4 	ldr.w	r2, [r7, #164]	; 0xa4
 800332a:	3a01      	subs	r2, #1
 800332c:	f8c7 20a4 	str.w	r2, [r7, #164]	; 0xa4
 8003330:	2803      	cmp	r0, #3
 8003332:	bf18      	it	ne
 8003334:	2401      	movne	r4, #1
 8003336:	f000 80c6 	beq.w	80034c6 <TicTacToe_DemoGame+0x1a96>
 800333a:	f8d7 2084 	ldr.w	r2, [r7, #132]	; 0x84
 800333e:	f816 b002 	ldrb.w	fp, [r6, r2]
 8003342:	f1bb 0f02 	cmp.w	fp, #2
 8003346:	f000 811f 	beq.w	8003588 <TicTacToe_DemoGame+0x1b58>
 800334a:	f1bb 0f00 	cmp.w	fp, #0
 800334e:	f040 8130 	bne.w	80035b2 <TicTacToe_DemoGame+0x1b82>
 8003352:	f8d7 20a4 	ldr.w	r2, [r7, #164]	; 0xa4
 8003356:	3a01      	subs	r2, #1
 8003358:	f8c7 20a4 	str.w	r2, [r7, #164]	; 0xa4
 800335c:	2d04      	cmp	r5, #4
 800335e:	bf18      	it	ne
 8003360:	2401      	movne	r4, #1
 8003362:	f000 80b0 	beq.w	80034c6 <TicTacToe_DemoGame+0x1a96>
 8003366:	f896 b000 	ldrb.w	fp, [r6]
 800336a:	f1bb 0f02 	cmp.w	fp, #2
 800336e:	f000 8113 	beq.w	8003598 <TicTacToe_DemoGame+0x1b68>
 8003372:	f1bb 0f00 	cmp.w	fp, #0
 8003376:	f040 8121 	bne.w	80035bc <TicTacToe_DemoGame+0x1b8c>
 800337a:	f8d7 20a4 	ldr.w	r2, [r7, #164]	; 0xa4
 800337e:	3a01      	subs	r2, #1
 8003380:	f8c7 20a4 	str.w	r2, [r7, #164]	; 0xa4
 8003384:	2d05      	cmp	r5, #5
 8003386:	bf18      	it	ne
 8003388:	2401      	movne	r4, #1
 800338a:	f000 809c 	beq.w	80034c6 <TicTacToe_DemoGame+0x1a96>
 800338e:	f816 b000 	ldrb.w	fp, [r6, r0]
 8003392:	f1bb 0f02 	cmp.w	fp, #2
 8003396:	f000 8108 	beq.w	80035aa <TicTacToe_DemoGame+0x1b7a>
 800339a:	f1bb 0f00 	cmp.w	fp, #0
 800339e:	f040 8112 	bne.w	80035c6 <TicTacToe_DemoGame+0x1b96>
 80033a2:	f8d7 20a4 	ldr.w	r2, [r7, #164]	; 0xa4
 80033a6:	3a01      	subs	r2, #1
 80033a8:	f8c7 20a4 	str.w	r2, [r7, #164]	; 0xa4
 80033ac:	2d07      	cmp	r5, #7
 80033ae:	bf08      	it	eq
 80033b0:	2401      	moveq	r4, #1
 80033b2:	f040 8088 	bne.w	80034c6 <TicTacToe_DemoGame+0x1a96>
 80033b6:	f106 0b02 	add.w	fp, r6, #2
 80033ba:	f81b b01c 	ldrb.w	fp, [fp, ip, lsl #1]
 80033be:	f1bb 0f02 	cmp.w	fp, #2
 80033c2:	d068      	beq.n	8003496 <TicTacToe_DemoGame+0x1a66>
 80033c4:	f1bb 0f00 	cmp.w	fp, #0
 80033c8:	f040 8084 	bne.w	80034d4 <TicTacToe_DemoGame+0x1aa4>
 80033cc:	f8d7 20a4 	ldr.w	r2, [r7, #164]	; 0xa4
 80033d0:	3a01      	subs	r2, #1
 80033d2:	fb0a f202 	mul.w	r2, sl, r2
 80033d6:	4591      	cmp	r9, r2
 80033d8:	bfb8      	it	lt
 80033da:	4691      	movlt	r9, r2
 80033dc:	fa5f fb89 	uxtb.w	fp, r9
 80033e0:	f898 2000 	ldrb.w	r2, [r8]
 80033e4:	2a02      	cmp	r2, #2
 80033e6:	d00a      	beq.n	80033fe <TicTacToe_DemoGame+0x19ce>
 80033e8:	2a00      	cmp	r2, #0
 80033ea:	f040 8086 	bne.w	80034fa <TicTacToe_DemoGame+0x1aca>
 80033ee:	f8d7 2090 	ldr.w	r2, [r7, #144]	; 0x90
 80033f2:	3a01      	subs	r2, #1
 80033f4:	f8c7 2090 	str.w	r2, [r7, #144]	; 0x90
 80033f8:	2201      	movs	r2, #1
 80033fa:	f8c7 2094 	str.w	r2, [r7, #148]	; 0x94
 80033fe:	f89e 2000 	ldrb.w	r2, [lr]
 8003402:	2a02      	cmp	r2, #2
 8003404:	d009      	beq.n	800341a <TicTacToe_DemoGame+0x19ea>
 8003406:	2a00      	cmp	r2, #0
 8003408:	d17e      	bne.n	8003508 <TicTacToe_DemoGame+0x1ad8>
 800340a:	f8d7 2088 	ldr.w	r2, [r7, #136]	; 0x88
 800340e:	3a01      	subs	r2, #1
 8003410:	f8c7 2088 	str.w	r2, [r7, #136]	; 0x88
 8003414:	2201      	movs	r2, #1
 8003416:	f8c7 208c 	str.w	r2, [r7, #140]	; 0x8c
 800341a:	f8d7 20a0 	ldr.w	r2, [r7, #160]	; 0xa0
 800341e:	f8d7 4098 	ldr.w	r4, [r7, #152]	; 0x98
 8003422:	3201      	adds	r2, #1
 8003424:	f8c7 20a0 	str.w	r2, [r7, #160]	; 0xa0
 8003428:	b2d2      	uxtb	r2, r2
 800342a:	4295      	cmp	r5, r2
 800342c:	4403      	add	r3, r0
 800342e:	ebae 0e0c 	sub.w	lr, lr, ip
 8003432:	44a0      	add	r8, r4
 8003434:	f106 0601 	add.w	r6, r6, #1
 8003438:	f8c7 209c 	str.w	r2, [r7, #156]	; 0x9c
 800343c:	f240 80ce 	bls.w	80035dc <TicTacToe_DemoGame+0x1bac>
 8003440:	781a      	ldrb	r2, [r3, #0]
 8003442:	2a02      	cmp	r2, #2
 8003444:	f47f aee4 	bne.w	8003210 <TicTacToe_DemoGame+0x17e0>
 8003448:	4604      	mov	r4, r0
 800344a:	f04f 0a00 	mov.w	sl, #0
 800344e:	2201      	movs	r2, #1
 8003450:	e6e5      	b.n	800321e <TicTacToe_DemoGame+0x17ee>
 8003452:	2803      	cmp	r0, #3
 8003454:	f47f af01 	bne.w	800325a <TicTacToe_DemoGame+0x182a>
 8003458:	fb02 f904 	mul.w	r9, r2, r4
 800345c:	45d9      	cmp	r9, fp
 800345e:	bfb8      	it	lt
 8003460:	46d9      	movlt	r9, fp
 8003462:	f1ba 0f00 	cmp.w	sl, #0
 8003466:	f47f af36 	bne.w	80032d6 <TicTacToe_DemoGame+0x18a6>
 800346a:	f8d7 309c 	ldr.w	r3, [r7, #156]	; 0x9c
 800346e:	f8d7 b074 	ldr.w	fp, [r7, #116]	; 0x74
 8003472:	f887 90af 	strb.w	r9, [r7, #175]	; 0xaf
 8003476:	3301      	adds	r3, #1
 8003478:	ee17 aa90 	vmov	sl, s15
 800347c:	f887 30ad 	strb.w	r3, [r7, #173]	; 0xad
 8003480:	6c7b      	ldr	r3, [r7, #68]	; 0x44
 8003482:	330a      	adds	r3, #10
 8003484:	647b      	str	r3, [r7, #68]	; 0x44
 8003486:	f107 03dc 	add.w	r3, r7, #220	; 0xdc
 800348a:	ee08 3a90 	vmov	s17, r3
 800348e:	e418      	b.n	8002cc2 <TicTacToe_DemoGame+0x1292>
 8003490:	2803      	cmp	r0, #3
 8003492:	f47f af52 	bne.w	800333a <TicTacToe_DemoGame+0x190a>
 8003496:	f8d7 20a4 	ldr.w	r2, [r7, #164]	; 0xa4
 800349a:	fb0a f202 	mul.w	r2, sl, r2
 800349e:	4591      	cmp	r9, r2
 80034a0:	bfb8      	it	lt
 80034a2:	4691      	movlt	r9, r2
 80034a4:	fa5f fb89 	uxtb.w	fp, r9
 80034a8:	2c00      	cmp	r4, #0
 80034aa:	d199      	bne.n	80033e0 <TicTacToe_DemoGame+0x19b0>
 80034ac:	f8d7 309c 	ldr.w	r3, [r7, #156]	; 0x9c
 80034b0:	46d8      	mov	r8, fp
 80034b2:	3301      	adds	r3, #1
 80034b4:	ee17 aa90 	vmov	sl, s15
 80034b8:	f8d7 b074 	ldr.w	fp, [r7, #116]	; 0x74
 80034bc:	f887 80af 	strb.w	r8, [r7, #175]	; 0xaf
 80034c0:	f887 30ae 	strb.w	r3, [r7, #174]	; 0xae
 80034c4:	e7dc      	b.n	8003480 <TicTacToe_DemoGame+0x1a50>
 80034c6:	f8d7 20a4 	ldr.w	r2, [r7, #164]	; 0xa4
 80034ca:	fb02 f20a 	mul.w	r2, r2, sl
 80034ce:	4591      	cmp	r9, r2
 80034d0:	bfb8      	it	lt
 80034d2:	4691      	movlt	r9, r2
 80034d4:	fa5f fb89 	uxtb.w	fp, r9
 80034d8:	e782      	b.n	80033e0 <TicTacToe_DemoGame+0x19b0>
 80034da:	2201      	movs	r2, #1
 80034dc:	4664      	mov	r4, ip
 80034de:	4692      	mov	sl, r2
 80034e0:	e69d      	b.n	800321e <TicTacToe_DemoGame+0x17ee>
 80034e2:	f8c7 00a4 	str.w	r0, [r7, #164]	; 0xa4
 80034e6:	2400      	movs	r4, #0
 80034e8:	f04f 0a01 	mov.w	sl, #1
 80034ec:	e700      	b.n	80032f0 <TicTacToe_DemoGame+0x18c0>
 80034ee:	f04f 0a01 	mov.w	sl, #1
 80034f2:	f8c7 c0a4 	str.w	ip, [r7, #164]	; 0xa4
 80034f6:	4654      	mov	r4, sl
 80034f8:	e6fa      	b.n	80032f0 <TicTacToe_DemoGame+0x18c0>
 80034fa:	2200      	movs	r2, #0
 80034fc:	f8c7 2080 	str.w	r2, [r7, #128]	; 0x80
 8003500:	2201      	movs	r2, #1
 8003502:	f8c7 2094 	str.w	r2, [r7, #148]	; 0x94
 8003506:	e77a      	b.n	80033fe <TicTacToe_DemoGame+0x19ce>
 8003508:	2200      	movs	r2, #0
 800350a:	67fa      	str	r2, [r7, #124]	; 0x7c
 800350c:	2201      	movs	r2, #1
 800350e:	f8c7 208c 	str.w	r2, [r7, #140]	; 0x8c
 8003512:	e782      	b.n	800341a <TicTacToe_DemoGame+0x19ea>
 8003514:	2200      	movs	r2, #0
 8003516:	f04f 0a01 	mov.w	sl, #1
 800351a:	e68c      	b.n	8003236 <TicTacToe_DemoGame+0x1806>
 800351c:	f04f 0a00 	mov.w	sl, #0
 8003520:	2401      	movs	r4, #1
 8003522:	e6f4      	b.n	800330e <TicTacToe_DemoGame+0x18de>
 8003524:	2803      	cmp	r0, #3
 8003526:	f04f 0200 	mov.w	r2, #0
 800352a:	bf18      	it	ne
 800352c:	f04f 0a01 	movne.w	sl, #1
 8003530:	f47f ae93 	bne.w	800325a <TicTacToe_DemoGame+0x182a>
 8003534:	fb04 f202 	mul.w	r2, r4, r2
 8003538:	455a      	cmp	r2, fp
 800353a:	bfb8      	it	lt
 800353c:	465a      	movlt	r2, fp
 800353e:	4691      	mov	r9, r2
 8003540:	e6c9      	b.n	80032d6 <TicTacToe_DemoGame+0x18a6>
 8003542:	f04f 0a00 	mov.w	sl, #0
 8003546:	e6f3      	b.n	8003330 <TicTacToe_DemoGame+0x1900>
 8003548:	2200      	movs	r2, #0
 800354a:	e691      	b.n	8003270 <TicTacToe_DemoGame+0x1840>
 800354c:	2d04      	cmp	r5, #4
 800354e:	d083      	beq.n	8003458 <TicTacToe_DemoGame+0x1a28>
 8003550:	f893 9004 	ldrb.w	r9, [r3, #4]
 8003554:	f1b9 0f02 	cmp.w	r9, #2
 8003558:	f47f ae96 	bne.w	8003288 <TicTacToe_DemoGame+0x1858>
 800355c:	2d05      	cmp	r5, #5
 800355e:	f43f af7b 	beq.w	8003458 <TicTacToe_DemoGame+0x1a28>
 8003562:	f893 9005 	ldrb.w	r9, [r3, #5]
 8003566:	f1b9 0f02 	cmp.w	r9, #2
 800356a:	f47f ae9e 	bne.w	80032aa <TicTacToe_DemoGame+0x187a>
 800356e:	2d07      	cmp	r5, #7
 8003570:	f43f aea6 	beq.w	80032c0 <TicTacToe_DemoGame+0x1890>
 8003574:	fb02 f904 	mul.w	r9, r2, r4
 8003578:	45d9      	cmp	r9, fp
 800357a:	bfb8      	it	lt
 800357c:	46d9      	movlt	r9, fp
 800357e:	f1ba 0f00 	cmp.w	sl, #0
 8003582:	f47f aea8 	bne.w	80032d6 <TicTacToe_DemoGame+0x18a6>
 8003586:	e770      	b.n	800346a <TicTacToe_DemoGame+0x1a3a>
 8003588:	2d04      	cmp	r5, #4
 800358a:	d084      	beq.n	8003496 <TicTacToe_DemoGame+0x1a66>
 800358c:	f896 b000 	ldrb.w	fp, [r6]
 8003590:	f1bb 0f02 	cmp.w	fp, #2
 8003594:	f47f aeed 	bne.w	8003372 <TicTacToe_DemoGame+0x1942>
 8003598:	2d05      	cmp	r5, #5
 800359a:	f43f af7c 	beq.w	8003496 <TicTacToe_DemoGame+0x1a66>
 800359e:	f816 b000 	ldrb.w	fp, [r6, r0]
 80035a2:	f1bb 0f02 	cmp.w	fp, #2
 80035a6:	f47f aef8 	bne.w	800339a <TicTacToe_DemoGame+0x196a>
 80035aa:	2d07      	cmp	r5, #7
 80035ac:	f43f af03 	beq.w	80033b6 <TicTacToe_DemoGame+0x1986>
 80035b0:	e771      	b.n	8003496 <TicTacToe_DemoGame+0x1a66>
 80035b2:	f04f 0a00 	mov.w	sl, #0
 80035b6:	e6d1      	b.n	800335c <TicTacToe_DemoGame+0x192c>
 80035b8:	2200      	movs	r2, #0
 80035ba:	e66a      	b.n	8003292 <TicTacToe_DemoGame+0x1862>
 80035bc:	f04f 0a00 	mov.w	sl, #0
 80035c0:	e6e0      	b.n	8003384 <TicTacToe_DemoGame+0x1954>
 80035c2:	2200      	movs	r2, #0
 80035c4:	e676      	b.n	80032b4 <TicTacToe_DemoGame+0x1884>
 80035c6:	f04f 0a00 	mov.w	sl, #0
 80035ca:	e6ef      	b.n	80033ac <TicTacToe_DemoGame+0x197c>
 80035cc:	3c01      	subs	r4, #1
 80035ce:	fb02 f404 	mul.w	r4, r2, r4
 80035d2:	455c      	cmp	r4, fp
 80035d4:	bfb8      	it	lt
 80035d6:	465c      	movlt	r4, fp
 80035d8:	46a1      	mov	r9, r4
 80035da:	e67c      	b.n	80032d6 <TicTacToe_DemoGame+0x18a6>
 80035dc:	f8d7 2090 	ldr.w	r2, [r7, #144]	; 0x90
 80035e0:	f8d7 3080 	ldr.w	r3, [r7, #128]	; 0x80
 80035e4:	f8d7 1088 	ldr.w	r1, [r7, #136]	; 0x88
 80035e8:	f8d7 a074 	ldr.w	sl, [r7, #116]	; 0x74
 80035ec:	fb02 f303 	mul.w	r3, r2, r3
 80035f0:	6ffa      	ldr	r2, [r7, #124]	; 0x7c
 80035f2:	fb01 f202 	mul.w	r2, r1, r2
 80035f6:	4293      	cmp	r3, r2
 80035f8:	bfb8      	it	lt
 80035fa:	4613      	movlt	r3, r2
 80035fc:	4599      	cmp	r9, r3
 80035fe:	bfb8      	it	lt
 8003600:	4699      	movlt	r9, r3
 8003602:	f8d7 3094 	ldr.w	r3, [r7, #148]	; 0x94
 8003606:	f887 90af 	strb.w	r9, [r7, #175]	; 0xaf
 800360a:	ee17 ba90 	vmov	fp, s15
 800360e:	b173      	cbz	r3, 800362e <TicTacToe_DemoGame+0x1bfe>
 8003610:	f8d7 308c 	ldr.w	r3, [r7, #140]	; 0x8c
 8003614:	2b00      	cmp	r3, #0
 8003616:	f47e af88 	bne.w	800252a <TicTacToe_DemoGame+0xafa>
 800361a:	4653      	mov	r3, sl
 800361c:	469b      	mov	fp, r3
 800361e:	2302      	movs	r3, #2
 8003620:	ee17 aa90 	vmov	sl, s15
 8003624:	f887 30ae 	strb.w	r3, [r7, #174]	; 0xae
 8003628:	f887 30ad 	strb.w	r3, [r7, #173]	; 0xad
 800362c:	e728      	b.n	8003480 <TicTacToe_DemoGame+0x1a50>
 800362e:	4653      	mov	r3, sl
 8003630:	469b      	mov	fp, r3
 8003632:	2301      	movs	r3, #1
 8003634:	ee17 aa90 	vmov	sl, s15
 8003638:	f887 30ae 	strb.w	r3, [r7, #174]	; 0xae
 800363c:	f887 30ad 	strb.w	r3, [r7, #173]	; 0xad
 8003640:	e71e      	b.n	8003480 <TicTacToe_DemoGame+0x1a50>
 8003642:	2b03      	cmp	r3, #3
 8003644:	bf0c      	ite	eq
 8003646:	2303      	moveq	r3, #3
 8003648:	2301      	movne	r3, #1
 800364a:	62bb      	str	r3, [r7, #40]	; 0x28
 800364c:	f7fe bdda 	b.w	8002204 <TicTacToe_DemoGame+0x7d4>
 8003650:	2301      	movs	r3, #1
 8003652:	62bb      	str	r3, [r7, #40]	; 0x28
 8003654:	f7fe bdd6 	b.w	8002204 <TicTacToe_DemoGame+0x7d4>

08003658 <SystemClock_Config>:
 8003658:	4a2c      	ldr	r2, [pc, #176]	; (800370c <SystemClock_Config+0xb4>)
 800365a:	6813      	ldr	r3, [r2, #0]
 800365c:	f023 0307 	bic.w	r3, r3, #7
 8003660:	f043 0302 	orr.w	r3, r3, #2
 8003664:	b510      	push	{r4, lr}
 8003666:	6013      	str	r3, [r2, #0]
 8003668:	6813      	ldr	r3, [r2, #0]
 800366a:	f003 0307 	and.w	r3, r3, #7
 800366e:	2b02      	cmp	r3, #2
 8003670:	d1fa      	bne.n	8003668 <SystemClock_Config+0x10>
 8003672:	4927      	ldr	r1, [pc, #156]	; (8003710 <SystemClock_Config+0xb8>)
 8003674:	4b27      	ldr	r3, [pc, #156]	; (8003714 <SystemClock_Config+0xbc>)
 8003676:	680a      	ldr	r2, [r1, #0]
 8003678:	f422 4240 	bic.w	r2, r2, #49152	; 0xc000
 800367c:	f442 4200 	orr.w	r2, r2, #32768	; 0x8000
 8003680:	600a      	str	r2, [r1, #0]
 8003682:	681a      	ldr	r2, [r3, #0]
 8003684:	f442 3280 	orr.w	r2, r2, #65536	; 0x10000
 8003688:	601a      	str	r2, [r3, #0]
 800368a:	681a      	ldr	r2, [r3, #0]
 800368c:	0392      	lsls	r2, r2, #14
 800368e:	d5fc      	bpl.n	800368a <SystemClock_Config+0x32>
 8003690:	681a      	ldr	r2, [r3, #0]
 8003692:	4921      	ldr	r1, [pc, #132]	; (8003718 <SystemClock_Config+0xc0>)
 8003694:	f442 2200 	orr.w	r2, r2, #524288	; 0x80000
 8003698:	601a      	str	r2, [r3, #0]
 800369a:	6858      	ldr	r0, [r3, #4]
 800369c:	4a1f      	ldr	r2, [pc, #124]	; (800371c <SystemClock_Config+0xc4>)
 800369e:	4001      	ands	r1, r0
 80036a0:	430a      	orrs	r2, r1
 80036a2:	605a      	str	r2, [r3, #4]
 80036a4:	6859      	ldr	r1, [r3, #4]
 80036a6:	4a1b      	ldr	r2, [pc, #108]	; (8003714 <SystemClock_Config+0xbc>)
 80036a8:	f421 3140 	bic.w	r1, r1, #196608	; 0x30000
 80036ac:	6059      	str	r1, [r3, #4]
 80036ae:	6819      	ldr	r1, [r3, #0]
 80036b0:	f041 7180 	orr.w	r1, r1, #16777216	; 0x1000000
 80036b4:	6019      	str	r1, [r3, #0]
 80036b6:	6813      	ldr	r3, [r2, #0]
 80036b8:	019b      	lsls	r3, r3, #6
 80036ba:	d5fc      	bpl.n	80036b6 <SystemClock_Config+0x5e>
 80036bc:	6893      	ldr	r3, [r2, #8]
 80036be:	4c15      	ldr	r4, [pc, #84]	; (8003714 <SystemClock_Config+0xbc>)
 80036c0:	f023 03f0 	bic.w	r3, r3, #240	; 0xf0
 80036c4:	6093      	str	r3, [r2, #8]
 80036c6:	6893      	ldr	r3, [r2, #8]
 80036c8:	f423 53e0 	bic.w	r3, r3, #7168	; 0x1c00
 80036cc:	f443 5380 	orr.w	r3, r3, #4096	; 0x1000
 80036d0:	6093      	str	r3, [r2, #8]
 80036d2:	6893      	ldr	r3, [r2, #8]
 80036d4:	f423 4360 	bic.w	r3, r3, #57344	; 0xe000
 80036d8:	6093      	str	r3, [r2, #8]
 80036da:	6893      	ldr	r3, [r2, #8]
 80036dc:	f023 0303 	bic.w	r3, r3, #3
 80036e0:	f043 0302 	orr.w	r3, r3, #2
 80036e4:	6093      	str	r3, [r2, #8]
 80036e6:	68a3      	ldr	r3, [r4, #8]
 80036e8:	f003 030c 	and.w	r3, r3, #12
 80036ec:	2b08      	cmp	r3, #8
 80036ee:	d1fa      	bne.n	80036e6 <SystemClock_Config+0x8e>
 80036f0:	480b      	ldr	r0, [pc, #44]	; (8003720 <SystemClock_Config+0xc8>)
 80036f2:	f001 fc9d 	bl	8005030 <LL_Init1msTick>
 80036f6:	480a      	ldr	r0, [pc, #40]	; (8003720 <SystemClock_Config+0xc8>)
 80036f8:	f001 fcbc 	bl	8005074 <LL_SetSystemCoreClock>
 80036fc:	f8d4 308c 	ldr.w	r3, [r4, #140]	; 0x8c
 8003700:	f023 7380 	bic.w	r3, r3, #16777216	; 0x1000000
 8003704:	f8c4 308c 	str.w	r3, [r4, #140]	; 0x8c
 8003708:	bd10      	pop	{r4, pc}
 800370a:	bf00      	nop
 800370c:	40023c00 	.word	0x40023c00
 8003710:	40007000 	.word	0x40007000
 8003714:	40023800 	.word	0x40023800
 8003718:	ffbf8000 	.word	0xffbf8000
 800371c:	00402a19 	.word	0x00402a19
 8003720:	0501bd00 	.word	0x0501bd00
 8003724:	00000000 	.word	0x00000000

08003728 <main>:
 8003728:	e92d 4ff0 	stmdb	sp!, {r4, r5, r6, r7, r8, r9, sl, fp, lr}
 800372c:	4abc      	ldr	r2, [pc, #752]	; (8003a20 <main+0x2f8>)
 800372e:	4bbd      	ldr	r3, [pc, #756]	; (8003a24 <main+0x2fc>)
 8003730:	6811      	ldr	r1, [r2, #0]
 8003732:	f441 7100 	orr.w	r1, r1, #512	; 0x200
 8003736:	ed2d 8b02 	vpush	{d8}
 800373a:	6011      	str	r1, [r2, #0]
 800373c:	6811      	ldr	r1, [r2, #0]
 800373e:	f441 6180 	orr.w	r1, r1, #1024	; 0x400
 8003742:	6011      	str	r1, [r2, #0]
 8003744:	6811      	ldr	r1, [r2, #0]
 8003746:	f441 7180 	orr.w	r1, r1, #256	; 0x100
 800374a:	6011      	str	r1, [r2, #0]
 800374c:	6c59      	ldr	r1, [r3, #68]	; 0x44
 800374e:	4ab6      	ldr	r2, [pc, #728]	; (8003a28 <main+0x300>)
 8003750:	f441 4180 	orr.w	r1, r1, #16384	; 0x4000
 8003754:	6459      	str	r1, [r3, #68]	; 0x44
 8003756:	6c59      	ldr	r1, [r3, #68]	; 0x44
 8003758:	f2ad 7d9c 	subw	sp, sp, #1948	; 0x79c
 800375c:	f401 4180 	and.w	r1, r1, #16384	; 0x4000
 8003760:	9112      	str	r1, [sp, #72]	; 0x48
 8003762:	9912      	ldr	r1, [sp, #72]	; 0x48
 8003764:	6c18      	ldr	r0, [r3, #64]	; 0x40
 8003766:	f040 5080 	orr.w	r0, r0, #268435456	; 0x10000000
 800376a:	6418      	str	r0, [r3, #64]	; 0x40
 800376c:	6c1b      	ldr	r3, [r3, #64]	; 0x40
 800376e:	f003 5380 	and.w	r3, r3, #268435456	; 0x10000000
 8003772:	9311      	str	r3, [sp, #68]	; 0x44
 8003774:	9b11      	ldr	r3, [sp, #68]	; 0x44
 8003776:	68d1      	ldr	r1, [r2, #12]
 8003778:	4bac      	ldr	r3, [pc, #688]	; (8003a2c <main+0x304>)
 800377a:	f64f 04ff 	movw	r4, #63743	; 0xf8ff
 800377e:	4021      	ands	r1, r4
 8003780:	430b      	orrs	r3, r1
 8003782:	60d3      	str	r3, [r2, #12]
 8003784:	68d2      	ldr	r2, [r2, #12]
 8003786:	4ca8      	ldr	r4, [pc, #672]	; (8003a28 <main+0x300>)
 8003788:	f3c2 2202 	ubfx	r2, r2, #8, #3
 800378c:	f1c2 0107 	rsb	r1, r2, #7
 8003790:	1d13      	adds	r3, r2, #4
 8003792:	2904      	cmp	r1, #4
 8003794:	bf28      	it	cs
 8003796:	2104      	movcs	r1, #4
 8003798:	2b06      	cmp	r3, #6
 800379a:	f04f 33ff 	mov.w	r3, #4294967295
 800379e:	fa03 f301 	lsl.w	r3, r3, r1
 80037a2:	bf8c      	ite	hi
 80037a4:	3a03      	subhi	r2, #3
 80037a6:	2200      	movls	r2, #0
 80037a8:	43db      	mvns	r3, r3
 80037aa:	4093      	lsls	r3, r2
 80037ac:	011b      	lsls	r3, r3, #4
 80037ae:	b2db      	uxtb	r3, r3
 80037b0:	f884 3023 	strb.w	r3, [r4, #35]	; 0x23
 80037b4:	f7ff ff50 	bl	8003658 <SystemClock_Config>
 80037b8:	4b9d      	ldr	r3, [pc, #628]	; (8003a30 <main+0x308>)
 80037ba:	4a9e      	ldr	r2, [pc, #632]	; (8003a34 <main+0x30c>)
 80037bc:	681b      	ldr	r3, [r3, #0]
 80037be:	fba2 2303 	umull	r2, r3, r2, r3
 80037c2:	099b      	lsrs	r3, r3, #6
 80037c4:	3b01      	subs	r3, #1
 80037c6:	f1b3 7f80 	cmp.w	r3, #16777216	; 0x1000000
 80037ca:	d209      	bcs.n	80037e0 <main+0xb8>
 80037cc:	f04f 22e0 	mov.w	r2, #3758153728	; 0xe000e000
 80037d0:	20f0      	movs	r0, #240	; 0xf0
 80037d2:	6153      	str	r3, [r2, #20]
 80037d4:	2100      	movs	r1, #0
 80037d6:	2307      	movs	r3, #7
 80037d8:	f884 0023 	strb.w	r0, [r4, #35]	; 0x23
 80037dc:	6191      	str	r1, [r2, #24]
 80037de:	6113      	str	r3, [r2, #16]
 80037e0:	2500      	movs	r5, #0
 80037e2:	e9cd 5530 	strd	r5, r5, [sp, #192]	; 0xc0
 80037e6:	e9cd 5555 	strd	r5, r5, [sp, #340]	; 0x154
 80037ea:	4a8e      	ldr	r2, [pc, #568]	; (8003a24 <main+0x2fc>)
 80037ec:	9557      	str	r5, [sp, #348]	; 0x15c
 80037ee:	6b13      	ldr	r3, [r2, #48]	; 0x30
 80037f0:	4e91      	ldr	r6, [pc, #580]	; (8003a38 <main+0x310>)
 80037f2:	4892      	ldr	r0, [pc, #584]	; (8003a3c <main+0x314>)
 80037f4:	f043 0380 	orr.w	r3, r3, #128	; 0x80
 80037f8:	6313      	str	r3, [r2, #48]	; 0x30
 80037fa:	6b13      	ldr	r3, [r2, #48]	; 0x30
 80037fc:	f003 0380 	and.w	r3, r3, #128	; 0x80
 8003800:	9319      	str	r3, [sp, #100]	; 0x64
 8003802:	9b19      	ldr	r3, [sp, #100]	; 0x64
 8003804:	6b13      	ldr	r3, [r2, #48]	; 0x30
 8003806:	f043 0301 	orr.w	r3, r3, #1
 800380a:	6313      	str	r3, [r2, #48]	; 0x30
 800380c:	6b13      	ldr	r3, [r2, #48]	; 0x30
 800380e:	f003 0301 	and.w	r3, r3, #1
 8003812:	931a      	str	r3, [sp, #104]	; 0x68
 8003814:	9b1a      	ldr	r3, [sp, #104]	; 0x68
 8003816:	6b13      	ldr	r3, [r2, #48]	; 0x30
 8003818:	f043 0302 	orr.w	r3, r3, #2
 800381c:	6313      	str	r3, [r2, #48]	; 0x30
 800381e:	6b13      	ldr	r3, [r2, #48]	; 0x30
 8003820:	f003 0302 	and.w	r3, r3, #2
 8003824:	931b      	str	r3, [sp, #108]	; 0x6c
 8003826:	9b1b      	ldr	r3, [sp, #108]	; 0x6c
 8003828:	2702      	movs	r7, #2
 800382a:	231c      	movs	r3, #28
 800382c:	6183      	str	r3, [r0, #24]
 800382e:	a952      	add	r1, sp, #328	; 0x148
 8003830:	61b7      	str	r7, [r6, #24]
 8003832:	221c      	movs	r2, #28
 8003834:	2301      	movs	r3, #1
 8003836:	e9cd 2352 	strd	r2, r3, [sp, #328]	; 0x148
 800383a:	9754      	str	r7, [sp, #336]	; 0x150
 800383c:	f001 f970 	bl	8004b20 <LL_GPIO_Init>
 8003840:	2202      	movs	r2, #2
 8003842:	2301      	movs	r3, #1
 8003844:	e9cd 2352 	strd	r2, r3, [sp, #328]	; 0x148
 8003848:	a952      	add	r1, sp, #328	; 0x148
 800384a:	2202      	movs	r2, #2
 800384c:	2300      	movs	r3, #0
 800384e:	4630      	mov	r0, r6
 8003850:	e9cd 2354 	strd	r2, r3, [sp, #336]	; 0x150
 8003854:	9556      	str	r5, [sp, #344]	; 0x158
 8003856:	f001 f963 	bl	8004b20 <LL_GPIO_Init>
 800385a:	4979      	ldr	r1, [pc, #484]	; (8003a40 <main+0x318>)
 800385c:	230f      	movs	r3, #15
 800385e:	688a      	ldr	r2, [r1, #8]
 8003860:	fa93 f3a3 	rbit	r3, r3
 8003864:	2401      	movs	r4, #1
 8003866:	fab3 f383 	clz	r3, r3
 800386a:	f022 020f 	bic.w	r2, r2, #15
 800386e:	fa04 f303 	lsl.w	r3, r4, r3
 8003872:	4313      	orrs	r3, r2
 8003874:	608b      	str	r3, [r1, #8]
 8003876:	a830      	add	r0, sp, #192	; 0xc0
 8003878:	f88d 70c6 	strb.w	r7, [sp, #198]	; 0xc6
 800387c:	9430      	str	r4, [sp, #192]	; 0xc0
 800387e:	f8ad 40c4 	strh.w	r4, [sp, #196]	; 0xc4
 8003882:	f001 f8ed 	bl	8004a60 <LL_EXTI_Init>
 8003886:	68f1      	ldr	r1, [r6, #12]
 8003888:	fa94 f2a4 	rbit	r2, r4
 800388c:	fab2 f282 	clz	r2, r2
 8003890:	fa94 f3a4 	rbit	r3, r4
 8003894:	2003      	movs	r0, #3
 8003896:	40a2      	lsls	r2, r4
 8003898:	fab3 f383 	clz	r3, r3
 800389c:	40a3      	lsls	r3, r4
 800389e:	fa00 f202 	lsl.w	r2, r0, r2
 80038a2:	ea21 0202 	bic.w	r2, r1, r2
 80038a6:	fa04 f303 	lsl.w	r3, r4, r3
 80038aa:	4313      	orrs	r3, r2
 80038ac:	60f3      	str	r3, [r6, #12]
 80038ae:	6832      	ldr	r2, [r6, #0]
 80038b0:	fa94 f3a4 	rbit	r3, r4
 80038b4:	fab3 f383 	clz	r3, r3
 80038b8:	40a3      	lsls	r3, r4
 80038ba:	fa00 f303 	lsl.w	r3, r0, r3
 80038be:	ea22 0303 	bic.w	r3, r2, r3
 80038c2:	fa94 f4a4 	rbit	r4, r4
 80038c6:	6033      	str	r3, [r6, #0]
 80038c8:	4b57      	ldr	r3, [pc, #348]	; (8003a28 <main+0x300>)
 80038ca:	f8df 8170 	ldr.w	r8, [pc, #368]	; 8003a3c <main+0x314>
 80038ce:	68db      	ldr	r3, [r3, #12]
 80038d0:	f8df b17c 	ldr.w	fp, [pc, #380]	; 8003a50 <main+0x328>
 80038d4:	4f5b      	ldr	r7, [pc, #364]	; (8003a44 <main+0x31c>)
 80038d6:	f3c3 2302 	ubfx	r3, r3, #8, #3
 80038da:	f1c3 0207 	rsb	r2, r3, #7
 80038de:	2a04      	cmp	r2, #4
 80038e0:	f103 0104 	add.w	r1, r3, #4
 80038e4:	bf28      	it	cs
 80038e6:	2204      	movcs	r2, #4
 80038e8:	2906      	cmp	r1, #6
 80038ea:	bf88      	it	hi
 80038ec:	1edd      	subhi	r5, r3, #3
 80038ee:	f04f 33ff 	mov.w	r3, #4294967295
 80038f2:	4093      	lsls	r3, r2
 80038f4:	43db      	mvns	r3, r3
 80038f6:	f003 0304 	and.w	r3, r3, #4
 80038fa:	40ab      	lsls	r3, r5
 80038fc:	4952      	ldr	r1, [pc, #328]	; (8003a48 <main+0x320>)
 80038fe:	4a49      	ldr	r2, [pc, #292]	; (8003a24 <main+0x2fc>)
 8003900:	4d48      	ldr	r5, [pc, #288]	; (8003a24 <main+0x2fc>)
 8003902:	011b      	lsls	r3, r3, #4
 8003904:	b2db      	uxtb	r3, r3
 8003906:	2040      	movs	r0, #64	; 0x40
 8003908:	f881 3306 	strb.w	r3, [r1, #774]	; 0x306
 800390c:	6008      	str	r0, [r1, #0]
 800390e:	6b13      	ldr	r3, [r2, #48]	; 0x30
 8003910:	f443 0380 	orr.w	r3, r3, #4194304	; 0x400000
 8003914:	6313      	str	r3, [r2, #48]	; 0x30
 8003916:	6b13      	ldr	r3, [r2, #48]	; 0x30
 8003918:	f403 0380 	and.w	r3, r3, #4194304	; 0x400000
 800391c:	9318      	str	r3, [sp, #96]	; 0x60
 800391e:	4b42      	ldr	r3, [pc, #264]	; (8003a28 <main+0x300>)
 8003920:	9a18      	ldr	r2, [sp, #96]	; 0x60
 8003922:	68da      	ldr	r2, [r3, #12]
 8003924:	f3c2 2202 	ubfx	r2, r2, #8, #3
 8003928:	f1c2 0107 	rsb	r1, r2, #7
 800392c:	1d13      	adds	r3, r2, #4
 800392e:	2904      	cmp	r1, #4
 8003930:	bf28      	it	cs
 8003932:	2104      	movcs	r1, #4
 8003934:	2b06      	cmp	r3, #6
 8003936:	f04f 33ff 	mov.w	r3, #4294967295
 800393a:	fa03 f301 	lsl.w	r3, r3, r1
 800393e:	ea6f 0303 	mvn.w	r3, r3
 8003942:	bf8c      	ite	hi
 8003944:	3a03      	subhi	r2, #3
 8003946:	2200      	movls	r2, #0
 8003948:	f003 0303 	and.w	r3, r3, #3
 800394c:	4093      	lsls	r3, r2
 800394e:	011b      	lsls	r3, r3, #4
 8003950:	4a3d      	ldr	r2, [pc, #244]	; (8003a48 <main+0x320>)
 8003952:	b2db      	uxtb	r3, r3
 8003954:	f04f 6100 	mov.w	r1, #134217728	; 0x8000000
 8003958:	2600      	movs	r6, #0
 800395a:	f882 333b 	strb.w	r3, [r2, #827]	; 0x33b
 800395e:	a852      	add	r0, sp, #328	; 0x148
 8003960:	6051      	str	r1, [r2, #4]
 8003962:	2228      	movs	r2, #40	; 0x28
 8003964:	2100      	movs	r1, #0
 8003966:	f009 fc2b 	bl	800d1c0 <memset>
 800396a:	e9cd 6633 	strd	r6, r6, [sp, #204]	; 0xcc
 800396e:	6c6b      	ldr	r3, [r5, #68]	; 0x44
 8003970:	f443 5380 	orr.w	r3, r3, #4096	; 0x1000
 8003974:	646b      	str	r3, [r5, #68]	; 0x44
 8003976:	6c6b      	ldr	r3, [r5, #68]	; 0x44
 8003978:	f403 5380 	and.w	r3, r3, #4096	; 0x1000
 800397c:	9315      	str	r3, [sp, #84]	; 0x54
 800397e:	9b15      	ldr	r3, [sp, #84]	; 0x54
 8003980:	6b2b      	ldr	r3, [r5, #48]	; 0x30
 8003982:	f043 0301 	orr.w	r3, r3, #1
 8003986:	632b      	str	r3, [r5, #48]	; 0x30
 8003988:	6b2b      	ldr	r3, [r5, #48]	; 0x30
 800398a:	f003 0301 	and.w	r3, r3, #1
 800398e:	9316      	str	r3, [sp, #88]	; 0x58
 8003990:	9b16      	ldr	r3, [sp, #88]	; 0x58
 8003992:	6b2b      	ldr	r3, [r5, #48]	; 0x30
 8003994:	f043 0302 	orr.w	r3, r3, #2
 8003998:	632b      	str	r3, [r5, #48]	; 0x30
 800399a:	6b2b      	ldr	r3, [r5, #48]	; 0x30
 800399c:	f003 0302 	and.w	r3, r3, #2
 80039a0:	9317      	str	r3, [sp, #92]	; 0x5c
 80039a2:	9b17      	ldr	r3, [sp, #92]	; 0x5c
 80039a4:	2305      	movs	r3, #5
 80039a6:	9335      	str	r3, [sp, #212]	; 0xd4
 80039a8:	f24c 3350 	movw	r3, #50000	; 0xc350
 80039ac:	f04f 0a03 	mov.w	sl, #3
 80039b0:	22a0      	movs	r2, #160	; 0xa0
 80039b2:	a930      	add	r1, sp, #192	; 0xc0
 80039b4:	4640      	mov	r0, r8
 80039b6:	930f      	str	r3, [sp, #60]	; 0x3c
 80039b8:	2302      	movs	r3, #2
 80039ba:	e9cd 2330 	strd	r2, r3, [sp, #192]	; 0xc0
 80039be:	f8cd a0c8 	str.w	sl, [sp, #200]	; 0xc8
 80039c2:	f001 f8ad 	bl	8004b20 <LL_GPIO_Init>
 80039c6:	2210      	movs	r2, #16
 80039c8:	2302      	movs	r3, #2
 80039ca:	e9cd 2330 	strd	r2, r3, [sp, #192]	; 0xc0
 80039ce:	2203      	movs	r2, #3
 80039d0:	2300      	movs	r3, #0
 80039d2:	e9cd 2332 	strd	r2, r3, [sp, #200]	; 0xc8
 80039d6:	a930      	add	r1, sp, #192	; 0xc0
 80039d8:	2200      	movs	r2, #0
 80039da:	2305      	movs	r3, #5
 80039dc:	4816      	ldr	r0, [pc, #88]	; (8003a38 <main+0x310>)
 80039de:	e9cd 2334 	strd	r2, r3, [sp, #208]	; 0xd0
 80039e2:	f001 f89d 	bl	8004b20 <LL_GPIO_Init>
 80039e6:	4b19      	ldr	r3, [pc, #100]	; (8003a4c <main+0x324>)
 80039e8:	6d9a      	ldr	r2, [r3, #88]	; 0x58
 80039ea:	f022 6260 	bic.w	r2, r2, #234881024	; 0xe000000
 80039ee:	f042 62c0 	orr.w	r2, r2, #100663296	; 0x6000000
 80039f2:	659a      	str	r2, [r3, #88]	; 0x58
 80039f4:	6d9a      	ldr	r2, [r3, #88]	; 0x58
 80039f6:	f022 02c0 	bic.w	r2, r2, #192	; 0xc0
 80039fa:	f042 0240 	orr.w	r2, r2, #64	; 0x40
 80039fe:	659a      	str	r2, [r3, #88]	; 0x58
 8003a00:	6d9a      	ldr	r2, [r3, #88]	; 0x58
 8003a02:	f422 3240 	bic.w	r2, r2, #196608	; 0x30000
 8003a06:	659a      	str	r2, [r3, #88]	; 0x58
 8003a08:	6d9a      	ldr	r2, [r3, #88]	; 0x58
 8003a0a:	f422 7290 	bic.w	r2, r2, #288	; 0x120
 8003a0e:	659a      	str	r2, [r3, #88]	; 0x58
 8003a10:	6d9a      	ldr	r2, [r3, #88]	; 0x58
 8003a12:	f422 7200 	bic.w	r2, r2, #512	; 0x200
 8003a16:	659a      	str	r2, [r3, #88]	; 0x58
 8003a18:	6d9a      	ldr	r2, [r3, #88]	; 0x58
 8003a1a:	f442 6280 	orr.w	r2, r2, #1024	; 0x400
 8003a1e:	e019      	b.n	8003a54 <main+0x32c>
 8003a20:	40023c00 	.word	0x40023c00
 8003a24:	40023800 	.word	0x40023800
 8003a28:	e000ed00 	.word	0xe000ed00
 8003a2c:	05fa0300 	.word	0x05fa0300
 8003a30:	20000000 	.word	0x20000000
 8003a34:	10624dd3 	.word	0x10624dd3
 8003a38:	40020400 	.word	0x40020400
 8003a3c:	40020000 	.word	0x40020000
 8003a40:	40013800 	.word	0x40013800
 8003a44:	40000400 	.word	0x40000400
 8003a48:	e000e100 	.word	0xe000e100
 8003a4c:	40026400 	.word	0x40026400
 8003a50:	40013000 	.word	0x40013000
 8003a54:	659a      	str	r2, [r3, #88]	; 0x58
 8003a56:	6d9a      	ldr	r2, [r3, #88]	; 0x58
 8003a58:	f422 52c0 	bic.w	r2, r2, #6144	; 0x1800
 8003a5c:	f442 6200 	orr.w	r2, r2, #2048	; 0x800
 8003a60:	659a      	str	r2, [r3, #88]	; 0x58
 8003a62:	6d9a      	ldr	r2, [r3, #88]	; 0x58
 8003a64:	f422 42c0 	bic.w	r2, r2, #24576	; 0x6000
 8003a68:	f442 5200 	orr.w	r2, r2, #8192	; 0x2000
 8003a6c:	659a      	str	r2, [r3, #88]	; 0x58
 8003a6e:	6eda      	ldr	r2, [r3, #108]	; 0x6c
 8003a70:	f022 0204 	bic.w	r2, r2, #4
 8003a74:	66da      	str	r2, [r3, #108]	; 0x6c
 8003a76:	2200      	movs	r2, #0
 8003a78:	f44f 7382 	mov.w	r3, #260	; 0x104
 8003a7c:	e9cd 2352 	strd	r2, r3, [sp, #328]	; 0x148
 8003a80:	ed9f 8b79 	vldr	d8, [pc, #484]	; 8003c68 <main+0x540>
 8003a84:	f44f 6200 	mov.w	r2, #2048	; 0x800
 8003a88:	2300      	movs	r3, #0
 8003a8a:	e9cd 2354 	strd	r2, r3, [sp, #336]	; 0x150
 8003a8e:	2200      	movs	r2, #0
 8003a90:	f44f 7300 	mov.w	r3, #512	; 0x200
 8003a94:	e9cd 2356 	strd	r2, r3, [sp, #344]	; 0x158
 8003a98:	a952      	add	r1, sp, #328	; 0x148
 8003a9a:	2200      	movs	r2, #0
 8003a9c:	230a      	movs	r3, #10
 8003a9e:	4658      	mov	r0, fp
 8003aa0:	e9cd 235a 	strd	r2, r3, [sp, #360]	; 0x168
 8003aa4:	ed8d 8b58 	vstr	d8, [sp, #352]	; 0x160
 8003aa8:	f001 f912 	bl	8004cd0 <LL_SPI_Init>
 8003aac:	f8db 3004 	ldr.w	r3, [fp, #4]
 8003ab0:	ac26      	add	r4, sp, #152	; 0x98
 8003ab2:	f023 0310 	bic.w	r3, r3, #16
 8003ab6:	f8cb 3004 	str.w	r3, [fp, #4]
 8003aba:	2220      	movs	r2, #32
 8003abc:	e9c4 6600 	strd	r6, r6, [r4]
 8003ac0:	e9c4 6602 	strd	r6, r6, [r4, #8]
 8003ac4:	6126      	str	r6, [r4, #16]
 8003ac6:	4631      	mov	r1, r6
 8003ac8:	a852      	add	r0, sp, #328	; 0x148
 8003aca:	f009 fb79 	bl	800d1c0 <memset>
 8003ace:	e9cd 6630 	strd	r6, r6, [sp, #192]	; 0xc0
 8003ad2:	e9cd 6632 	strd	r6, r6, [sp, #200]	; 0xc8
 8003ad6:	e9cd 6634 	strd	r6, r6, [sp, #208]	; 0xd0
 8003ada:	6c2b      	ldr	r3, [r5, #64]	; 0x40
 8003adc:	f8df b1c0 	ldr.w	fp, [pc, #448]	; 8003ca0 <main+0x578>
 8003ae0:	f043 0302 	orr.w	r3, r3, #2
 8003ae4:	642b      	str	r3, [r5, #64]	; 0x40
 8003ae6:	6c2b      	ldr	r3, [r5, #64]	; 0x40
 8003ae8:	f003 0302 	and.w	r3, r3, #2
 8003aec:	9313      	str	r3, [sp, #76]	; 0x4c
 8003aee:	9b13      	ldr	r3, [sp, #76]	; 0x4c
 8003af0:	f240 33e7 	movw	r3, #999	; 0x3e7
 8003af4:	8023      	strh	r3, [r4, #0]
 8003af6:	238b      	movs	r3, #139	; 0x8b
 8003af8:	4621      	mov	r1, r4
 8003afa:	60a3      	str	r3, [r4, #8]
 8003afc:	4638      	mov	r0, r7
 8003afe:	f001 f96f 	bl	8004de0 <LL_TIM_Init>
 8003b02:	683b      	ldr	r3, [r7, #0]
 8003b04:	f04f 4980 	mov.w	r9, #1073741824	; 0x40000000
 8003b08:	f023 0380 	bic.w	r3, r3, #128	; 0x80
 8003b0c:	603b      	str	r3, [r7, #0]
 8003b0e:	f8d9 3418 	ldr.w	r3, [r9, #1048]	; 0x418
 8003b12:	ed9f 7b57 	vldr	d7, [pc, #348]	; 8003c70 <main+0x548>
 8003b16:	f043 0308 	orr.w	r3, r3, #8
 8003b1a:	f8c9 3418 	str.w	r3, [r9, #1048]	; 0x418
 8003b1e:	ed8d 7b52 	vstr	d7, [sp, #328]	; 0x148
 8003b22:	ed9f 7b55 	vldr	d7, [pc, #340]	; 8003c78 <main+0x550>
 8003b26:	aa52      	add	r2, sp, #328	; 0x148
 8003b28:	2101      	movs	r1, #1
 8003b2a:	4638      	mov	r0, r7
 8003b2c:	ed8d 7b54 	vstr	d7, [sp, #336]	; 0x150
 8003b30:	9656      	str	r6, [sp, #344]	; 0x158
 8003b32:	f001 f9a1 	bl	8004e78 <LL_TIM_OC_Init>
 8003b36:	f8d9 3418 	ldr.w	r3, [r9, #1048]	; 0x418
 8003b3a:	f023 0304 	bic.w	r3, r3, #4
 8003b3e:	f8c9 3418 	str.w	r3, [r9, #1048]	; 0x418
 8003b42:	687b      	ldr	r3, [r7, #4]
 8003b44:	f8df 915c 	ldr.w	r9, [pc, #348]	; 8003ca4 <main+0x57c>
 8003b48:	f023 0370 	bic.w	r3, r3, #112	; 0x70
 8003b4c:	607b      	str	r3, [r7, #4]
 8003b4e:	68bb      	ldr	r3, [r7, #8]
 8003b50:	f023 0380 	bic.w	r3, r3, #128	; 0x80
 8003b54:	60bb      	str	r3, [r7, #8]
 8003b56:	6b2b      	ldr	r3, [r5, #48]	; 0x30
 8003b58:	f043 0301 	orr.w	r3, r3, #1
 8003b5c:	632b      	str	r3, [r5, #48]	; 0x30
 8003b5e:	6b2b      	ldr	r3, [r5, #48]	; 0x30
 8003b60:	f003 0301 	and.w	r3, r3, #1
 8003b64:	9314      	str	r3, [sp, #80]	; 0x50
 8003b66:	9b14      	ldr	r3, [sp, #80]	; 0x50
 8003b68:	2240      	movs	r2, #64	; 0x40
 8003b6a:	2302      	movs	r3, #2
 8003b6c:	e9cd 2330 	strd	r2, r3, [sp, #192]	; 0xc0
 8003b70:	a930      	add	r1, sp, #192	; 0xc0
 8003b72:	2200      	movs	r2, #0
 8003b74:	2302      	movs	r3, #2
 8003b76:	4640      	mov	r0, r8
 8003b78:	e9cd 2334 	strd	r2, r3, [sp, #208]	; 0xd0
 8003b7c:	ed8d 8b32 	vstr	d8, [sp, #200]	; 0xc8
 8003b80:	f000 ffce 	bl	8004b20 <LL_GPIO_Init>
 8003b84:	f008 fa18 	bl	800bfb8 <I2S3_Init>
 8003b88:	a143      	add	r1, pc, #268	; (adr r1, 8003c98 <main+0x570>)
 8003b8a:	e9d1 0100 	ldrd	r0, r1, [r1]
 8003b8e:	2208      	movs	r2, #8
 8003b90:	8222      	strh	r2, [r4, #16]
 8003b92:	4b3b      	ldr	r3, [pc, #236]	; (8003c80 <main+0x558>)
 8003b94:	f8c4 8014 	str.w	r8, [r4, #20]
 8003b98:	2204      	movs	r2, #4
 8003b9a:	8322      	strh	r2, [r4, #24]
 8003b9c:	2210      	movs	r2, #16
 8003b9e:	e9c4 0100 	strd	r0, r1, [r4]
 8003ba2:	8422      	strh	r2, [r4, #32]
 8003ba4:	cb0f      	ldmia	r3, {r0, r1, r2, r3}
 8003ba6:	f10d 0c70 	add.w	ip, sp, #112	; 0x70
 8003baa:	f10d 0e24 	add.w	lr, sp, #36	; 0x24
 8003bae:	e88c 000f 	stmia.w	ip, {r0, r1, r2, r3}
 8003bb2:	e9c4 a802 	strd	sl, r8, [r4, #8]
 8003bb6:	f8c4 801c 	str.w	r8, [r4, #28]
 8003bba:	f8df a0ec 	ldr.w	sl, [pc, #236]	; 8003ca8 <main+0x580>
 8003bbe:	f8df 80ec 	ldr.w	r8, [pc, #236]	; 8003cac <main+0x584>
 8003bc2:	e88e 000f 	stmia.w	lr, {r0, r1, r2, r3}
 8003bc6:	f44f 769b 	mov.w	r6, #310	; 0x136
 8003bca:	2702      	movs	r7, #2
 8003bcc:	e9cd 6701 	strd	r6, r7, [sp, #4]
 8003bd0:	25f0      	movs	r5, #240	; 0xf0
 8003bd2:	e9cd ab05 	strd	sl, fp, [sp, #20]
 8003bd6:	e9cd 8903 	strd	r8, r9, [sp, #12]
 8003bda:	462a      	mov	r2, r5
 8003bdc:	9500      	str	r5, [sp, #0]
 8003bde:	4d29      	ldr	r5, [pc, #164]	; (8003c84 <main+0x55c>)
 8003be0:	9407      	str	r4, [sp, #28]
 8003be2:	9708      	str	r7, [sp, #32]
 8003be4:	4633      	mov	r3, r6
 8003be6:	a952      	add	r1, sp, #328	; 0x148
 8003be8:	6828      	ldr	r0, [r5, #0]
 8003bea:	f000 facb 	bl	8004184 <LCD_DisplayAdd>
 8003bee:	4606      	mov	r6, r0
 8003bf0:	6028      	str	r0, [r5, #0]
 8003bf2:	f000 fbc7 	bl	8004384 <LCD_Init>
 8003bf6:	f06f 417f 	mvn.w	r1, #4278190080	; 0xff000000
 8003bfa:	4630      	mov	r0, r6
 8003bfc:	f000 fd22 	bl	8004644 <LCD_Fill>
 8003c00:	9c0f      	ldr	r4, [sp, #60]	; 0x3c
 8003c02:	2101      	movs	r1, #1
 8003c04:	4620      	mov	r0, r4
 8003c06:	f009 fa71 	bl	800d0ec <calloc>
 8003c0a:	b350      	cbz	r0, 8003c62 <main+0x53a>
 8003c0c:	f009 faa8 	bl	800d160 <free>
 8003c10:	2104      	movs	r1, #4
 8003c12:	f44f 6058 	mov.w	r0, #3456	; 0xd80
 8003c16:	f009 fa69 	bl	800d0ec <calloc>
 8003c1a:	4a1b      	ldr	r2, [pc, #108]	; (8003c88 <main+0x560>)
 8003c1c:	4d1b      	ldr	r5, [pc, #108]	; (8003c8c <main+0x564>)
 8003c1e:	491c      	ldr	r1, [pc, #112]	; (8003c90 <main+0x568>)
 8003c20:	f44f 6310 	mov.w	r3, #2304	; 0x900
 8003c24:	9302      	str	r3, [sp, #8]
 8003c26:	2301      	movs	r3, #1
 8003c28:	e9cd 3000 	strd	r3, r0, [sp]
 8003c2c:	6010      	str	r0, [r2, #0]
 8003c2e:	f64a 4344 	movw	r3, #44100	; 0xac44
 8003c32:	2205      	movs	r2, #5
 8003c34:	4817      	ldr	r0, [pc, #92]	; (8003c94 <main+0x56c>)
 8003c36:	f008 fa9d 	bl	800c174 <Start_DAC_DMA>
 8003c3a:	cd0f      	ldmia	r5!, {r0, r1, r2, r3}
 8003c3c:	ac20      	add	r4, sp, #128	; 0x80
 8003c3e:	c40f      	stmia	r4!, {r0, r1, r2, r3}
 8003c40:	e895 0003 	ldmia.w	r5, {r0, r1}
 8003c44:	aa20      	add	r2, sp, #128	; 0x80
 8003c46:	e884 0003 	stmia.w	r4, {r0, r1}
 8003c4a:	2114      	movs	r1, #20
 8003c4c:	a830      	add	r0, sp, #192	; 0xc0
 8003c4e:	f009 f88d 	bl	800cd6c <XPT2046_InitTouch>
 8003c52:	4631      	mov	r1, r6
 8003c54:	a830      	add	r0, sp, #192	; 0xc0
 8003c56:	f008 fb7d 	bl	800c354 <XPT2046_CalibrateTouch>
 8003c5a:	a930      	add	r1, sp, #192	; 0xc0
 8003c5c:	4630      	mov	r0, r6
 8003c5e:	f7fd fee7 	bl	8001a30 <TicTacToe_DemoGame>
 8003c62:	3c01      	subs	r4, #1
 8003c64:	d0d4      	beq.n	8003c10 <main+0x4e8>
 8003c66:	e7cc      	b.n	8003c02 <main+0x4da>
	...
 8003c70:	00000060 	.word	0x00000060
	...
 8003c7c:	00000068 	.word	0x00000068
 8003c80:	0800e3fc 	.word	0x0800e3fc
 8003c84:	20000198 	.word	0x20000198
 8003c88:	2000019c 	.word	0x2000019c
 8003c8c:	0800e40c 	.word	0x0800e40c
 8003c90:	40026000 	.word	0x40026000
 8003c94:	40003c00 	.word	0x40003c00
 8003c98:	40013000 	.word	0x40013000
 8003c9c:	40026400 	.word	0x40026400
 8003ca0:	08004a59 	.word	0x08004a59
 8003ca4:	08004a2d 	.word	0x08004a2d
 8003ca8:	08004a51 	.word	0x08004a51
 8003cac:	080049f1 	.word	0x080049f1

08003cb0 <NMI_Handler>:
 8003cb0:	e7fe      	b.n	8003cb0 <NMI_Handler>
 8003cb2:	bf00      	nop

08003cb4 <HardFault_Handler>:
 8003cb4:	e7fe      	b.n	8003cb4 <HardFault_Handler>
 8003cb6:	bf00      	nop

08003cb8 <MemManage_Handler>:
 8003cb8:	e7fe      	b.n	8003cb8 <MemManage_Handler>
 8003cba:	bf00      	nop

08003cbc <BusFault_Handler>:
 8003cbc:	e7fe      	b.n	8003cbc <BusFault_Handler>
 8003cbe:	bf00      	nop

08003cc0 <UsageFault_Handler>:
 8003cc0:	e7fe      	b.n	8003cc0 <UsageFault_Handler>
 8003cc2:	bf00      	nop

08003cc4 <SVC_Handler>:
 8003cc4:	4770      	bx	lr
 8003cc6:	bf00      	nop

08003cc8 <DebugMon_Handler>:
 8003cc8:	4770      	bx	lr
 8003cca:	bf00      	nop

08003ccc <PendSV_Handler>:
 8003ccc:	4770      	bx	lr
 8003cce:	bf00      	nop

08003cd0 <SysTick_Handler>:
 8003cd0:	b508      	push	{r3, lr}
 8003cd2:	4b04      	ldr	r3, [pc, #16]	; (8003ce4 <SysTick_Handler+0x14>)
 8003cd4:	6818      	ldr	r0, [r3, #0]
 8003cd6:	f009 f907 	bl	800cee8 <XPT2046_TIMCallback>
 8003cda:	4a03      	ldr	r2, [pc, #12]	; (8003ce8 <SysTick_Handler+0x18>)
 8003cdc:	6813      	ldr	r3, [r2, #0]
 8003cde:	3301      	adds	r3, #1
 8003ce0:	6013      	str	r3, [r2, #0]
 8003ce2:	bd08      	pop	{r3, pc}
 8003ce4:	200001a4 	.word	0x200001a4
 8003ce8:	20000190 	.word	0x20000190

08003cec <EXTI0_IRQHandler>:
 8003cec:	4b05      	ldr	r3, [pc, #20]	; (8003d04 <EXTI0_IRQHandler+0x18>)
 8003cee:	695a      	ldr	r2, [r3, #20]
 8003cf0:	07d2      	lsls	r2, r2, #31
 8003cf2:	d400      	bmi.n	8003cf6 <EXTI0_IRQHandler+0xa>
 8003cf4:	4770      	bx	lr
 8003cf6:	4a04      	ldr	r2, [pc, #16]	; (8003d08 <EXTI0_IRQHandler+0x1c>)
 8003cf8:	2101      	movs	r1, #1
 8003cfa:	6810      	ldr	r0, [r2, #0]
 8003cfc:	6159      	str	r1, [r3, #20]
 8003cfe:	f008 bfb7 	b.w	800cc70 <XPT2046_EXTICallback>
 8003d02:	bf00      	nop
 8003d04:	40013c00 	.word	0x40013c00
 8003d08:	200001a4 	.word	0x200001a4

08003d0c <DMA2_Stream3_IRQHandler>:
 8003d0c:	4801      	ldr	r0, [pc, #4]	; (8003d14 <DMA2_Stream3_IRQHandler+0x8>)
 8003d0e:	2103      	movs	r1, #3
 8003d10:	f000 b8a8 	b.w	8003e64 <Display_TC_Callback>
 8003d14:	40026400 	.word	0x40026400

08003d18 <DMA1_Stream5_IRQHandler>:
 8003d18:	b508      	push	{r3, lr}
 8003d1a:	4b09      	ldr	r3, [pc, #36]	; (8003d40 <DMA1_Stream5_IRQHandler+0x28>)
 8003d1c:	6858      	ldr	r0, [r3, #4]
 8003d1e:	685b      	ldr	r3, [r3, #4]
 8003d20:	051b      	lsls	r3, r3, #20
 8003d22:	bf5a      	itte	pl
 8003d24:	f480 6080 	eorpl.w	r0, r0, #1024	; 0x400
 8003d28:	f340 2080 	sbfxpl	r0, r0, #10, #1
 8003d2c:	2001      	movmi	r0, #1
 8003d2e:	f007 ffd3 	bl	800bcd8 <PlayersUpdate>
 8003d32:	4b03      	ldr	r3, [pc, #12]	; (8003d40 <DMA1_Stream5_IRQHandler+0x28>)
 8003d34:	f44f 627c 	mov.w	r2, #4032	; 0xfc0
 8003d38:	60da      	str	r2, [r3, #12]
 8003d3a:	f3bf 8f4f 	dsb	sy
 8003d3e:	bd08      	pop	{r3, pc}
 8003d40:	40026000 	.word	0x40026000

08003d44 <_getpid>:
 8003d44:	2001      	movs	r0, #1
 8003d46:	4770      	bx	lr

08003d48 <_kill>:
 8003d48:	b508      	push	{r3, lr}
 8003d4a:	f009 f9d7 	bl	800d0fc <__errno>
 8003d4e:	2316      	movs	r3, #22
 8003d50:	6003      	str	r3, [r0, #0]
 8003d52:	f04f 30ff 	mov.w	r0, #4294967295
 8003d56:	bd08      	pop	{r3, pc}

08003d58 <_exit>:
 8003d58:	b508      	push	{r3, lr}
 8003d5a:	f009 f9cf 	bl	800d0fc <__errno>
 8003d5e:	2316      	movs	r3, #22
 8003d60:	6003      	str	r3, [r0, #0]
 8003d62:	e7fe      	b.n	8003d62 <_exit+0xa>

08003d64 <_read>:
 8003d64:	b570      	push	{r4, r5, r6, lr}
 8003d66:	1e16      	subs	r6, r2, #0
 8003d68:	dd07      	ble.n	8003d7a <_read+0x16>
 8003d6a:	460c      	mov	r4, r1
 8003d6c:	198d      	adds	r5, r1, r6
 8003d6e:	f3af 8000 	nop.w
 8003d72:	f804 0b01 	strb.w	r0, [r4], #1
 8003d76:	42a5      	cmp	r5, r4
 8003d78:	d1f9      	bne.n	8003d6e <_read+0xa>
 8003d7a:	4630      	mov	r0, r6
 8003d7c:	bd70      	pop	{r4, r5, r6, pc}
 8003d7e:	bf00      	nop

08003d80 <_write>:
 8003d80:	b570      	push	{r4, r5, r6, lr}
 8003d82:	1e16      	subs	r6, r2, #0
 8003d84:	dd07      	ble.n	8003d96 <_write+0x16>
 8003d86:	460c      	mov	r4, r1
 8003d88:	198d      	adds	r5, r1, r6
 8003d8a:	f814 0b01 	ldrb.w	r0, [r4], #1
 8003d8e:	f3af 8000 	nop.w
 8003d92:	42ac      	cmp	r4, r5
 8003d94:	d1f9      	bne.n	8003d8a <_write+0xa>
 8003d96:	4630      	mov	r0, r6
 8003d98:	bd70      	pop	{r4, r5, r6, pc}
 8003d9a:	bf00      	nop

08003d9c <_close>:
 8003d9c:	f04f 30ff 	mov.w	r0, #4294967295
 8003da0:	4770      	bx	lr
 8003da2:	bf00      	nop

08003da4 <_fstat>:
 8003da4:	f44f 5300 	mov.w	r3, #8192	; 0x2000
 8003da8:	604b      	str	r3, [r1, #4]
 8003daa:	2000      	movs	r0, #0
 8003dac:	4770      	bx	lr
 8003dae:	bf00      	nop

08003db0 <_isatty>:
 8003db0:	2001      	movs	r0, #1
 8003db2:	4770      	bx	lr

08003db4 <_lseek>:
 8003db4:	2000      	movs	r0, #0
 8003db6:	4770      	bx	lr

08003db8 <_sbrk>:
 8003db8:	b510      	push	{r4, lr}
 8003dba:	4c0c      	ldr	r4, [pc, #48]	; (8003dec <_sbrk+0x34>)
 8003dbc:	4b0c      	ldr	r3, [pc, #48]	; (8003df0 <_sbrk+0x38>)
 8003dbe:	490d      	ldr	r1, [pc, #52]	; (8003df4 <_sbrk+0x3c>)
 8003dc0:	6822      	ldr	r2, [r4, #0]
 8003dc2:	1a59      	subs	r1, r3, r1
 8003dc4:	b12a      	cbz	r2, 8003dd2 <_sbrk+0x1a>
 8003dc6:	4410      	add	r0, r2
 8003dc8:	4288      	cmp	r0, r1
 8003dca:	d807      	bhi.n	8003ddc <_sbrk+0x24>
 8003dcc:	6020      	str	r0, [r4, #0]
 8003dce:	4610      	mov	r0, r2
 8003dd0:	bd10      	pop	{r4, pc}
 8003dd2:	4a09      	ldr	r2, [pc, #36]	; (8003df8 <_sbrk+0x40>)
 8003dd4:	6022      	str	r2, [r4, #0]
 8003dd6:	4410      	add	r0, r2
 8003dd8:	4288      	cmp	r0, r1
 8003dda:	d9f7      	bls.n	8003dcc <_sbrk+0x14>
 8003ddc:	f009 f98e 	bl	800d0fc <__errno>
 8003de0:	230c      	movs	r3, #12
 8003de2:	f04f 32ff 	mov.w	r2, #4294967295
 8003de6:	6003      	str	r3, [r0, #0]
 8003de8:	4610      	mov	r0, r2
 8003dea:	bd10      	pop	{r4, pc}
 8003dec:	20000194 	.word	0x20000194
 8003df0:	20010000 	.word	0x20010000
 8003df4:	00000400 	.word	0x00000400
 8003df8:	200001b8 	.word	0x200001b8

08003dfc <SystemInit>:
 8003dfc:	4a03      	ldr	r2, [pc, #12]	; (8003e0c <SystemInit+0x10>)
 8003dfe:	f8d2 3088 	ldr.w	r3, [r2, #136]	; 0x88
 8003e02:	f443 0370 	orr.w	r3, r3, #15728640	; 0xf00000
 8003e06:	f8c2 3088 	str.w	r3, [r2, #136]	; 0x88
 8003e0a:	4770      	bx	lr
 8003e0c:	e000ed00 	.word	0xe000ed00

08003e10 <Reset_Handler>:
 8003e10:	f8df d034 	ldr.w	sp, [pc, #52]	; 8003e48 <LoopFillZerobss+0x12>
 8003e14:	480d      	ldr	r0, [pc, #52]	; (8003e4c <LoopFillZerobss+0x16>)
 8003e16:	490e      	ldr	r1, [pc, #56]	; (8003e50 <LoopFillZerobss+0x1a>)
 8003e18:	4a0e      	ldr	r2, [pc, #56]	; (8003e54 <LoopFillZerobss+0x1e>)
 8003e1a:	2300      	movs	r3, #0
 8003e1c:	e002      	b.n	8003e24 <LoopCopyDataInit>

08003e1e <CopyDataInit>:
 8003e1e:	58d4      	ldr	r4, [r2, r3]
 8003e20:	50c4      	str	r4, [r0, r3]
 8003e22:	3304      	adds	r3, #4

08003e24 <LoopCopyDataInit>:
 8003e24:	18c4      	adds	r4, r0, r3
 8003e26:	428c      	cmp	r4, r1
 8003e28:	d3f9      	bcc.n	8003e1e <CopyDataInit>
 8003e2a:	4a0b      	ldr	r2, [pc, #44]	; (8003e58 <LoopFillZerobss+0x22>)
 8003e2c:	4c0b      	ldr	r4, [pc, #44]	; (8003e5c <LoopFillZerobss+0x26>)
 8003e2e:	2300      	movs	r3, #0
 8003e30:	e001      	b.n	8003e36 <LoopFillZerobss>

08003e32 <FillZerobss>:
 8003e32:	6013      	str	r3, [r2, #0]
 8003e34:	3204      	adds	r2, #4

08003e36 <LoopFillZerobss>:
 8003e36:	42a2      	cmp	r2, r4
 8003e38:	d3fb      	bcc.n	8003e32 <FillZerobss>
 8003e3a:	f7ff ffdf 	bl	8003dfc <SystemInit>
 8003e3e:	f009 f963 	bl	800d108 <__libc_init_array>
 8003e42:	f7ff fc71 	bl	8003728 <main>
 8003e46:	4770      	bx	lr
 8003e48:	20010000 	.word	0x20010000
 8003e4c:	20000000 	.word	0x20000000
 8003e50:	20000174 	.word	0x20000174
 8003e54:	0803cc44 	.word	0x0803cc44
 8003e58:	20000174 	.word	0x20000174
 8003e5c:	200001b8 	.word	0x200001b8

08003e60 <ADC_IRQHandler>:
 8003e60:	e7fe      	b.n	8003e60 <ADC_IRQHandler>
	...

08003e64 <Display_TC_Callback>:
 8003e64:	b510      	push	{r4, lr}
 8003e66:	4b3d      	ldr	r3, [pc, #244]	; (8003f5c <Display_TC_Callback+0xf8>)
 8003e68:	4684      	mov	ip, r0
 8003e6a:	468e      	mov	lr, r1
 8003e6c:	e893 0003 	ldmia.w	r3, {r0, r1}
 8003e70:	b082      	sub	sp, #8
 8003e72:	ab02      	add	r3, sp, #8
 8003e74:	e903 0003 	stmdb	r3, {r0, r1}
 8003e78:	f10e 0208 	add.w	r2, lr, #8
 8003e7c:	446a      	add	r2, sp
 8003e7e:	f1be 0f03 	cmp.w	lr, #3
 8003e82:	f812 2c08 	ldrb.w	r2, [r2, #-8]
 8003e86:	f04f 033f 	mov.w	r3, #63	; 0x3f
 8003e8a:	fa03 f302 	lsl.w	r3, r3, r2
 8003e8e:	bf88      	it	hi
 8003e90:	f10c 010c 	addhi.w	r1, ip, #12
 8003e94:	4a32      	ldr	r2, [pc, #200]	; (8003f60 <Display_TC_Callback+0xfc>)
 8003e96:	bf98      	it	ls
 8003e98:	f10c 0108 	addls.w	r1, ip, #8
 8003e9c:	600b      	str	r3, [r1, #0]
 8003e9e:	6813      	ldr	r3, [r2, #0]
 8003ea0:	b133      	cbz	r3, 8003eb0 <Display_TC_Callback+0x4c>
 8003ea2:	6a9a      	ldr	r2, [r3, #40]	; 0x28
 8003ea4:	4594      	cmp	ip, r2
 8003ea6:	d005      	beq.n	8003eb4 <Display_TC_Callback+0x50>
 8003ea8:	f8d3 364c 	ldr.w	r3, [r3, #1612]	; 0x64c
 8003eac:	2b00      	cmp	r3, #0
 8003eae:	d1f8      	bne.n	8003ea2 <Display_TC_Callback+0x3e>
 8003eb0:	b002      	add	sp, #8
 8003eb2:	bd10      	pop	{r4, pc}
 8003eb4:	6ada      	ldr	r2, [r3, #44]	; 0x2c
 8003eb6:	4596      	cmp	lr, r2
 8003eb8:	d1f6      	bne.n	8003ea8 <Display_TC_Callback+0x44>
 8003eba:	6c1a      	ldr	r2, [r3, #64]	; 0x40
 8003ebc:	b122      	cbz	r2, 8003ec8 <Display_TC_Callback+0x64>
 8003ebe:	6952      	ldr	r2, [r2, #20]
 8003ec0:	f8b3 1044 	ldrh.w	r1, [r3, #68]	; 0x44
 8003ec4:	4211      	tst	r1, r2
 8003ec6:	d1ef      	bne.n	8003ea8 <Display_TC_Callback+0x44>
 8003ec8:	4a26      	ldr	r2, [pc, #152]	; (8003f64 <Display_TC_Callback+0x100>)
 8003eca:	f812 000e 	ldrb.w	r0, [r2, lr]
 8003ece:	f85c 2000 	ldr.w	r2, [ip, r0]
 8003ed2:	f022 0201 	bic.w	r2, r2, #1
 8003ed6:	f84c 2000 	str.w	r2, [ip, r0]
 8003eda:	f85c 2000 	ldr.w	r2, [ip, r0]
 8003ede:	07d2      	lsls	r2, r2, #31
 8003ee0:	eb0c 0100 	add.w	r1, ip, r0
 8003ee4:	d503      	bpl.n	8003eee <Display_TC_Callback+0x8a>
 8003ee6:	bf00      	nop
 8003ee8:	680a      	ldr	r2, [r1, #0]
 8003eea:	07d4      	lsls	r4, r2, #31
 8003eec:	d4fb      	bmi.n	8003ee6 <Display_TC_Callback+0x82>
 8003eee:	f8d3 263c 	ldr.w	r2, [r3, #1596]	; 0x63c
 8003ef2:	b9d2      	cbnz	r2, 8003f2a <Display_TC_Callback+0xc6>
 8003ef4:	6a5a      	ldr	r2, [r3, #36]	; 0x24
 8003ef6:	6851      	ldr	r1, [r2, #4]
 8003ef8:	f021 0102 	bic.w	r1, r1, #2
 8003efc:	6051      	str	r1, [r2, #4]
 8003efe:	6891      	ldr	r1, [r2, #8]
 8003f00:	0608      	lsls	r0, r1, #24
 8003f02:	d504      	bpl.n	8003f0e <Display_TC_Callback+0xaa>
 8003f04:	bf00      	nop
 8003f06:	6a5a      	ldr	r2, [r3, #36]	; 0x24
 8003f08:	6891      	ldr	r1, [r2, #8]
 8003f0a:	0609      	lsls	r1, r1, #24
 8003f0c:	d4fa      	bmi.n	8003f04 <Display_TC_Callback+0xa0>
 8003f0e:	f893 1641 	ldrb.w	r1, [r3, #1601]	; 0x641
 8003f12:	b921      	cbnz	r1, 8003f1e <Display_TC_Callback+0xba>
 8003f14:	6c19      	ldr	r1, [r3, #64]	; 0x40
 8003f16:	b111      	cbz	r1, 8003f1e <Display_TC_Callback+0xba>
 8003f18:	f8b3 3044 	ldrh.w	r3, [r3, #68]	; 0x44
 8003f1c:	618b      	str	r3, [r1, #24]
 8003f1e:	6813      	ldr	r3, [r2, #0]
 8003f20:	f023 0340 	bic.w	r3, r3, #64	; 0x40
 8003f24:	6013      	str	r3, [r2, #0]
 8003f26:	b002      	add	sp, #8
 8003f28:	bd10      	pop	{r4, pc}
 8003f2a:	f5b2 3f80 	cmp.w	r2, #65536	; 0x10000
 8003f2e:	d20b      	bcs.n	8003f48 <Display_TC_Callback+0xe4>
 8003f30:	604a      	str	r2, [r1, #4]
 8003f32:	2200      	movs	r2, #0
 8003f34:	f8c3 263c 	str.w	r2, [r3, #1596]	; 0x63c
 8003f38:	f85c 3000 	ldr.w	r3, [ip, r0]
 8003f3c:	f043 0301 	orr.w	r3, r3, #1
 8003f40:	f84c 3000 	str.w	r3, [ip, r0]
 8003f44:	b002      	add	sp, #8
 8003f46:	bd10      	pop	{r4, pc}
 8003f48:	f5a2 427f 	sub.w	r2, r2, #65280	; 0xff00
 8003f4c:	3aff      	subs	r2, #255	; 0xff
 8003f4e:	f64f 74ff 	movw	r4, #65535	; 0xffff
 8003f52:	604c      	str	r4, [r1, #4]
 8003f54:	f8c3 263c 	str.w	r2, [r3, #1596]	; 0x63c
 8003f58:	e7ee      	b.n	8003f38 <Display_TC_Callback+0xd4>
 8003f5a:	bf00      	nop
 8003f5c:	0800e424 	.word	0x0800e424
 8003f60:	20000198 	.word	0x20000198
 8003f64:	0800e568 	.word	0x0800e568

08003f68 <LCD_String_Interpretator>:
 8003f68:	b5f8      	push	{r3, r4, r5, r6, r7, lr}
 8003f6a:	6a45      	ldr	r5, [r0, #36]	; 0x24
 8003f6c:	682b      	ldr	r3, [r5, #0]
 8003f6e:	065b      	lsls	r3, r3, #25
 8003f70:	4604      	mov	r4, r0
 8003f72:	d41e      	bmi.n	8003fb2 <LCD_String_Interpretator+0x4a>
 8003f74:	6c22      	ldr	r2, [r4, #64]	; 0x40
 8003f76:	b11a      	cbz	r2, 8003f80 <LCD_String_Interpretator+0x18>
 8003f78:	f8b4 3044 	ldrh.w	r3, [r4, #68]	; 0x44
 8003f7c:	041b      	lsls	r3, r3, #16
 8003f7e:	6193      	str	r3, [r2, #24]
 8003f80:	682b      	ldr	r3, [r5, #0]
 8003f82:	f423 432c 	bic.w	r3, r3, #44032	; 0xac00
 8003f86:	602b      	str	r3, [r5, #0]
 8003f88:	682b      	ldr	r3, [r5, #0]
 8003f8a:	f043 0340 	orr.w	r3, r3, #64	; 0x40
 8003f8e:	602b      	str	r3, [r5, #0]
 8003f90:	780b      	ldrb	r3, [r1, #0]
 8003f92:	2b01      	cmp	r3, #1
 8003f94:	d013      	beq.n	8003fbe <LCD_String_Interpretator+0x56>
 8003f96:	2b02      	cmp	r3, #2
 8003f98:	d069      	beq.n	800406e <LCD_String_Interpretator+0x106>
 8003f9a:	2b00      	cmp	r3, #0
 8003f9c:	d031      	beq.n	8004002 <LCD_String_Interpretator+0x9a>
 8003f9e:	6c23      	ldr	r3, [r4, #64]	; 0x40
 8003fa0:	b113      	cbz	r3, 8003fa8 <LCD_String_Interpretator+0x40>
 8003fa2:	f8b4 2044 	ldrh.w	r2, [r4, #68]	; 0x44
 8003fa6:	619a      	str	r2, [r3, #24]
 8003fa8:	682b      	ldr	r3, [r5, #0]
 8003faa:	f023 0340 	bic.w	r3, r3, #64	; 0x40
 8003fae:	602b      	str	r3, [r5, #0]
 8003fb0:	bdf8      	pop	{r3, r4, r5, r6, r7, pc}
 8003fb2:	bf00      	nop
 8003fb4:	6a63      	ldr	r3, [r4, #36]	; 0x24
 8003fb6:	681b      	ldr	r3, [r3, #0]
 8003fb8:	065f      	lsls	r7, r3, #25
 8003fba:	d5db      	bpl.n	8003f74 <LCD_String_Interpretator+0xc>
 8003fbc:	e7f9      	b.n	8003fb2 <LCD_String_Interpretator+0x4a>
 8003fbe:	784e      	ldrb	r6, [r1, #1]
 8003fc0:	f101 0e02 	add.w	lr, r1, #2
 8003fc4:	2e00      	cmp	r6, #0
 8003fc6:	d058      	beq.n	800407a <LCD_String_Interpretator+0x112>
 8003fc8:	4670      	mov	r0, lr
 8003fca:	eb0e 0c06 	add.w	ip, lr, r6
 8003fce:	6a63      	ldr	r3, [r4, #36]	; 0x24
 8003fd0:	6ba7      	ldr	r7, [r4, #56]	; 0x38
 8003fd2:	f810 2b01 	ldrb.w	r2, [r0], #1
 8003fd6:	8fa1      	ldrh	r1, [r4, #60]	; 0x3c
 8003fd8:	61b9      	str	r1, [r7, #24]
 8003fda:	60da      	str	r2, [r3, #12]
 8003fdc:	689a      	ldr	r2, [r3, #8]
 8003fde:	0797      	lsls	r7, r2, #30
 8003fe0:	d407      	bmi.n	8003ff2 <LCD_String_Interpretator+0x8a>
 8003fe2:	bf00      	nop
 8003fe4:	689a      	ldr	r2, [r3, #8]
 8003fe6:	0791      	lsls	r1, r2, #30
 8003fe8:	d5fb      	bpl.n	8003fe2 <LCD_String_Interpretator+0x7a>
 8003fea:	689a      	ldr	r2, [r3, #8]
 8003fec:	0612      	lsls	r2, r2, #24
 8003fee:	d503      	bpl.n	8003ff8 <LCD_String_Interpretator+0x90>
 8003ff0:	bf00      	nop
 8003ff2:	689a      	ldr	r2, [r3, #8]
 8003ff4:	0612      	lsls	r2, r2, #24
 8003ff6:	d4fb      	bmi.n	8003ff0 <LCD_String_Interpretator+0x88>
 8003ff8:	4560      	cmp	r0, ip
 8003ffa:	d1e8      	bne.n	8003fce <LCD_String_Interpretator+0x66>
 8003ffc:	eb0e 0106 	add.w	r1, lr, r6
 8004000:	e7c6      	b.n	8003f90 <LCD_String_Interpretator+0x28>
 8004002:	8fa2      	ldrh	r2, [r4, #60]	; 0x3c
 8004004:	6a63      	ldr	r3, [r4, #36]	; 0x24
 8004006:	6ba6      	ldr	r6, [r4, #56]	; 0x38
 8004008:	7848      	ldrb	r0, [r1, #1]
 800400a:	0412      	lsls	r2, r2, #16
 800400c:	61b2      	str	r2, [r6, #24]
 800400e:	60d8      	str	r0, [r3, #12]
 8004010:	689a      	ldr	r2, [r3, #8]
 8004012:	0796      	lsls	r6, r2, #30
 8004014:	d407      	bmi.n	8004026 <LCD_String_Interpretator+0xbe>
 8004016:	bf00      	nop
 8004018:	689a      	ldr	r2, [r3, #8]
 800401a:	0790      	lsls	r0, r2, #30
 800401c:	d5fb      	bpl.n	8004016 <LCD_String_Interpretator+0xae>
 800401e:	689a      	ldr	r2, [r3, #8]
 8004020:	0612      	lsls	r2, r2, #24
 8004022:	d503      	bpl.n	800402c <LCD_String_Interpretator+0xc4>
 8004024:	bf00      	nop
 8004026:	689a      	ldr	r2, [r3, #8]
 8004028:	0612      	lsls	r2, r2, #24
 800402a:	d4fb      	bmi.n	8004024 <LCD_String_Interpretator+0xbc>
 800402c:	788e      	ldrb	r6, [r1, #2]
 800402e:	f101 0e03 	add.w	lr, r1, #3
 8004032:	b316      	cbz	r6, 800407a <LCD_String_Interpretator+0x112>
 8004034:	4670      	mov	r0, lr
 8004036:	eb0e 0c06 	add.w	ip, lr, r6
 800403a:	6a63      	ldr	r3, [r4, #36]	; 0x24
 800403c:	6ba7      	ldr	r7, [r4, #56]	; 0x38
 800403e:	f810 2b01 	ldrb.w	r2, [r0], #1
 8004042:	8fa1      	ldrh	r1, [r4, #60]	; 0x3c
 8004044:	61b9      	str	r1, [r7, #24]
 8004046:	60da      	str	r2, [r3, #12]
 8004048:	689a      	ldr	r2, [r3, #8]
 800404a:	0797      	lsls	r7, r2, #30
 800404c:	d407      	bmi.n	800405e <LCD_String_Interpretator+0xf6>
 800404e:	bf00      	nop
 8004050:	689a      	ldr	r2, [r3, #8]
 8004052:	0791      	lsls	r1, r2, #30
 8004054:	d5fb      	bpl.n	800404e <LCD_String_Interpretator+0xe6>
 8004056:	689a      	ldr	r2, [r3, #8]
 8004058:	0612      	lsls	r2, r2, #24
 800405a:	d503      	bpl.n	8004064 <LCD_String_Interpretator+0xfc>
 800405c:	bf00      	nop
 800405e:	689a      	ldr	r2, [r3, #8]
 8004060:	0612      	lsls	r2, r2, #24
 8004062:	d4fb      	bmi.n	800405c <LCD_String_Interpretator+0xf4>
 8004064:	4560      	cmp	r0, ip
 8004066:	d1e8      	bne.n	800403a <LCD_String_Interpretator+0xd2>
 8004068:	eb0e 0106 	add.w	r1, lr, r6
 800406c:	e790      	b.n	8003f90 <LCD_String_Interpretator+0x28>
 800406e:	7848      	ldrb	r0, [r1, #1]
 8004070:	1c8e      	adds	r6, r1, #2
 8004072:	f000 ffed 	bl	8005050 <LL_mDelay>
 8004076:	4631      	mov	r1, r6
 8004078:	e78a      	b.n	8003f90 <LCD_String_Interpretator+0x28>
 800407a:	4671      	mov	r1, lr
 800407c:	e788      	b.n	8003f90 <LCD_String_Interpretator+0x28>
 800407e:	bf00      	nop

08004080 <LCD_DrawPixel.part.0>:
 8004080:	b570      	push	{r4, r5, r6, lr}
 8004082:	4604      	mov	r4, r0
 8004084:	8940      	ldrh	r0, [r0, #10]
 8004086:	89a5      	ldrh	r5, [r4, #12]
 8004088:	69a6      	ldr	r6, [r4, #24]
 800408a:	4401      	add	r1, r0
 800408c:	442a      	add	r2, r5
 800408e:	b288      	uxth	r0, r1
 8004090:	b292      	uxth	r2, r2
 8004092:	461d      	mov	r5, r3
 8004094:	4611      	mov	r1, r2
 8004096:	4613      	mov	r3, r2
 8004098:	4602      	mov	r2, r0
 800409a:	47b0      	blx	r6
 800409c:	4601      	mov	r1, r0
 800409e:	4620      	mov	r0, r4
 80040a0:	f7ff ff62 	bl	8003f68 <LCD_String_Interpretator>
 80040a4:	4936      	ldr	r1, [pc, #216]	; (8004180 <LCD_DrawPixel.part.0+0x100>)
 80040a6:	f894 0048 	ldrb.w	r0, [r4, #72]	; 0x48
 80040aa:	f3c5 02c4 	ubfx	r2, r5, #3, #5
 80040ae:	ea01 2115 	and.w	r1, r1, r5, lsr #8
 80040b2:	096b      	lsrs	r3, r5, #5
 80040b4:	430a      	orrs	r2, r1
 80040b6:	f403 63fc 	and.w	r3, r3, #2016	; 0x7e0
 80040ba:	431a      	orrs	r2, r3
 80040bc:	2801      	cmp	r0, #1
 80040be:	b292      	uxth	r2, r2
 80040c0:	d101      	bne.n	80040c6 <LCD_DrawPixel.part.0+0x46>
 80040c2:	ba52      	rev16	r2, r2
 80040c4:	b292      	uxth	r2, r2
 80040c6:	6a63      	ldr	r3, [r4, #36]	; 0x24
 80040c8:	6819      	ldr	r1, [r3, #0]
 80040ca:	064e      	lsls	r6, r1, #25
 80040cc:	d43e      	bmi.n	800414c <LCD_DrawPixel.part.0+0xcc>
 80040ce:	f894 1641 	ldrb.w	r1, [r4, #1601]	; 0x641
 80040d2:	b929      	cbnz	r1, 80040e0 <LCD_DrawPixel.part.0+0x60>
 80040d4:	6c25      	ldr	r5, [r4, #64]	; 0x40
 80040d6:	b11d      	cbz	r5, 80040e0 <LCD_DrawPixel.part.0+0x60>
 80040d8:	f8b4 1044 	ldrh.w	r1, [r4, #68]	; 0x44
 80040dc:	0409      	lsls	r1, r1, #16
 80040de:	61a9      	str	r1, [r5, #24]
 80040e0:	f894 1642 	ldrb.w	r1, [r4, #1602]	; 0x642
 80040e4:	b911      	cbnz	r1, 80040ec <LCD_DrawPixel.part.0+0x6c>
 80040e6:	6ba1      	ldr	r1, [r4, #56]	; 0x38
 80040e8:	8fa5      	ldrh	r5, [r4, #60]	; 0x3c
 80040ea:	618d      	str	r5, [r1, #24]
 80040ec:	6819      	ldr	r1, [r3, #0]
 80040ee:	2802      	cmp	r0, #2
 80040f0:	f421 412c 	bic.w	r1, r1, #44032	; 0xac00
 80040f4:	6019      	str	r1, [r3, #0]
 80040f6:	d031      	beq.n	800415c <LCD_DrawPixel.part.0+0xdc>
 80040f8:	6818      	ldr	r0, [r3, #0]
 80040fa:	b2d1      	uxtb	r1, r2
 80040fc:	f040 0040 	orr.w	r0, r0, #64	; 0x40
 8004100:	6018      	str	r0, [r3, #0]
 8004102:	60d9      	str	r1, [r3, #12]
 8004104:	6899      	ldr	r1, [r3, #8]
 8004106:	0789      	lsls	r1, r1, #30
 8004108:	d403      	bmi.n	8004112 <LCD_DrawPixel.part.0+0x92>
 800410a:	bf00      	nop
 800410c:	6899      	ldr	r1, [r3, #8]
 800410e:	0789      	lsls	r1, r1, #30
 8004110:	d5fb      	bpl.n	800410a <LCD_DrawPixel.part.0+0x8a>
 8004112:	0a12      	lsrs	r2, r2, #8
 8004114:	60da      	str	r2, [r3, #12]
 8004116:	689a      	ldr	r2, [r3, #8]
 8004118:	0792      	lsls	r2, r2, #30
 800411a:	d407      	bmi.n	800412c <LCD_DrawPixel.part.0+0xac>
 800411c:	bf00      	nop
 800411e:	689a      	ldr	r2, [r3, #8]
 8004120:	0796      	lsls	r6, r2, #30
 8004122:	d5fb      	bpl.n	800411c <LCD_DrawPixel.part.0+0x9c>
 8004124:	689a      	ldr	r2, [r3, #8]
 8004126:	0610      	lsls	r0, r2, #24
 8004128:	d503      	bpl.n	8004132 <LCD_DrawPixel.part.0+0xb2>
 800412a:	bf00      	nop
 800412c:	689a      	ldr	r2, [r3, #8]
 800412e:	0610      	lsls	r0, r2, #24
 8004130:	d4fb      	bmi.n	800412a <LCD_DrawPixel.part.0+0xaa>
 8004132:	f894 2641 	ldrb.w	r2, [r4, #1601]	; 0x641
 8004136:	b922      	cbnz	r2, 8004142 <LCD_DrawPixel.part.0+0xc2>
 8004138:	6c22      	ldr	r2, [r4, #64]	; 0x40
 800413a:	b112      	cbz	r2, 8004142 <LCD_DrawPixel.part.0+0xc2>
 800413c:	f8b4 1044 	ldrh.w	r1, [r4, #68]	; 0x44
 8004140:	6191      	str	r1, [r2, #24]
 8004142:	681a      	ldr	r2, [r3, #0]
 8004144:	f022 0240 	bic.w	r2, r2, #64	; 0x40
 8004148:	601a      	str	r2, [r3, #0]
 800414a:	bd70      	pop	{r4, r5, r6, pc}
 800414c:	bf00      	nop
 800414e:	6a61      	ldr	r1, [r4, #36]	; 0x24
 8004150:	6809      	ldr	r1, [r1, #0]
 8004152:	064d      	lsls	r5, r1, #25
 8004154:	d4fa      	bmi.n	800414c <LCD_DrawPixel.part.0+0xcc>
 8004156:	f894 0048 	ldrb.w	r0, [r4, #72]	; 0x48
 800415a:	e7b8      	b.n	80040ce <LCD_DrawPixel.part.0+0x4e>
 800415c:	6819      	ldr	r1, [r3, #0]
 800415e:	f441 6100 	orr.w	r1, r1, #2048	; 0x800
 8004162:	6019      	str	r1, [r3, #0]
 8004164:	6819      	ldr	r1, [r3, #0]
 8004166:	f041 0140 	orr.w	r1, r1, #64	; 0x40
 800416a:	6019      	str	r1, [r3, #0]
 800416c:	60da      	str	r2, [r3, #12]
 800416e:	689a      	ldr	r2, [r3, #8]
 8004170:	0790      	lsls	r0, r2, #30
 8004172:	d4db      	bmi.n	800412c <LCD_DrawPixel.part.0+0xac>
 8004174:	bf00      	nop
 8004176:	689a      	ldr	r2, [r3, #8]
 8004178:	0795      	lsls	r5, r2, #30
 800417a:	d5fb      	bpl.n	8004174 <LCD_DrawPixel.part.0+0xf4>
 800417c:	e7d6      	b.n	800412c <LCD_DrawPixel.part.0+0xac>
 800417e:	bf00      	nop
 8004180:	fffff800 	.word	0xfffff800

08004184 <LCD_DisplayAdd>:
 8004184:	e92d 4ff8 	stmdb	sp!, {r3, r4, r5, r6, r7, r8, r9, sl, fp, lr}
 8004188:	460c      	mov	r4, r1
 800418a:	f8bd a028 	ldrh.w	sl, [sp, #40]	; 0x28
 800418e:	f8bd 902c 	ldrh.w	r9, [sp, #44]	; 0x2c
 8004192:	f89d 8030 	ldrb.w	r8, [sp, #48]	; 0x30
 8004196:	f89d b048 	ldrb.w	fp, [sp, #72]	; 0x48
 800419a:	2900      	cmp	r1, #0
 800419c:	f000 80da 	beq.w	8004354 <LCD_DisplayAdd+0x1d0>
 80041a0:	2100      	movs	r1, #0
 80041a2:	4605      	mov	r5, r0
 80041a4:	4616      	mov	r6, r2
 80041a6:	4620      	mov	r0, r4
 80041a8:	f44f 62ca 	mov.w	r2, #1616	; 0x650
 80041ac:	461f      	mov	r7, r3
 80041ae:	f009 f807 	bl	800d1c0 <memset>
 80041b2:	f8dd c044 	ldr.w	ip, [sp, #68]	; 0x44
 80041b6:	f884 b048 	strb.w	fp, [r4, #72]	; 0x48
 80041ba:	e8bc 000f 	ldmia.w	ip!, {r0, r1, r2, r3}
 80041be:	f104 0e24 	add.w	lr, r4, #36	; 0x24
 80041c2:	e8ae 000f 	stmia.w	lr!, {r0, r1, r2, r3}
 80041c6:	e8bc 000f 	ldmia.w	ip!, {r0, r1, r2, r3}
 80041ca:	e8ae 000f 	stmia.w	lr!, {r0, r1, r2, r3}
 80041ce:	f8dc 3000 	ldr.w	r3, [ip]
 80041d2:	f8ce 3000 	str.w	r3, [lr]
 80041d6:	6aa3      	ldr	r3, [r4, #40]	; 0x28
 80041d8:	2b00      	cmp	r3, #0
 80041da:	d03c      	beq.n	8004256 <LCD_DisplayAdd+0xd2>
 80041dc:	6ae2      	ldr	r2, [r4, #44]	; 0x2c
 80041de:	4968      	ldr	r1, [pc, #416]	; (8004380 <LCD_DisplayAdd+0x1fc>)
 80041e0:	5c89      	ldrb	r1, [r1, r2]
 80041e2:	585a      	ldr	r2, [r3, r1]
 80041e4:	f022 0201 	bic.w	r2, r2, #1
 80041e8:	505a      	str	r2, [r3, r1]
 80041ea:	585a      	ldr	r2, [r3, r1]
 80041ec:	07d2      	lsls	r2, r2, #31
 80041ee:	eb03 0001 	add.w	r0, r3, r1
 80041f2:	d505      	bpl.n	8004200 <LCD_DisplayAdd+0x7c>
 80041f4:	bf00      	nop
 80041f6:	6802      	ldr	r2, [r0, #0]
 80041f8:	07d2      	lsls	r2, r2, #31
 80041fa:	d4fb      	bmi.n	80041f4 <LCD_DisplayAdd+0x70>
 80041fc:	f894 b048 	ldrb.w	fp, [r4, #72]	; 0x48
 8004200:	f1bb 0f01 	cmp.w	fp, #1
 8004204:	d00b      	beq.n	800421e <LCD_DisplayAdd+0x9a>
 8004206:	f1bb 0f02 	cmp.w	fp, #2
 800420a:	d10e      	bne.n	800422a <LCD_DisplayAdd+0xa6>
 800420c:	585a      	ldr	r2, [r3, r1]
 800420e:	f422 42f0 	bic.w	r2, r2, #30720	; 0x7800
 8004212:	505a      	str	r2, [r3, r1]
 8004214:	585a      	ldr	r2, [r3, r1]
 8004216:	f442 5220 	orr.w	r2, r2, #10240	; 0x2800
 800421a:	505a      	str	r2, [r3, r1]
 800421c:	e005      	b.n	800422a <LCD_DisplayAdd+0xa6>
 800421e:	585a      	ldr	r2, [r3, r1]
 8004220:	f422 42f0 	bic.w	r2, r2, #30720	; 0x7800
 8004224:	505a      	str	r2, [r3, r1]
 8004226:	585a      	ldr	r2, [r3, r1]
 8004228:	505a      	str	r2, [r3, r1]
 800422a:	585a      	ldr	r2, [r3, r1]
 800422c:	f422 2280 	bic.w	r2, r2, #262144	; 0x40000
 8004230:	f022 020e 	bic.w	r2, r2, #14
 8004234:	505a      	str	r2, [r3, r1]
 8004236:	6942      	ldr	r2, [r0, #20]
 8004238:	f022 0280 	bic.w	r2, r2, #128	; 0x80
 800423c:	6142      	str	r2, [r0, #20]
 800423e:	585a      	ldr	r2, [r3, r1]
 8004240:	f042 0210 	orr.w	r2, r2, #16
 8004244:	505a      	str	r2, [r3, r1]
 8004246:	585a      	ldr	r2, [r3, r1]
 8004248:	f422 7200 	bic.w	r2, r2, #512	; 0x200
 800424c:	505a      	str	r2, [r3, r1]
 800424e:	585a      	ldr	r2, [r3, r1]
 8004250:	f442 6280 	orr.w	r2, r2, #1024	; 0x400
 8004254:	505a      	str	r2, [r3, r1]
 8004256:	42b7      	cmp	r7, r6
 8004258:	4639      	mov	r1, r7
 800425a:	bf38      	it	cc
 800425c:	4631      	movcc	r1, r6
 800425e:	42be      	cmp	r6, r7
 8004260:	bf28      	it	cs
 8004262:	463e      	movcs	r6, r7
 8004264:	f1b8 0f00 	cmp.w	r8, #0
 8004268:	d143      	bne.n	80042f2 <LCD_DisplayAdd+0x16e>
 800426a:	80a6      	strh	r6, [r4, #4]
 800426c:	80e1      	strh	r1, [r4, #6]
 800426e:	f8a4 a000 	strh.w	sl, [r4]
 8004272:	f8a4 9002 	strh.w	r9, [r4, #2]
 8004276:	f8c4 800a 	str.w	r8, [r4, #10]
 800427a:	4556      	cmp	r6, sl
 800427c:	d854      	bhi.n	8004328 <LCD_DisplayAdd+0x1a4>
 800427e:	4549      	cmp	r1, r9
 8004280:	d852      	bhi.n	8004328 <LCD_DisplayAdd+0x1a4>
 8004282:	9b0d      	ldr	r3, [sp, #52]	; 0x34
 8004284:	2b00      	cmp	r3, #0
 8004286:	d04f      	beq.n	8004328 <LCD_DisplayAdd+0x1a4>
 8004288:	9b0e      	ldr	r3, [sp, #56]	; 0x38
 800428a:	2b00      	cmp	r3, #0
 800428c:	d04c      	beq.n	8004328 <LCD_DisplayAdd+0x1a4>
 800428e:	9a0d      	ldr	r2, [sp, #52]	; 0x34
 8004290:	6162      	str	r2, [r4, #20]
 8004292:	9a0e      	ldr	r2, [sp, #56]	; 0x38
 8004294:	61a2      	str	r2, [r4, #24]
 8004296:	9a0f      	ldr	r2, [sp, #60]	; 0x3c
 8004298:	61e2      	str	r2, [r4, #28]
 800429a:	ab13      	add	r3, sp, #76	; 0x4c
 800429c:	9a10      	ldr	r2, [sp, #64]	; 0x40
 800429e:	6222      	str	r2, [r4, #32]
 80042a0:	cb0f      	ldmia	r3, {r0, r1, r2, r3}
 80042a2:	f04f 0c00 	mov.w	ip, #0
 80042a6:	f104 064c 	add.w	r6, r4, #76	; 0x4c
 80042aa:	f104 0760 	add.w	r7, r4, #96	; 0x60
 80042ae:	f884 8008 	strb.w	r8, [r4, #8]
 80042b2:	e886 000f 	stmia.w	r6, {r0, r1, r2, r3}
 80042b6:	f884 c640 	strb.w	ip, [r4, #1600]	; 0x640
 80042ba:	f8c4 c64c 	str.w	ip, [r4, #1612]	; 0x64c
 80042be:	f8c4 c648 	str.w	ip, [r4, #1608]	; 0x648
 80042c2:	65e7      	str	r7, [r4, #92]	; 0x5c
 80042c4:	2d00      	cmp	r5, #0
 80042c6:	d045      	beq.n	8004354 <LCD_DisplayAdd+0x1d0>
 80042c8:	f8d5 364c 	ldr.w	r3, [r5, #1612]	; 0x64c
 80042cc:	b153      	cbz	r3, 80042e4 <LCD_DisplayAdd+0x160>
 80042ce:	2201      	movs	r2, #1
 80042d0:	461d      	mov	r5, r3
 80042d2:	f8d3 364c 	ldr.w	r3, [r3, #1612]	; 0x64c
 80042d6:	1c51      	adds	r1, r2, #1
 80042d8:	4610      	mov	r0, r2
 80042da:	b2ca      	uxtb	r2, r1
 80042dc:	2b00      	cmp	r3, #0
 80042de:	d1f7      	bne.n	80042d0 <LCD_DisplayAdd+0x14c>
 80042e0:	f884 0640 	strb.w	r0, [r4, #1600]	; 0x640
 80042e4:	f8c4 5648 	str.w	r5, [r4, #1608]	; 0x648
 80042e8:	4620      	mov	r0, r4
 80042ea:	f8c5 464c 	str.w	r4, [r5, #1612]	; 0x64c
 80042ee:	e8bd 8ff8 	ldmia.w	sp!, {r3, r4, r5, r6, r7, r8, r9, sl, fp, pc}
 80042f2:	f1b8 0f02 	cmp.w	r8, #2
 80042f6:	d020      	beq.n	800433a <LCD_DisplayAdd+0x1b6>
 80042f8:	f1b8 0f01 	cmp.w	r8, #1
 80042fc:	d02d      	beq.n	800435a <LCD_DisplayAdd+0x1d6>
 80042fe:	f1b8 0f03 	cmp.w	r8, #3
 8004302:	d111      	bne.n	8004328 <LCD_DisplayAdd+0x1a4>
 8004304:	4653      	mov	r3, sl
 8004306:	eba9 0001 	sub.w	r0, r9, r1
 800430a:	4632      	mov	r2, r6
 800430c:	f8a4 9000 	strh.w	r9, [r4]
 8004310:	f8a4 a002 	strh.w	sl, [r4, #2]
 8004314:	46ca      	mov	sl, r9
 8004316:	4699      	mov	r9, r3
 8004318:	2300      	movs	r3, #0
 800431a:	80a1      	strh	r1, [r4, #4]
 800431c:	80e6      	strh	r6, [r4, #6]
 800431e:	8160      	strh	r0, [r4, #10]
 8004320:	460e      	mov	r6, r1
 8004322:	81a3      	strh	r3, [r4, #12]
 8004324:	4611      	mov	r1, r2
 8004326:	e7a8      	b.n	800427a <LCD_DisplayAdd+0xf6>
 8004328:	f44f 62ca 	mov.w	r2, #1616	; 0x650
 800432c:	2100      	movs	r1, #0
 800432e:	4620      	mov	r0, r4
 8004330:	f008 ff46 	bl	800d1c0 <memset>
 8004334:	2000      	movs	r0, #0
 8004336:	e8bd 8ff8 	ldmia.w	sp!, {r3, r4, r5, r6, r7, r8, r9, sl, fp, pc}
 800433a:	ebaa 0306 	sub.w	r3, sl, r6
 800433e:	8163      	strh	r3, [r4, #10]
 8004340:	eba9 0301 	sub.w	r3, r9, r1
 8004344:	80a6      	strh	r6, [r4, #4]
 8004346:	80e1      	strh	r1, [r4, #6]
 8004348:	f8a4 a000 	strh.w	sl, [r4]
 800434c:	f8a4 9002 	strh.w	r9, [r4, #2]
 8004350:	81a3      	strh	r3, [r4, #12]
 8004352:	e792      	b.n	800427a <LCD_DisplayAdd+0xf6>
 8004354:	4620      	mov	r0, r4
 8004356:	e8bd 8ff8 	ldmia.w	sp!, {r3, r4, r5, r6, r7, r8, r9, sl, fp, pc}
 800435a:	ebaa 0306 	sub.w	r3, sl, r6
 800435e:	81a3      	strh	r3, [r4, #12]
 8004360:	4653      	mov	r3, sl
 8004362:	4632      	mov	r2, r6
 8004364:	f8a4 9000 	strh.w	r9, [r4]
 8004368:	f8a4 a002 	strh.w	sl, [r4, #2]
 800436c:	46ca      	mov	sl, r9
 800436e:	4699      	mov	r9, r3
 8004370:	2300      	movs	r3, #0
 8004372:	80a1      	strh	r1, [r4, #4]
 8004374:	80e6      	strh	r6, [r4, #6]
 8004376:	8163      	strh	r3, [r4, #10]
 8004378:	460e      	mov	r6, r1
 800437a:	4611      	mov	r1, r2
 800437c:	e77d      	b.n	800427a <LCD_DisplayAdd+0xf6>
 800437e:	bf00      	nop
 8004380:	0800e568 	.word	0x0800e568

08004384 <LCD_Init>:
 8004384:	6b03      	ldr	r3, [r0, #48]	; 0x30
 8004386:	b510      	push	{r4, lr}
 8004388:	4604      	mov	r4, r0
 800438a:	b15b      	cbz	r3, 80043a4 <LCD_Init+0x20>
 800438c:	8e82      	ldrh	r2, [r0, #52]	; 0x34
 800438e:	0412      	lsls	r2, r2, #16
 8004390:	619a      	str	r2, [r3, #24]
 8004392:	2019      	movs	r0, #25
 8004394:	f000 fe5c 	bl	8005050 <LL_mDelay>
 8004398:	6b23      	ldr	r3, [r4, #48]	; 0x30
 800439a:	8ea2      	ldrh	r2, [r4, #52]	; 0x34
 800439c:	619a      	str	r2, [r3, #24]
 800439e:	2019      	movs	r0, #25
 80043a0:	f000 fe56 	bl	8005050 <LL_mDelay>
 80043a4:	6963      	ldr	r3, [r4, #20]
 80043a6:	7a20      	ldrb	r0, [r4, #8]
 80043a8:	4798      	blx	r3
 80043aa:	4601      	mov	r1, r0
 80043ac:	4620      	mov	r0, r4
 80043ae:	f7ff fddb 	bl	8003f68 <LCD_String_Interpretator>
 80043b2:	f894 105a 	ldrb.w	r1, [r4, #90]	; 0x5a
 80043b6:	6ce2      	ldr	r2, [r4, #76]	; 0x4c
 80043b8:	2964      	cmp	r1, #100	; 0x64
 80043ba:	460b      	mov	r3, r1
 80043bc:	bf28      	it	cs
 80043be:	2364      	movcs	r3, #100	; 0x64
 80043c0:	f884 305a 	strb.w	r3, [r4, #90]	; 0x5a
 80043c4:	b30a      	cbz	r2, 800440a <LCD_Init+0x86>
 80043c6:	6ad1      	ldr	r1, [r2, #44]	; 0x2c
 80043c8:	4817      	ldr	r0, [pc, #92]	; (8004428 <LCD_Init+0xa4>)
 80043ca:	fb01 f303 	mul.w	r3, r1, r3
 80043ce:	6d21      	ldr	r1, [r4, #80]	; 0x50
 80043d0:	fba0 0303 	umull	r0, r3, r0, r3
 80043d4:	f5b1 7f80 	cmp.w	r1, #256	; 0x100
 80043d8:	ea4f 1353 	mov.w	r3, r3, lsr #5
 80043dc:	d022      	beq.n	8004424 <LCD_Init+0xa0>
 80043de:	d80f      	bhi.n	8004400 <LCD_Init+0x7c>
 80043e0:	2901      	cmp	r1, #1
 80043e2:	d01a      	beq.n	800441a <LCD_Init+0x96>
 80043e4:	2910      	cmp	r1, #16
 80043e6:	bf08      	it	eq
 80043e8:	6393      	streq	r3, [r2, #56]	; 0x38
 80043ea:	6813      	ldr	r3, [r2, #0]
 80043ec:	07db      	lsls	r3, r3, #31
 80043ee:	d406      	bmi.n	80043fe <LCD_Init+0x7a>
 80043f0:	6a13      	ldr	r3, [r2, #32]
 80043f2:	4319      	orrs	r1, r3
 80043f4:	6211      	str	r1, [r2, #32]
 80043f6:	6813      	ldr	r3, [r2, #0]
 80043f8:	f043 0301 	orr.w	r3, r3, #1
 80043fc:	6013      	str	r3, [r2, #0]
 80043fe:	bd10      	pop	{r4, pc}
 8004400:	f5b1 5f80 	cmp.w	r1, #4096	; 0x1000
 8004404:	d1f1      	bne.n	80043ea <LCD_Init+0x66>
 8004406:	6413      	str	r3, [r2, #64]	; 0x40
 8004408:	e7ef      	b.n	80043ea <LCD_Init+0x66>
 800440a:	6d63      	ldr	r3, [r4, #84]	; 0x54
 800440c:	2b00      	cmp	r3, #0
 800440e:	d0f6      	beq.n	80043fe <LCD_Init+0x7a>
 8004410:	f8b4 2058 	ldrh.w	r2, [r4, #88]	; 0x58
 8004414:	b119      	cbz	r1, 800441e <LCD_Init+0x9a>
 8004416:	619a      	str	r2, [r3, #24]
 8004418:	bd10      	pop	{r4, pc}
 800441a:	6353      	str	r3, [r2, #52]	; 0x34
 800441c:	e7e5      	b.n	80043ea <LCD_Init+0x66>
 800441e:	0412      	lsls	r2, r2, #16
 8004420:	619a      	str	r2, [r3, #24]
 8004422:	e7f9      	b.n	8004418 <LCD_Init+0x94>
 8004424:	63d3      	str	r3, [r2, #60]	; 0x3c
 8004426:	e7e0      	b.n	80043ea <LCD_Init+0x66>
 8004428:	51eb851f 	.word	0x51eb851f

0800442c <LCD_FillWindow>:
 800442c:	b5f0      	push	{r4, r5, r6, r7, lr}
 800442e:	469c      	mov	ip, r3
 8004430:	b083      	sub	sp, #12
 8004432:	4561      	cmp	r1, ip
 8004434:	f8bd 3020 	ldrh.w	r3, [sp, #32]
 8004438:	9e09      	ldr	r6, [sp, #36]	; 0x24
 800443a:	468e      	mov	lr, r1
 800443c:	4604      	mov	r4, r0
 800443e:	d901      	bls.n	8004444 <LCD_FillWindow+0x18>
 8004440:	46e6      	mov	lr, ip
 8004442:	468c      	mov	ip, r1
 8004444:	429a      	cmp	r2, r3
 8004446:	d902      	bls.n	800444e <LCD_FillWindow+0x22>
 8004448:	4611      	mov	r1, r2
 800444a:	461a      	mov	r2, r3
 800444c:	460b      	mov	r3, r1
 800444e:	88a1      	ldrh	r1, [r4, #4]
 8004450:	4571      	cmp	r1, lr
 8004452:	f240 8096 	bls.w	8004582 <LCD_FillWindow+0x156>
 8004456:	88e0      	ldrh	r0, [r4, #6]
 8004458:	4290      	cmp	r0, r2
 800445a:	f240 8092 	bls.w	8004582 <LCD_FillWindow+0x156>
 800445e:	4561      	cmp	r1, ip
 8004460:	bf9c      	itt	ls
 8004462:	f101 31ff 	addls.w	r1, r1, #4294967295
 8004466:	fa1f fc81 	uxthls.w	ip, r1
 800446a:	4298      	cmp	r0, r3
 800446c:	bf9c      	itt	ls
 800446e:	f100 30ff 	addls.w	r0, r0, #4294967295
 8004472:	b283      	uxthls	r3, r0
 8004474:	89a1      	ldrh	r1, [r4, #12]
 8004476:	8960      	ldrh	r0, [r4, #10]
 8004478:	69a7      	ldr	r7, [r4, #24]
 800447a:	1a9d      	subs	r5, r3, r2
 800447c:	440b      	add	r3, r1
 800447e:	4411      	add	r1, r2
 8004480:	eb0c 0200 	add.w	r2, ip, r0
 8004484:	4470      	add	r0, lr
 8004486:	b29b      	uxth	r3, r3
 8004488:	ebac 0c0e 	sub.w	ip, ip, lr
 800448c:	b289      	uxth	r1, r1
 800448e:	b292      	uxth	r2, r2
 8004490:	3501      	adds	r5, #1
 8004492:	b280      	uxth	r0, r0
 8004494:	fb0c 5505 	mla	r5, ip, r5, r5
 8004498:	47b8      	blx	r7
 800449a:	4601      	mov	r1, r0
 800449c:	4620      	mov	r0, r4
 800449e:	f7ff fd63 	bl	8003f68 <LCD_String_Interpretator>
 80044a2:	f894 3641 	ldrb.w	r3, [r4, #1601]	; 0x641
 80044a6:	b92b      	cbnz	r3, 80044b4 <LCD_FillWindow+0x88>
 80044a8:	6c22      	ldr	r2, [r4, #64]	; 0x40
 80044aa:	b11a      	cbz	r2, 80044b4 <LCD_FillWindow+0x88>
 80044ac:	f8b4 3044 	ldrh.w	r3, [r4, #68]	; 0x44
 80044b0:	041b      	lsls	r3, r3, #16
 80044b2:	6193      	str	r3, [r2, #24]
 80044b4:	f894 3642 	ldrb.w	r3, [r4, #1602]	; 0x642
 80044b8:	b913      	cbnz	r3, 80044c0 <LCD_FillWindow+0x94>
 80044ba:	6ba3      	ldr	r3, [r4, #56]	; 0x38
 80044bc:	8fa2      	ldrh	r2, [r4, #60]	; 0x3c
 80044be:	619a      	str	r2, [r3, #24]
 80044c0:	4b5d      	ldr	r3, [pc, #372]	; (8004638 <LCD_FillWindow+0x20c>)
 80044c2:	f894 2048 	ldrb.w	r2, [r4, #72]	; 0x48
 80044c6:	ea03 2316 	and.w	r3, r3, r6, lsr #8
 80044ca:	f3c6 01c4 	ubfx	r1, r6, #3, #5
 80044ce:	0976      	lsrs	r6, r6, #5
 80044d0:	4319      	orrs	r1, r3
 80044d2:	f406 66fc 	and.w	r6, r6, #2016	; 0x7e0
 80044d6:	4331      	orrs	r1, r6
 80044d8:	2a01      	cmp	r2, #1
 80044da:	6a63      	ldr	r3, [r4, #36]	; 0x24
 80044dc:	b289      	uxth	r1, r1
 80044de:	f000 8082 	beq.w	80045e6 <LCD_FillWindow+0x1ba>
 80044e2:	6818      	ldr	r0, [r3, #0]
 80044e4:	f8a4 1644 	strh.w	r1, [r4, #1604]	; 0x644
 80044e8:	f420 402c 	bic.w	r0, r0, #44032	; 0xac00
 80044ec:	6018      	str	r0, [r3, #0]
 80044ee:	2a02      	cmp	r2, #2
 80044f0:	681a      	ldr	r2, [r3, #0]
 80044f2:	d148      	bne.n	8004586 <LCD_FillWindow+0x15a>
 80044f4:	f442 6200 	orr.w	r2, r2, #2048	; 0x800
 80044f8:	601a      	str	r2, [r3, #0]
 80044fa:	681a      	ldr	r2, [r3, #0]
 80044fc:	f042 0240 	orr.w	r2, r2, #64	; 0x40
 8004500:	601a      	str	r2, [r3, #0]
 8004502:	6aa2      	ldr	r2, [r4, #40]	; 0x28
 8004504:	2a00      	cmp	r2, #0
 8004506:	f000 8089 	beq.w	800461c <LCD_FillWindow+0x1f0>
 800450a:	6ae6      	ldr	r6, [r4, #44]	; 0x2c
 800450c:	484b      	ldr	r0, [pc, #300]	; (800463c <LCD_FillWindow+0x210>)
 800450e:	494c      	ldr	r1, [pc, #304]	; (8004640 <LCD_FillWindow+0x214>)
 8004510:	f810 c006 	ldrb.w	ip, [r0, r6]
 8004514:	c903      	ldmia	r1, {r0, r1}
 8004516:	af02      	add	r7, sp, #8
 8004518:	e907 0003 	stmdb	r7, {r0, r1}
 800451c:	f106 0108 	add.w	r1, r6, #8
 8004520:	2e03      	cmp	r6, #3
 8004522:	eb0d 0601 	add.w	r6, sp, r1
 8004526:	4494      	add	ip, r2
 8004528:	f816 0c08 	ldrb.w	r0, [r6, #-8]
 800452c:	bf8c      	ite	hi
 800452e:	320c      	addhi	r2, #12
 8004530:	3208      	addls	r2, #8
 8004532:	213f      	movs	r1, #63	; 0x3f
 8004534:	4081      	lsls	r1, r0
 8004536:	6011      	str	r1, [r2, #0]
 8004538:	685a      	ldr	r2, [r3, #4]
 800453a:	f042 0202 	orr.w	r2, r2, #2
 800453e:	605a      	str	r2, [r3, #4]
 8004540:	330c      	adds	r3, #12
 8004542:	f8cc 3008 	str.w	r3, [ip, #8]
 8004546:	f204 6344 	addw	r3, r4, #1604	; 0x644
 800454a:	f8cc 300c 	str.w	r3, [ip, #12]
 800454e:	f8dc 3000 	ldr.w	r3, [ip]
 8004552:	f423 7300 	bic.w	r3, r3, #512	; 0x200
 8004556:	f8cc 3000 	str.w	r3, [ip]
 800455a:	f8dc 3000 	ldr.w	r3, [ip]
 800455e:	f5b5 3f80 	cmp.w	r5, #65536	; 0x10000
 8004562:	f423 6380 	bic.w	r3, r3, #1024	; 0x400
 8004566:	f8cc 3000 	str.w	r3, [ip]
 800456a:	d24d      	bcs.n	8004608 <LCD_FillWindow+0x1dc>
 800456c:	2300      	movs	r3, #0
 800456e:	f8cc 5004 	str.w	r5, [ip, #4]
 8004572:	f8c4 363c 	str.w	r3, [r4, #1596]	; 0x63c
 8004576:	f8dc 3000 	ldr.w	r3, [ip]
 800457a:	f043 0301 	orr.w	r3, r3, #1
 800457e:	f8cc 3000 	str.w	r3, [ip]
 8004582:	b003      	add	sp, #12
 8004584:	bdf0      	pop	{r4, r5, r6, r7, pc}
 8004586:	f042 0240 	orr.w	r2, r2, #64	; 0x40
 800458a:	601a      	str	r2, [r3, #0]
 800458c:	6aa2      	ldr	r2, [r4, #40]	; 0x28
 800458e:	2a00      	cmp	r2, #0
 8004590:	d1bb      	bne.n	800450a <LCD_FillWindow+0xde>
 8004592:	b2c8      	uxtb	r0, r1
 8004594:	0a09      	lsrs	r1, r1, #8
 8004596:	b1ad      	cbz	r5, 80045c4 <LCD_FillWindow+0x198>
 8004598:	60d8      	str	r0, [r3, #12]
 800459a:	689a      	ldr	r2, [r3, #8]
 800459c:	0796      	lsls	r6, r2, #30
 800459e:	d403      	bmi.n	80045a8 <LCD_FillWindow+0x17c>
 80045a0:	bf00      	nop
 80045a2:	689a      	ldr	r2, [r3, #8]
 80045a4:	0797      	lsls	r7, r2, #30
 80045a6:	d5fb      	bpl.n	80045a0 <LCD_FillWindow+0x174>
 80045a8:	60d9      	str	r1, [r3, #12]
 80045aa:	689a      	ldr	r2, [r3, #8]
 80045ac:	0792      	lsls	r2, r2, #30
 80045ae:	d403      	bmi.n	80045b8 <LCD_FillWindow+0x18c>
 80045b0:	bf00      	nop
 80045b2:	689a      	ldr	r2, [r3, #8]
 80045b4:	0796      	lsls	r6, r2, #30
 80045b6:	d5fb      	bpl.n	80045b0 <LCD_FillWindow+0x184>
 80045b8:	3d01      	subs	r5, #1
 80045ba:	d1ed      	bne.n	8004598 <LCD_FillWindow+0x16c>
 80045bc:	689a      	ldr	r2, [r3, #8]
 80045be:	0612      	lsls	r2, r2, #24
 80045c0:	d503      	bpl.n	80045ca <LCD_FillWindow+0x19e>
 80045c2:	bf00      	nop
 80045c4:	689a      	ldr	r2, [r3, #8]
 80045c6:	0612      	lsls	r2, r2, #24
 80045c8:	d4fb      	bmi.n	80045c2 <LCD_FillWindow+0x196>
 80045ca:	f894 2641 	ldrb.w	r2, [r4, #1601]	; 0x641
 80045ce:	b922      	cbnz	r2, 80045da <LCD_FillWindow+0x1ae>
 80045d0:	6c22      	ldr	r2, [r4, #64]	; 0x40
 80045d2:	b112      	cbz	r2, 80045da <LCD_FillWindow+0x1ae>
 80045d4:	f8b4 1044 	ldrh.w	r1, [r4, #68]	; 0x44
 80045d8:	6191      	str	r1, [r2, #24]
 80045da:	681a      	ldr	r2, [r3, #0]
 80045dc:	f022 0240 	bic.w	r2, r2, #64	; 0x40
 80045e0:	601a      	str	r2, [r3, #0]
 80045e2:	b003      	add	sp, #12
 80045e4:	bdf0      	pop	{r4, r5, r6, r7, pc}
 80045e6:	681a      	ldr	r2, [r3, #0]
 80045e8:	ba49      	rev16	r1, r1
 80045ea:	f422 422c 	bic.w	r2, r2, #44032	; 0xac00
 80045ee:	f8a4 1644 	strh.w	r1, [r4, #1604]	; 0x644
 80045f2:	601a      	str	r2, [r3, #0]
 80045f4:	681a      	ldr	r2, [r3, #0]
 80045f6:	f042 0240 	orr.w	r2, r2, #64	; 0x40
 80045fa:	601a      	str	r2, [r3, #0]
 80045fc:	6aa2      	ldr	r2, [r4, #40]	; 0x28
 80045fe:	b289      	uxth	r1, r1
 8004600:	2a00      	cmp	r2, #0
 8004602:	d0c6      	beq.n	8004592 <LCD_FillWindow+0x166>
 8004604:	006d      	lsls	r5, r5, #1
 8004606:	e780      	b.n	800450a <LCD_FillWindow+0xde>
 8004608:	f5a5 457f 	sub.w	r5, r5, #65280	; 0xff00
 800460c:	f64f 73ff 	movw	r3, #65535	; 0xffff
 8004610:	3dff      	subs	r5, #255	; 0xff
 8004612:	f8cc 3004 	str.w	r3, [ip, #4]
 8004616:	f8c4 563c 	str.w	r5, [r4, #1596]	; 0x63c
 800461a:	e7ac      	b.n	8004576 <LCD_FillWindow+0x14a>
 800461c:	2d00      	cmp	r5, #0
 800461e:	d0d1      	beq.n	80045c4 <LCD_FillWindow+0x198>
 8004620:	60d9      	str	r1, [r3, #12]
 8004622:	689a      	ldr	r2, [r3, #8]
 8004624:	0792      	lsls	r2, r2, #30
 8004626:	d403      	bmi.n	8004630 <LCD_FillWindow+0x204>
 8004628:	bf00      	nop
 800462a:	689a      	ldr	r2, [r3, #8]
 800462c:	0797      	lsls	r7, r2, #30
 800462e:	d5fb      	bpl.n	8004628 <LCD_FillWindow+0x1fc>
 8004630:	3d01      	subs	r5, #1
 8004632:	d1f5      	bne.n	8004620 <LCD_FillWindow+0x1f4>
 8004634:	e7c6      	b.n	80045c4 <LCD_FillWindow+0x198>
 8004636:	bf00      	nop
 8004638:	fffff800 	.word	0xfffff800
 800463c:	0800e568 	.word	0x0800e568
 8004640:	0800e424 	.word	0x0800e424

08004644 <LCD_Fill>:
 8004644:	b510      	push	{r4, lr}
 8004646:	88c4      	ldrh	r4, [r0, #6]
 8004648:	8883      	ldrh	r3, [r0, #4]
 800464a:	3c01      	subs	r4, #1
 800464c:	b082      	sub	sp, #8
 800464e:	2200      	movs	r2, #0
 8004650:	b2a4      	uxth	r4, r4
 8004652:	3b01      	subs	r3, #1
 8004654:	e9cd 4100 	strd	r4, r1, [sp]
 8004658:	b29b      	uxth	r3, r3
 800465a:	4611      	mov	r1, r2
 800465c:	f7ff fee6 	bl	800442c <LCD_FillWindow>
 8004660:	b002      	add	sp, #8
 8004662:	bd10      	pop	{r4, pc}

08004664 <LCD_DrawFilledRectangle>:
 8004664:	b430      	push	{r4, r5}
 8004666:	4299      	cmp	r1, r3
 8004668:	f9bd c008 	ldrsh.w	ip, [sp, #8]
 800466c:	9d03      	ldr	r5, [sp, #12]
 800466e:	dd02      	ble.n	8004676 <LCD_DrawFilledRectangle+0x12>
 8004670:	460c      	mov	r4, r1
 8004672:	4619      	mov	r1, r3
 8004674:	4623      	mov	r3, r4
 8004676:	4562      	cmp	r2, ip
 8004678:	dd02      	ble.n	8004680 <LCD_DrawFilledRectangle+0x1c>
 800467a:	4614      	mov	r4, r2
 800467c:	4662      	mov	r2, ip
 800467e:	46a4      	mov	ip, r4
 8004680:	2b00      	cmp	r3, #0
 8004682:	db08      	blt.n	8004696 <LCD_DrawFilledRectangle+0x32>
 8004684:	8884      	ldrh	r4, [r0, #4]
 8004686:	428c      	cmp	r4, r1
 8004688:	dd05      	ble.n	8004696 <LCD_DrawFilledRectangle+0x32>
 800468a:	f1bc 0f00 	cmp.w	ip, #0
 800468e:	db02      	blt.n	8004696 <LCD_DrawFilledRectangle+0x32>
 8004690:	88c4      	ldrh	r4, [r0, #6]
 8004692:	4294      	cmp	r4, r2
 8004694:	dc01      	bgt.n	800469a <LCD_DrawFilledRectangle+0x36>
 8004696:	bc30      	pop	{r4, r5}
 8004698:	4770      	bx	lr
 800469a:	fa1f f48c 	uxth.w	r4, ip
 800469e:	ea22 72e2 	bic.w	r2, r2, r2, asr #31
 80046a2:	ea21 71e1 	bic.w	r1, r1, r1, asr #31
 80046a6:	9503      	str	r5, [sp, #12]
 80046a8:	9402      	str	r4, [sp, #8]
 80046aa:	b29b      	uxth	r3, r3
 80046ac:	bc30      	pop	{r4, r5}
 80046ae:	b292      	uxth	r2, r2
 80046b0:	b289      	uxth	r1, r1
 80046b2:	f7ff bebb 	b.w	800442c <LCD_FillWindow>
 80046b6:	bf00      	nop

080046b8 <LCD_WriteChar>:
 80046b8:	e92d 4ff0 	stmdb	sp!, {r4, r5, r6, r7, r8, r9, sl, fp, lr}
 80046bc:	b085      	sub	sp, #20
 80046be:	4694      	mov	ip, r2
 80046c0:	9101      	str	r1, [sp, #4]
 80046c2:	4aa9      	ldr	r2, [pc, #676]	; (8004968 <LCD_WriteChar+0x2b0>)
 80046c4:	990f      	ldr	r1, [sp, #60]	; 0x3c
 80046c6:	9f0e      	ldr	r7, [sp, #56]	; 0x38
 80046c8:	ea02 2211 	and.w	r2, r2, r1, lsr #8
 80046cc:	f3c1 0ac4 	ubfx	sl, r1, #3, #5
 80046d0:	ea4a 0a02 	orr.w	sl, sl, r2
 80046d4:	4606      	mov	r6, r0
 80046d6:	094a      	lsrs	r2, r1, #5
 80046d8:	f890 0048 	ldrb.w	r0, [r0, #72]	; 0x48
 80046dc:	f89d 1044 	ldrb.w	r1, [sp, #68]	; 0x44
 80046e0:	f402 62fc 	and.w	r2, r2, #2016	; 0x7e0
 80046e4:	ea4a 0a02 	orr.w	sl, sl, r2
 80046e8:	2801      	cmp	r0, #1
 80046ea:	9a10      	ldr	r2, [sp, #64]	; 0x40
 80046ec:	fa1f fa8a 	uxth.w	sl, sl
 80046f0:	d103      	bne.n	80046fa <LCD_WriteChar+0x42>
 80046f2:	fa9a fa9a 	rev16.w	sl, sl
 80046f6:	fa1f fa8a 	uxth.w	sl, sl
 80046fa:	4c9b      	ldr	r4, [pc, #620]	; (8004968 <LCD_WriteChar+0x2b0>)
 80046fc:	f3c2 09c4 	ubfx	r9, r2, #3, #5
 8004700:	ea04 2412 	and.w	r4, r4, r2, lsr #8
 8004704:	0952      	lsrs	r2, r2, #5
 8004706:	ea49 0904 	orr.w	r9, r9, r4
 800470a:	f402 62fc 	and.w	r2, r2, #2016	; 0x7e0
 800470e:	ea49 0202 	orr.w	r2, r9, r2
 8004712:	2801      	cmp	r0, #1
 8004714:	fa1f f982 	uxth.w	r9, r2
 8004718:	d103      	bne.n	8004722 <LCD_WriteChar+0x6a>
 800471a:	fa99 f999 	rev16.w	r9, r9
 800471e:	fa1f f989 	uxth.w	r9, r9
 8004722:	f897 b008 	ldrb.w	fp, [r7, #8]
 8004726:	459b      	cmp	fp, r3
 8004728:	d802      	bhi.n	8004730 <LCD_WriteChar+0x78>
 800472a:	7a7a      	ldrb	r2, [r7, #9]
 800472c:	429a      	cmp	r2, r3
 800472e:	d274      	bcs.n	800481a <LCD_WriteChar+0x162>
 8004730:	f04f 0b00 	mov.w	fp, #0
 8004734:	7838      	ldrb	r0, [r7, #0]
 8004736:	f100 38ff 	add.w	r8, r0, #4294967295
 800473a:	ea4f 08e8 	mov.w	r8, r8, asr #3
 800473e:	f108 0801 	add.w	r8, r8, #1
 8004742:	f1b8 0f04 	cmp.w	r8, #4
 8004746:	dc65      	bgt.n	8004814 <LCD_WriteChar+0x15c>
 8004748:	687a      	ldr	r2, [r7, #4]
 800474a:	787b      	ldrb	r3, [r7, #1]
 800474c:	fb08 fb0b 	mul.w	fp, r8, fp
 8004750:	fb03 2b0b 	mla	fp, r3, fp, r2
 8004754:	ea4f 02c8 	mov.w	r2, r8, lsl #3
 8004758:	3a01      	subs	r2, #1
 800475a:	2501      	movs	r5, #1
 800475c:	fa05 f202 	lsl.w	r2, r5, r2
 8004760:	9202      	str	r2, [sp, #8]
 8004762:	2900      	cmp	r1, #0
 8004764:	d05e      	beq.n	8004824 <LCD_WriteChar+0x16c>
 8004766:	2b00      	cmp	r3, #0
 8004768:	d054      	beq.n	8004814 <LCD_WriteChar+0x15c>
 800476a:	4691      	mov	r9, r2
 800476c:	f1b8 0f01 	cmp.w	r8, #1
 8004770:	f04f 0200 	mov.w	r2, #0
 8004774:	4601      	mov	r1, r0
 8004776:	46e2      	mov	sl, ip
 8004778:	4630      	mov	r0, r6
 800477a:	970e      	str	r7, [sp, #56]	; 0x38
 800477c:	4616      	mov	r6, r2
 800477e:	d044      	beq.n	800480a <LCD_WriteChar+0x152>
 8004780:	f1b8 0f02 	cmp.w	r8, #2
 8004784:	f000 80ce 	beq.w	8004924 <LCD_WriteChar+0x26c>
 8004788:	f1b8 0f03 	cmp.w	r8, #3
 800478c:	f000 80cd 	beq.w	800492a <LCD_WriteChar+0x272>
 8004790:	f8db 5000 	ldr.w	r5, [fp]
 8004794:	44c3      	add	fp, r8
 8004796:	2900      	cmp	r1, #0
 8004798:	d03c      	beq.n	8004814 <LCD_WriteChar+0x15c>
 800479a:	fa0f f28a 	sxth.w	r2, sl
 800479e:	2a00      	cmp	r2, #0
 80047a0:	db29      	blt.n	80047f6 <LCD_WriteChar+0x13e>
 80047a2:	9c01      	ldr	r4, [sp, #4]
 80047a4:	2700      	movs	r7, #0
 80047a6:	e003      	b.n	80047b0 <LCD_WriteChar+0xf8>
 80047a8:	3401      	adds	r4, #1
 80047aa:	42b9      	cmp	r1, r7
 80047ac:	b2a4      	uxth	r4, r4
 80047ae:	dd20      	ble.n	80047f2 <LCD_WriteChar+0x13a>
 80047b0:	fa05 f307 	lsl.w	r3, r5, r7
 80047b4:	ea13 0f09 	tst.w	r3, r9
 80047b8:	f107 0701 	add.w	r7, r7, #1
 80047bc:	d0f4      	beq.n	80047a8 <LCD_WriteChar+0xf0>
 80047be:	8883      	ldrh	r3, [r0, #4]
 80047c0:	fa0f fc84 	sxth.w	ip, r4
 80047c4:	4563      	cmp	r3, ip
 80047c6:	ddef      	ble.n	80047a8 <LCD_WriteChar+0xf0>
 80047c8:	f8b0 e006 	ldrh.w	lr, [r0, #6]
 80047cc:	9b0f      	ldr	r3, [sp, #60]	; 0x3c
 80047ce:	4596      	cmp	lr, r2
 80047d0:	ddea      	ble.n	80047a8 <LCD_WriteChar+0xf0>
 80047d2:	f1bc 0f00 	cmp.w	ip, #0
 80047d6:	dbe7      	blt.n	80047a8 <LCD_WriteChar+0xf0>
 80047d8:	4661      	mov	r1, ip
 80047da:	e9cd 0202 	strd	r0, r2, [sp, #8]
 80047de:	f7ff fc4f 	bl	8004080 <LCD_DrawPixel.part.0>
 80047e2:	9b0e      	ldr	r3, [sp, #56]	; 0x38
 80047e4:	7819      	ldrb	r1, [r3, #0]
 80047e6:	3401      	adds	r4, #1
 80047e8:	42b9      	cmp	r1, r7
 80047ea:	e9dd 0202 	ldrd	r0, r2, [sp, #8]
 80047ee:	b2a4      	uxth	r4, r4
 80047f0:	dcde      	bgt.n	80047b0 <LCD_WriteChar+0xf8>
 80047f2:	9b0e      	ldr	r3, [sp, #56]	; 0x38
 80047f4:	785b      	ldrb	r3, [r3, #1]
 80047f6:	3601      	adds	r6, #1
 80047f8:	429e      	cmp	r6, r3
 80047fa:	da0b      	bge.n	8004814 <LCD_WriteChar+0x15c>
 80047fc:	f10a 0a01 	add.w	sl, sl, #1
 8004800:	f1b8 0f01 	cmp.w	r8, #1
 8004804:	fa1f fa8a 	uxth.w	sl, sl
 8004808:	d1ba      	bne.n	8004780 <LCD_WriteChar+0xc8>
 800480a:	f89b 5000 	ldrb.w	r5, [fp]
 800480e:	44c3      	add	fp, r8
 8004810:	2900      	cmp	r1, #0
 8004812:	d1c2      	bne.n	800479a <LCD_WriteChar+0xe2>
 8004814:	b005      	add	sp, #20
 8004816:	e8bd 8ff0 	ldmia.w	sp!, {r4, r5, r6, r7, r8, r9, sl, fp, pc}
 800481a:	eba3 0b0b 	sub.w	fp, r3, fp
 800481e:	fa5f fb8b 	uxtb.w	fp, fp
 8004822:	e787      	b.n	8004734 <LCD_WriteChar+0x7c>
 8004824:	89b1      	ldrh	r1, [r6, #12]
 8004826:	9d01      	ldr	r5, [sp, #4]
 8004828:	8974      	ldrh	r4, [r6, #10]
 800482a:	f10c 32ff 	add.w	r2, ip, #4294967295
 800482e:	440a      	add	r2, r1
 8004830:	4413      	add	r3, r2
 8004832:	1e6a      	subs	r2, r5, #1
 8004834:	4422      	add	r2, r4
 8004836:	4402      	add	r2, r0
 8004838:	4628      	mov	r0, r5
 800483a:	4461      	add	r1, ip
 800483c:	4420      	add	r0, r4
 800483e:	b292      	uxth	r2, r2
 8004840:	b29b      	uxth	r3, r3
 8004842:	b289      	uxth	r1, r1
 8004844:	69b5      	ldr	r5, [r6, #24]
 8004846:	6a74      	ldr	r4, [r6, #36]	; 0x24
 8004848:	b280      	uxth	r0, r0
 800484a:	47a8      	blx	r5
 800484c:	4601      	mov	r1, r0
 800484e:	4630      	mov	r0, r6
 8004850:	f7ff fb8a 	bl	8003f68 <LCD_String_Interpretator>
 8004854:	6c32      	ldr	r2, [r6, #64]	; 0x40
 8004856:	b11a      	cbz	r2, 8004860 <LCD_WriteChar+0x1a8>
 8004858:	f8b6 3044 	ldrh.w	r3, [r6, #68]	; 0x44
 800485c:	041b      	lsls	r3, r3, #16
 800485e:	6193      	str	r3, [r2, #24]
 8004860:	6bb3      	ldr	r3, [r6, #56]	; 0x38
 8004862:	8fb2      	ldrh	r2, [r6, #60]	; 0x3c
 8004864:	619a      	str	r2, [r3, #24]
 8004866:	6823      	ldr	r3, [r4, #0]
 8004868:	f023 0340 	bic.w	r3, r3, #64	; 0x40
 800486c:	6023      	str	r3, [r4, #0]
 800486e:	6823      	ldr	r3, [r4, #0]
 8004870:	f423 432c 	bic.w	r3, r3, #44032	; 0xac00
 8004874:	6023      	str	r3, [r4, #0]
 8004876:	f896 3048 	ldrb.w	r3, [r6, #72]	; 0x48
 800487a:	2b02      	cmp	r3, #2
 800487c:	d060      	beq.n	8004940 <LCD_WriteChar+0x288>
 800487e:	6823      	ldr	r3, [r4, #0]
 8004880:	f043 0340 	orr.w	r3, r3, #64	; 0x40
 8004884:	6023      	str	r3, [r4, #0]
 8004886:	787b      	ldrb	r3, [r7, #1]
 8004888:	2b00      	cmp	r3, #0
 800488a:	d033      	beq.n	80048f4 <LCD_WriteChar+0x23c>
 800488c:	f1b8 0f01 	cmp.w	r8, #1
 8004890:	783b      	ldrb	r3, [r7, #0]
 8004892:	9d02      	ldr	r5, [sp, #8]
 8004894:	f04f 0c00 	mov.w	ip, #0
 8004898:	d028      	beq.n	80048ec <LCD_WriteChar+0x234>
 800489a:	f1b8 0f02 	cmp.w	r8, #2
 800489e:	d060      	beq.n	8004962 <LCD_WriteChar+0x2aa>
 80048a0:	f1b8 0f03 	cmp.w	r8, #3
 80048a4:	d062      	beq.n	800496c <LCD_WriteChar+0x2b4>
 80048a6:	f8db 0000 	ldr.w	r0, [fp]
 80048aa:	44c3      	add	fp, r8
 80048ac:	b313      	cbz	r3, 80048f4 <LCD_WriteChar+0x23c>
 80048ae:	2200      	movs	r2, #0
 80048b0:	fa00 f102 	lsl.w	r1, r0, r2
 80048b4:	68a3      	ldr	r3, [r4, #8]
 80048b6:	4229      	tst	r1, r5
 80048b8:	bf14      	ite	ne
 80048ba:	4651      	movne	r1, sl
 80048bc:	4649      	moveq	r1, r9
 80048be:	079b      	lsls	r3, r3, #30
 80048c0:	d403      	bmi.n	80048ca <LCD_WriteChar+0x212>
 80048c2:	bf00      	nop
 80048c4:	68a3      	ldr	r3, [r4, #8]
 80048c6:	079b      	lsls	r3, r3, #30
 80048c8:	d5fb      	bpl.n	80048c2 <LCD_WriteChar+0x20a>
 80048ca:	f896 3048 	ldrb.w	r3, [r6, #72]	; 0x48
 80048ce:	2b02      	cmp	r3, #2
 80048d0:	d13b      	bne.n	800494a <LCD_WriteChar+0x292>
 80048d2:	60e1      	str	r1, [r4, #12]
 80048d4:	783b      	ldrb	r3, [r7, #0]
 80048d6:	3201      	adds	r2, #1
 80048d8:	4293      	cmp	r3, r2
 80048da:	dce9      	bgt.n	80048b0 <LCD_WriteChar+0x1f8>
 80048dc:	787a      	ldrb	r2, [r7, #1]
 80048de:	f10c 0c01 	add.w	ip, ip, #1
 80048e2:	4562      	cmp	r2, ip
 80048e4:	dd06      	ble.n	80048f4 <LCD_WriteChar+0x23c>
 80048e6:	f1b8 0f01 	cmp.w	r8, #1
 80048ea:	d1d6      	bne.n	800489a <LCD_WriteChar+0x1e2>
 80048ec:	f89b 0000 	ldrb.w	r0, [fp]
 80048f0:	e7db      	b.n	80048aa <LCD_WriteChar+0x1f2>
 80048f2:	bf00      	nop
 80048f4:	68a3      	ldr	r3, [r4, #8]
 80048f6:	079a      	lsls	r2, r3, #30
 80048f8:	d5fb      	bpl.n	80048f2 <LCD_WriteChar+0x23a>
 80048fa:	68a3      	ldr	r3, [r4, #8]
 80048fc:	061b      	lsls	r3, r3, #24
 80048fe:	d503      	bpl.n	8004908 <LCD_WriteChar+0x250>
 8004900:	bf00      	nop
 8004902:	68a3      	ldr	r3, [r4, #8]
 8004904:	061b      	lsls	r3, r3, #24
 8004906:	d4fb      	bmi.n	8004900 <LCD_WriteChar+0x248>
 8004908:	6823      	ldr	r3, [r4, #0]
 800490a:	6c32      	ldr	r2, [r6, #64]	; 0x40
 800490c:	f023 0340 	bic.w	r3, r3, #64	; 0x40
 8004910:	6023      	str	r3, [r4, #0]
 8004912:	2a00      	cmp	r2, #0
 8004914:	f43f af7e 	beq.w	8004814 <LCD_WriteChar+0x15c>
 8004918:	f8b6 3044 	ldrh.w	r3, [r6, #68]	; 0x44
 800491c:	6193      	str	r3, [r2, #24]
 800491e:	b005      	add	sp, #20
 8004920:	e8bd 8ff0 	ldmia.w	sp!, {r4, r5, r6, r7, r8, r9, sl, fp, pc}
 8004924:	f8bb 5000 	ldrh.w	r5, [fp]
 8004928:	e734      	b.n	8004794 <LCD_WriteChar+0xdc>
 800492a:	f89b 5002 	ldrb.w	r5, [fp, #2]
 800492e:	f89b 2001 	ldrb.w	r2, [fp, #1]
 8004932:	042d      	lsls	r5, r5, #16
 8004934:	ea45 2502 	orr.w	r5, r5, r2, lsl #8
 8004938:	f89b 2000 	ldrb.w	r2, [fp]
 800493c:	4315      	orrs	r5, r2
 800493e:	e729      	b.n	8004794 <LCD_WriteChar+0xdc>
 8004940:	6823      	ldr	r3, [r4, #0]
 8004942:	f443 6300 	orr.w	r3, r3, #2048	; 0x800
 8004946:	6023      	str	r3, [r4, #0]
 8004948:	e799      	b.n	800487e <LCD_WriteChar+0x1c6>
 800494a:	b2cb      	uxtb	r3, r1
 800494c:	60e3      	str	r3, [r4, #12]
 800494e:	68a3      	ldr	r3, [r4, #8]
 8004950:	079b      	lsls	r3, r3, #30
 8004952:	f3c1 210f 	ubfx	r1, r1, #8, #16
 8004956:	d4bc      	bmi.n	80048d2 <LCD_WriteChar+0x21a>
 8004958:	bf00      	nop
 800495a:	68a3      	ldr	r3, [r4, #8]
 800495c:	079b      	lsls	r3, r3, #30
 800495e:	d5fb      	bpl.n	8004958 <LCD_WriteChar+0x2a0>
 8004960:	e7b7      	b.n	80048d2 <LCD_WriteChar+0x21a>
 8004962:	f8bb 0000 	ldrh.w	r0, [fp]
 8004966:	e7a0      	b.n	80048aa <LCD_WriteChar+0x1f2>
 8004968:	fffff800 	.word	0xfffff800
 800496c:	f89b 0002 	ldrb.w	r0, [fp, #2]
 8004970:	f89b 2001 	ldrb.w	r2, [fp, #1]
 8004974:	0400      	lsls	r0, r0, #16
 8004976:	ea40 2002 	orr.w	r0, r0, r2, lsl #8
 800497a:	f89b 2000 	ldrb.w	r2, [fp]
 800497e:	4310      	orrs	r0, r2
 8004980:	e793      	b.n	80048aa <LCD_WriteChar+0x1f2>
 8004982:	bf00      	nop

08004984 <LCD_WriteString>:
 8004984:	e92d 4ff0 	stmdb	sp!, {r4, r5, r6, r7, r8, r9, sl, fp, lr}
 8004988:	461f      	mov	r7, r3
 800498a:	b085      	sub	sp, #20
 800498c:	781b      	ldrb	r3, [r3, #0]
 800498e:	9e0e      	ldr	r6, [sp, #56]	; 0x38
 8004990:	f89d a044 	ldrb.w	sl, [sp, #68]	; 0x44
 8004994:	e9dd 890f 	ldrd	r8, r9, [sp, #60]	; 0x3c
 8004998:	4605      	mov	r5, r0
 800499a:	460c      	mov	r4, r1
 800499c:	4693      	mov	fp, r2
 800499e:	b303      	cbz	r3, 80049e2 <LCD_WriteString+0x5e>
 80049a0:	f896 c000 	ldrb.w	ip, [r6]
 80049a4:	88aa      	ldrh	r2, [r5, #4]
 80049a6:	44a4      	add	ip, r4
 80049a8:	4594      	cmp	ip, r2
 80049aa:	4628      	mov	r0, r5
 80049ac:	dd09      	ble.n	80049c2 <LCD_WriteString+0x3e>
 80049ae:	7871      	ldrb	r1, [r6, #1]
 80049b0:	88ec      	ldrh	r4, [r5, #6]
 80049b2:	448b      	add	fp, r1
 80049b4:	fa1f fb8b 	uxth.w	fp, fp
 80049b8:	4459      	add	r1, fp
 80049ba:	42a1      	cmp	r1, r4
 80049bc:	f04f 0400 	mov.w	r4, #0
 80049c0:	dc0f      	bgt.n	80049e2 <LCD_WriteString+0x5e>
 80049c2:	4621      	mov	r1, r4
 80049c4:	e9cd 9a02 	strd	r9, sl, [sp, #8]
 80049c8:	e9cd 6800 	strd	r6, r8, [sp]
 80049cc:	465a      	mov	r2, fp
 80049ce:	f7ff fe73 	bl	80046b8 <LCD_WriteChar>
 80049d2:	f896 c000 	ldrb.w	ip, [r6]
 80049d6:	f817 3f01 	ldrb.w	r3, [r7, #1]!
 80049da:	4464      	add	r4, ip
 80049dc:	b2a4      	uxth	r4, r4
 80049de:	2b00      	cmp	r3, #0
 80049e0:	d1e0      	bne.n	80049a4 <LCD_WriteString+0x20>
 80049e2:	81ec      	strh	r4, [r5, #14]
 80049e4:	f8a5 b010 	strh.w	fp, [r5, #16]
 80049e8:	b005      	add	sp, #20
 80049ea:	e8bd 8ff0 	ldmia.w	sp!, {r4, r5, r6, r7, r8, r9, sl, fp, pc}
 80049ee:	bf00      	nop

080049f0 <ILI9341_Init>:
 80049f0:	b158      	cbz	r0, 8004a0a <ILI9341_Init+0x1a>
 80049f2:	2802      	cmp	r0, #2
 80049f4:	d00e      	beq.n	8004a14 <ILI9341_Init+0x24>
 80049f6:	2801      	cmp	r0, #1
 80049f8:	d011      	beq.n	8004a1e <ILI9341_Init+0x2e>
 80049fa:	2803      	cmp	r0, #3
 80049fc:	480a      	ldr	r0, [pc, #40]	; (8004a28 <ILI9341_Init+0x38>)
 80049fe:	bf14      	ite	ne
 8004a00:	2300      	movne	r3, #0
 8004a02:	23f8      	moveq	r3, #248	; 0xf8
 8004a04:	f880 3041 	strb.w	r3, [r0, #65]	; 0x41
 8004a08:	4770      	bx	lr
 8004a0a:	4807      	ldr	r0, [pc, #28]	; (8004a28 <ILI9341_Init+0x38>)
 8004a0c:	2348      	movs	r3, #72	; 0x48
 8004a0e:	f880 3041 	strb.w	r3, [r0, #65]	; 0x41
 8004a12:	4770      	bx	lr
 8004a14:	4804      	ldr	r0, [pc, #16]	; (8004a28 <ILI9341_Init+0x38>)
 8004a16:	239c      	movs	r3, #156	; 0x9c
 8004a18:	f880 3041 	strb.w	r3, [r0, #65]	; 0x41
 8004a1c:	4770      	bx	lr
 8004a1e:	4802      	ldr	r0, [pc, #8]	; (8004a28 <ILI9341_Init+0x38>)
 8004a20:	232c      	movs	r3, #44	; 0x2c
 8004a22:	f880 3041 	strb.w	r3, [r0, #65]	; 0x41
 8004a26:	4770      	bx	lr
 8004a28:	2000001c 	.word	0x2000001c

08004a2c <ILI9341_SetWindow>:
 8004a2c:	b410      	push	{r4}
 8004a2e:	4c07      	ldr	r4, [pc, #28]	; (8004a4c <ILI9341_SetWindow+0x20>)
 8004a30:	ba49      	rev16	r1, r1
 8004a32:	8161      	strh	r1, [r4, #10]
 8004a34:	7120      	strb	r0, [r4, #4]
 8004a36:	ba5b      	rev16	r3, r3
 8004a38:	0a00      	lsrs	r0, r0, #8
 8004a3a:	0a11      	lsrs	r1, r2, #8
 8004a3c:	70e0      	strb	r0, [r4, #3]
 8004a3e:	7161      	strb	r1, [r4, #5]
 8004a40:	4620      	mov	r0, r4
 8004a42:	71a2      	strb	r2, [r4, #6]
 8004a44:	81a3      	strh	r3, [r4, #12]
 8004a46:	f85d 4b04 	ldr.w	r4, [sp], #4
 8004a4a:	4770      	bx	lr
 8004a4c:	200000b0 	.word	0x200000b0

08004a50 <ILI9341_SleepIn>:
 8004a50:	4800      	ldr	r0, [pc, #0]	; (8004a54 <ILI9341_SleepIn+0x4>)
 8004a52:	4770      	bx	lr
 8004a54:	200000c4 	.word	0x200000c4

08004a58 <ILI9341_SleepOut>:
 8004a58:	4800      	ldr	r0, [pc, #0]	; (8004a5c <ILI9341_SleepOut+0x4>)
 8004a5a:	4770      	bx	lr
 8004a5c:	200000cc 	.word	0x200000cc

08004a60 <LL_EXTI_Init>:
 8004a60:	b410      	push	{r4}
 8004a62:	4603      	mov	r3, r0
 8004a64:	7900      	ldrb	r0, [r0, #4]
 8004a66:	b1a8      	cbz	r0, 8004a94 <LL_EXTI_Init+0x34>
 8004a68:	6818      	ldr	r0, [r3, #0]
 8004a6a:	b180      	cbz	r0, 8004a8e <LL_EXTI_Init+0x2e>
 8004a6c:	795a      	ldrb	r2, [r3, #5]
 8004a6e:	2a01      	cmp	r2, #1
 8004a70:	d02f      	beq.n	8004ad2 <LL_EXTI_Init+0x72>
 8004a72:	2a02      	cmp	r2, #2
 8004a74:	d01b      	beq.n	8004aae <LL_EXTI_Init+0x4e>
 8004a76:	b31a      	cbz	r2, 8004ac0 <LL_EXTI_Init+0x60>
 8004a78:	2201      	movs	r2, #1
 8004a7a:	799b      	ldrb	r3, [r3, #6]
 8004a7c:	2b00      	cmp	r3, #0
 8004a7e:	d03a      	beq.n	8004af6 <LL_EXTI_Init+0x96>
 8004a80:	2b02      	cmp	r3, #2
 8004a82:	d030      	beq.n	8004ae6 <LL_EXTI_Init+0x86>
 8004a84:	2b03      	cmp	r3, #3
 8004a86:	d044      	beq.n	8004b12 <LL_EXTI_Init+0xb2>
 8004a88:	2b01      	cmp	r3, #1
 8004a8a:	d038      	beq.n	8004afe <LL_EXTI_Init+0x9e>
 8004a8c:	2001      	movs	r0, #1
 8004a8e:	f85d 4b04 	ldr.w	r4, [sp], #4
 8004a92:	4770      	bx	lr
 8004a94:	4a21      	ldr	r2, [pc, #132]	; (8004b1c <LL_EXTI_Init+0xbc>)
 8004a96:	681c      	ldr	r4, [r3, #0]
 8004a98:	6811      	ldr	r1, [r2, #0]
 8004a9a:	ea21 0104 	bic.w	r1, r1, r4
 8004a9e:	6011      	str	r1, [r2, #0]
 8004aa0:	6853      	ldr	r3, [r2, #4]
 8004aa2:	ea23 0304 	bic.w	r3, r3, r4
 8004aa6:	6053      	str	r3, [r2, #4]
 8004aa8:	f85d 4b04 	ldr.w	r4, [sp], #4
 8004aac:	4770      	bx	lr
 8004aae:	491b      	ldr	r1, [pc, #108]	; (8004b1c <LL_EXTI_Init+0xbc>)
 8004ab0:	680c      	ldr	r4, [r1, #0]
 8004ab2:	4304      	orrs	r4, r0
 8004ab4:	600c      	str	r4, [r1, #0]
 8004ab6:	684c      	ldr	r4, [r1, #4]
 8004ab8:	4304      	orrs	r4, r0
 8004aba:	2200      	movs	r2, #0
 8004abc:	604c      	str	r4, [r1, #4]
 8004abe:	e7dc      	b.n	8004a7a <LL_EXTI_Init+0x1a>
 8004ac0:	4916      	ldr	r1, [pc, #88]	; (8004b1c <LL_EXTI_Init+0xbc>)
 8004ac2:	684c      	ldr	r4, [r1, #4]
 8004ac4:	ea24 0400 	bic.w	r4, r4, r0
 8004ac8:	604c      	str	r4, [r1, #4]
 8004aca:	680c      	ldr	r4, [r1, #0]
 8004acc:	4304      	orrs	r4, r0
 8004ace:	600c      	str	r4, [r1, #0]
 8004ad0:	e7d3      	b.n	8004a7a <LL_EXTI_Init+0x1a>
 8004ad2:	4912      	ldr	r1, [pc, #72]	; (8004b1c <LL_EXTI_Init+0xbc>)
 8004ad4:	680c      	ldr	r4, [r1, #0]
 8004ad6:	ea24 0400 	bic.w	r4, r4, r0
 8004ada:	600c      	str	r4, [r1, #0]
 8004adc:	684c      	ldr	r4, [r1, #4]
 8004ade:	4304      	orrs	r4, r0
 8004ae0:	2200      	movs	r2, #0
 8004ae2:	604c      	str	r4, [r1, #4]
 8004ae4:	e7c9      	b.n	8004a7a <LL_EXTI_Init+0x1a>
 8004ae6:	4b0d      	ldr	r3, [pc, #52]	; (8004b1c <LL_EXTI_Init+0xbc>)
 8004ae8:	6899      	ldr	r1, [r3, #8]
 8004aea:	ea21 0100 	bic.w	r1, r1, r0
 8004aee:	6099      	str	r1, [r3, #8]
 8004af0:	68d9      	ldr	r1, [r3, #12]
 8004af2:	4308      	orrs	r0, r1
 8004af4:	60d8      	str	r0, [r3, #12]
 8004af6:	4610      	mov	r0, r2
 8004af8:	f85d 4b04 	ldr.w	r4, [sp], #4
 8004afc:	4770      	bx	lr
 8004afe:	4b07      	ldr	r3, [pc, #28]	; (8004b1c <LL_EXTI_Init+0xbc>)
 8004b00:	68d9      	ldr	r1, [r3, #12]
 8004b02:	ea21 0100 	bic.w	r1, r1, r0
 8004b06:	60d9      	str	r1, [r3, #12]
 8004b08:	6899      	ldr	r1, [r3, #8]
 8004b0a:	4308      	orrs	r0, r1
 8004b0c:	6098      	str	r0, [r3, #8]
 8004b0e:	4610      	mov	r0, r2
 8004b10:	e7bd      	b.n	8004a8e <LL_EXTI_Init+0x2e>
 8004b12:	4b02      	ldr	r3, [pc, #8]	; (8004b1c <LL_EXTI_Init+0xbc>)
 8004b14:	6899      	ldr	r1, [r3, #8]
 8004b16:	4301      	orrs	r1, r0
 8004b18:	e7e9      	b.n	8004aee <LL_EXTI_Init+0x8e>
 8004b1a:	bf00      	nop
 8004b1c:	40013c00 	.word	0x40013c00

08004b20 <LL_GPIO_Init>:
 8004b20:	e92d 47f0 	stmdb	sp!, {r4, r5, r6, r7, r8, r9, sl, lr}
 8004b24:	680c      	ldr	r4, [r1, #0]
 8004b26:	fa94 f2a4 	rbit	r2, r4
 8004b2a:	fab2 f282 	clz	r2, r2
 8004b2e:	fa34 f302 	lsrs.w	r3, r4, r2
 8004b32:	d07d      	beq.n	8004c30 <LL_GPIO_Init+0x110>
 8004b34:	f04f 0e01 	mov.w	lr, #1
 8004b38:	f04f 0c03 	mov.w	ip, #3
 8004b3c:	f04f 0a0f 	mov.w	sl, #15
 8004b40:	e017      	b.n	8004b72 <LL_GPIO_Init+0x52>
 8004b42:	f8d0 8000 	ldr.w	r8, [r0]
 8004b46:	fa93 f7a3 	rbit	r7, r3
 8004b4a:	fab7 f787 	clz	r7, r7
 8004b4e:	fa93 f3a3 	rbit	r3, r3
 8004b52:	fab3 f383 	clz	r3, r3
 8004b56:	007f      	lsls	r7, r7, #1
 8004b58:	fa0c f707 	lsl.w	r7, ip, r7
 8004b5c:	005b      	lsls	r3, r3, #1
 8004b5e:	ea28 0707 	bic.w	r7, r8, r7
 8004b62:	fa05 f303 	lsl.w	r3, r5, r3
 8004b66:	433b      	orrs	r3, r7
 8004b68:	6003      	str	r3, [r0, #0]
 8004b6a:	3201      	adds	r2, #1
 8004b6c:	fa34 f302 	lsrs.w	r3, r4, r2
 8004b70:	d05e      	beq.n	8004c30 <LL_GPIO_Init+0x110>
 8004b72:	fa0e f302 	lsl.w	r3, lr, r2
 8004b76:	4023      	ands	r3, r4
 8004b78:	d0f7      	beq.n	8004b6a <LL_GPIO_Init+0x4a>
 8004b7a:	684d      	ldr	r5, [r1, #4]
 8004b7c:	1e6f      	subs	r7, r5, #1
 8004b7e:	2f01      	cmp	r7, #1
 8004b80:	d81f      	bhi.n	8004bc2 <LL_GPIO_Init+0xa2>
 8004b82:	f8d0 8008 	ldr.w	r8, [r0, #8]
 8004b86:	fa93 f7a3 	rbit	r7, r3
 8004b8a:	fab7 f787 	clz	r7, r7
 8004b8e:	fa93 f9a3 	rbit	r9, r3
 8004b92:	688e      	ldr	r6, [r1, #8]
 8004b94:	fab9 f989 	clz	r9, r9
 8004b98:	007f      	lsls	r7, r7, #1
 8004b9a:	fa0c f707 	lsl.w	r7, ip, r7
 8004b9e:	ea4f 0949 	mov.w	r9, r9, lsl #1
 8004ba2:	ea28 0707 	bic.w	r7, r8, r7
 8004ba6:	fa06 f909 	lsl.w	r9, r6, r9
 8004baa:	ea47 0709 	orr.w	r7, r7, r9
 8004bae:	6087      	str	r7, [r0, #8]
 8004bb0:	6847      	ldr	r7, [r0, #4]
 8004bb2:	68ce      	ldr	r6, [r1, #12]
 8004bb4:	ea27 0703 	bic.w	r7, r7, r3
 8004bb8:	fb06 f803 	mul.w	r8, r6, r3
 8004bbc:	ea47 0708 	orr.w	r7, r7, r8
 8004bc0:	6047      	str	r7, [r0, #4]
 8004bc2:	f8d0 800c 	ldr.w	r8, [r0, #12]
 8004bc6:	fa93 f7a3 	rbit	r7, r3
 8004bca:	fab7 f787 	clz	r7, r7
 8004bce:	fa93 f9a3 	rbit	r9, r3
 8004bd2:	690e      	ldr	r6, [r1, #16]
 8004bd4:	fab9 f989 	clz	r9, r9
 8004bd8:	007f      	lsls	r7, r7, #1
 8004bda:	fa0c f707 	lsl.w	r7, ip, r7
 8004bde:	ea4f 0949 	mov.w	r9, r9, lsl #1
 8004be2:	ea28 0707 	bic.w	r7, r8, r7
 8004be6:	fa06 f909 	lsl.w	r9, r6, r9
 8004bea:	ea47 0709 	orr.w	r7, r7, r9
 8004bee:	2d02      	cmp	r5, #2
 8004bf0:	60c7      	str	r7, [r0, #12]
 8004bf2:	d1a6      	bne.n	8004b42 <LL_GPIO_Init+0x22>
 8004bf4:	fa93 f7a3 	rbit	r7, r3
 8004bf8:	fab7 f787 	clz	r7, r7
 8004bfc:	2f07      	cmp	r7, #7
 8004bfe:	dc1a      	bgt.n	8004c36 <LL_GPIO_Init+0x116>
 8004c00:	f8d0 8020 	ldr.w	r8, [r0, #32]
 8004c04:	fa93 f7a3 	rbit	r7, r3
 8004c08:	fab7 f787 	clz	r7, r7
 8004c0c:	fa93 f9a3 	rbit	r9, r3
 8004c10:	694e      	ldr	r6, [r1, #20]
 8004c12:	fab9 f989 	clz	r9, r9
 8004c16:	00bf      	lsls	r7, r7, #2
 8004c18:	fa0a f707 	lsl.w	r7, sl, r7
 8004c1c:	ea4f 0989 	mov.w	r9, r9, lsl #2
 8004c20:	ea28 0707 	bic.w	r7, r8, r7
 8004c24:	fa06 f909 	lsl.w	r9, r6, r9
 8004c28:	ea47 0709 	orr.w	r7, r7, r9
 8004c2c:	6207      	str	r7, [r0, #32]
 8004c2e:	e788      	b.n	8004b42 <LL_GPIO_Init+0x22>
 8004c30:	2000      	movs	r0, #0
 8004c32:	e8bd 87f0 	ldmia.w	sp!, {r4, r5, r6, r7, r8, r9, sl, pc}
 8004c36:	f8d0 9024 	ldr.w	r9, [r0, #36]	; 0x24
 8004c3a:	0a1f      	lsrs	r7, r3, #8
 8004c3c:	fa97 f8a7 	rbit	r8, r7
 8004c40:	fab8 f888 	clz	r8, r8
 8004c44:	fa97 f7a7 	rbit	r7, r7
 8004c48:	694e      	ldr	r6, [r1, #20]
 8004c4a:	fab7 f787 	clz	r7, r7
 8004c4e:	ea4f 0888 	mov.w	r8, r8, lsl #2
 8004c52:	fa0a f808 	lsl.w	r8, sl, r8
 8004c56:	00bf      	lsls	r7, r7, #2
 8004c58:	ea29 0808 	bic.w	r8, r9, r8
 8004c5c:	fa06 f707 	lsl.w	r7, r6, r7
 8004c60:	ea48 0707 	orr.w	r7, r8, r7
 8004c64:	6247      	str	r7, [r0, #36]	; 0x24
 8004c66:	e76c      	b.n	8004b42 <LL_GPIO_Init+0x22>

08004c68 <LL_RCC_GetI2SClockFreq>:
 8004c68:	f5b0 0f00 	cmp.w	r0, #8388608	; 0x800000
 8004c6c:	d001      	beq.n	8004c72 <LL_RCC_GetI2SClockFreq+0xa>
 8004c6e:	2000      	movs	r0, #0
 8004c70:	4770      	bx	lr
 8004c72:	4a13      	ldr	r2, [pc, #76]	; (8004cc0 <LL_RCC_GetI2SClockFreq+0x58>)
 8004c74:	6893      	ldr	r3, [r2, #8]
 8004c76:	021b      	lsls	r3, r3, #8
 8004c78:	d420      	bmi.n	8004cbc <LL_RCC_GetI2SClockFreq+0x54>
 8004c7a:	6810      	ldr	r0, [r2, #0]
 8004c7c:	f010 6000 	ands.w	r0, r0, #134217728	; 0x8000000
 8004c80:	d01b      	beq.n	8004cba <LL_RCC_GetI2SClockFreq+0x52>
 8004c82:	6851      	ldr	r1, [r2, #4]
 8004c84:	4b0f      	ldr	r3, [pc, #60]	; (8004cc4 <LL_RCC_GetI2SClockFreq+0x5c>)
 8004c86:	b410      	push	{r4}
 8004c88:	6854      	ldr	r4, [r2, #4]
 8004c8a:	f8d2 0084 	ldr.w	r0, [r2, #132]	; 0x84
 8004c8e:	f8d2 2084 	ldr.w	r2, [r2, #132]	; 0x84
 8004c92:	f411 0f80 	tst.w	r1, #4194304	; 0x400000
 8004c96:	f3c0 1188 	ubfx	r1, r0, #6, #9
 8004c9a:	f004 0c3f 	and.w	ip, r4, #63	; 0x3f
 8004c9e:	480a      	ldr	r0, [pc, #40]	; (8004cc8 <LL_RCC_GetI2SClockFreq+0x60>)
 8004ca0:	f85d 4b04 	ldr.w	r4, [sp], #4
 8004ca4:	f3c2 7202 	ubfx	r2, r2, #28, #3
 8004ca8:	bf18      	it	ne
 8004caa:	4618      	movne	r0, r3
 8004cac:	fbb0 f0fc 	udiv	r0, r0, ip
 8004cb0:	fb01 f000 	mul.w	r0, r1, r0
 8004cb4:	fbb0 f0f2 	udiv	r0, r0, r2
 8004cb8:	4770      	bx	lr
 8004cba:	4770      	bx	lr
 8004cbc:	4803      	ldr	r0, [pc, #12]	; (8004ccc <LL_RCC_GetI2SClockFreq+0x64>)
 8004cbe:	4770      	bx	lr
 8004cc0:	40023800 	.word	0x40023800
 8004cc4:	017d7840 	.word	0x017d7840
 8004cc8:	00f42400 	.word	0x00f42400
 8004ccc:	00bb8000 	.word	0x00bb8000

08004cd0 <LL_SPI_Init>:
 8004cd0:	4602      	mov	r2, r0
 8004cd2:	6800      	ldr	r0, [r0, #0]
 8004cd4:	f010 0040 	ands.w	r0, r0, #64	; 0x40
 8004cd8:	d128      	bne.n	8004d2c <LL_SPI_Init+0x5c>
 8004cda:	6813      	ldr	r3, [r2, #0]
 8004cdc:	b430      	push	{r4, r5}
 8004cde:	f423 4c7f 	bic.w	ip, r3, #65280	; 0xff00
 8004ce2:	e9d1 3500 	ldrd	r3, r5, [r1]
 8004ce6:	432b      	orrs	r3, r5
 8004ce8:	688d      	ldr	r5, [r1, #8]
 8004cea:	694c      	ldr	r4, [r1, #20]
 8004cec:	432b      	orrs	r3, r5
 8004cee:	68cd      	ldr	r5, [r1, #12]
 8004cf0:	432b      	orrs	r3, r5
 8004cf2:	690d      	ldr	r5, [r1, #16]
 8004cf4:	432b      	orrs	r3, r5
 8004cf6:	698d      	ldr	r5, [r1, #24]
 8004cf8:	4323      	orrs	r3, r4
 8004cfa:	432b      	orrs	r3, r5
 8004cfc:	69cd      	ldr	r5, [r1, #28]
 8004cfe:	432b      	orrs	r3, r5
 8004d00:	6a0d      	ldr	r5, [r1, #32]
 8004d02:	f02c 0cbf 	bic.w	ip, ip, #191	; 0xbf
 8004d06:	432b      	orrs	r3, r5
 8004d08:	ea43 030c 	orr.w	r3, r3, ip
 8004d0c:	6013      	str	r3, [r2, #0]
 8004d0e:	6853      	ldr	r3, [r2, #4]
 8004d10:	f023 0304 	bic.w	r3, r3, #4
 8004d14:	ea43 4314 	orr.w	r3, r3, r4, lsr #16
 8004d18:	f5b5 5f00 	cmp.w	r5, #8192	; 0x2000
 8004d1c:	6053      	str	r3, [r2, #4]
 8004d1e:	d00b      	beq.n	8004d38 <LL_SPI_Init+0x68>
 8004d20:	69d3      	ldr	r3, [r2, #28]
 8004d22:	f423 6300 	bic.w	r3, r3, #2048	; 0x800
 8004d26:	bc30      	pop	{r4, r5}
 8004d28:	61d3      	str	r3, [r2, #28]
 8004d2a:	4770      	bx	lr
 8004d2c:	69d3      	ldr	r3, [r2, #28]
 8004d2e:	f423 6300 	bic.w	r3, r3, #2048	; 0x800
 8004d32:	2001      	movs	r0, #1
 8004d34:	61d3      	str	r3, [r2, #28]
 8004d36:	4770      	bx	lr
 8004d38:	8c8b      	ldrh	r3, [r1, #36]	; 0x24
 8004d3a:	6113      	str	r3, [r2, #16]
 8004d3c:	e7f0      	b.n	8004d20 <LL_SPI_Init+0x50>
 8004d3e:	bf00      	nop

08004d40 <LL_I2S_Init>:
 8004d40:	69c3      	ldr	r3, [r0, #28]
 8004d42:	055b      	lsls	r3, r3, #21
 8004d44:	d43a      	bmi.n	8004dbc <LL_I2S_Init+0x7c>
 8004d46:	b570      	push	{r4, r5, r6, lr}
 8004d48:	460d      	mov	r5, r1
 8004d4a:	4604      	mov	r4, r0
 8004d4c:	69c1      	ldr	r1, [r0, #28]
 8004d4e:	682b      	ldr	r3, [r5, #0]
 8004d50:	e9d5 2001 	ldrd	r2, r0, [r5, #4]
 8004d54:	f421 6133 	bic.w	r1, r1, #2864	; 0xb30
 8004d58:	431a      	orrs	r2, r3
 8004d5a:	f021 010f 	bic.w	r1, r1, #15
 8004d5e:	696b      	ldr	r3, [r5, #20]
 8004d60:	430a      	orrs	r2, r1
 8004d62:	4302      	orrs	r2, r0
 8004d64:	431a      	orrs	r2, r3
 8004d66:	692b      	ldr	r3, [r5, #16]
 8004d68:	f442 6200 	orr.w	r2, r2, #2048	; 0x800
 8004d6c:	2b02      	cmp	r3, #2
 8004d6e:	61e2      	str	r2, [r4, #28]
 8004d70:	d026      	beq.n	8004dc0 <LL_I2S_Init+0x80>
 8004d72:	2800      	cmp	r0, #0
 8004d74:	f44f 0000 	mov.w	r0, #8388608	; 0x800000
 8004d78:	bf0c      	ite	eq
 8004d7a:	2620      	moveq	r6, #32
 8004d7c:	2640      	movne	r6, #64	; 0x40
 8004d7e:	f7ff ff73 	bl	8004c68 <LL_RCC_GetI2SClockFreq>
 8004d82:	68ea      	ldr	r2, [r5, #12]
 8004d84:	f5b2 7f00 	cmp.w	r2, #512	; 0x200
 8004d88:	d01f      	beq.n	8004dca <LL_I2S_Init+0x8a>
 8004d8a:	fbb0 f3f6 	udiv	r3, r0, r6
 8004d8e:	eb03 0383 	add.w	r3, r3, r3, lsl #2
 8004d92:	6929      	ldr	r1, [r5, #16]
 8004d94:	005b      	lsls	r3, r3, #1
 8004d96:	fbb3 f3f1 	udiv	r3, r3, r1
 8004d9a:	3305      	adds	r3, #5
 8004d9c:	490f      	ldr	r1, [pc, #60]	; (8004ddc <LL_I2S_Init+0x9c>)
 8004d9e:	fba1 1303 	umull	r1, r3, r1, r3
 8004da2:	0919      	lsrs	r1, r3, #4
 8004da4:	1e88      	subs	r0, r1, #2
 8004da6:	28fd      	cmp	r0, #253	; 0xfd
 8004da8:	f3c3 03c0 	ubfx	r3, r3, #3, #1
 8004dac:	bf94      	ite	ls
 8004dae:	ea41 2303 	orrls.w	r3, r1, r3, lsl #8
 8004db2:	2302      	movhi	r3, #2
 8004db4:	4313      	orrs	r3, r2
 8004db6:	6223      	str	r3, [r4, #32]
 8004db8:	2000      	movs	r0, #0
 8004dba:	bd70      	pop	{r4, r5, r6, pc}
 8004dbc:	2001      	movs	r0, #1
 8004dbe:	4770      	bx	lr
 8004dc0:	68ea      	ldr	r2, [r5, #12]
 8004dc2:	4313      	orrs	r3, r2
 8004dc4:	6223      	str	r3, [r4, #32]
 8004dc6:	2000      	movs	r0, #0
 8004dc8:	bd70      	pop	{r4, r5, r6, pc}
 8004dca:	0a00      	lsrs	r0, r0, #8
 8004dcc:	eb00 0380 	add.w	r3, r0, r0, lsl #2
 8004dd0:	005b      	lsls	r3, r3, #1
 8004dd2:	6928      	ldr	r0, [r5, #16]
 8004dd4:	fbb3 f3f0 	udiv	r3, r3, r0
 8004dd8:	3305      	adds	r3, #5
 8004dda:	e7df      	b.n	8004d9c <LL_I2S_Init+0x5c>
 8004ddc:	cccccccd 	.word	0xcccccccd

08004de0 <LL_TIM_Init>:
 8004de0:	4a24      	ldr	r2, [pc, #144]	; (8004e74 <LL_TIM_Init+0x94>)
 8004de2:	6803      	ldr	r3, [r0, #0]
 8004de4:	4290      	cmp	r0, r2
 8004de6:	b430      	push	{r4, r5}
 8004de8:	d034      	beq.n	8004e54 <LL_TIM_Init+0x74>
 8004dea:	f1b0 4f80 	cmp.w	r0, #1073741824	; 0x40000000
 8004dee:	d01d      	beq.n	8004e2c <LL_TIM_Init+0x4c>
 8004df0:	f5a2 427c 	sub.w	r2, r2, #64512	; 0xfc00
 8004df4:	4290      	cmp	r0, r2
 8004df6:	d019      	beq.n	8004e2c <LL_TIM_Init+0x4c>
 8004df8:	f502 6280 	add.w	r2, r2, #1024	; 0x400
 8004dfc:	4290      	cmp	r0, r2
 8004dfe:	d015      	beq.n	8004e2c <LL_TIM_Init+0x4c>
 8004e00:	f502 6280 	add.w	r2, r2, #1024	; 0x400
 8004e04:	4290      	cmp	r0, r2
 8004e06:	d011      	beq.n	8004e2c <LL_TIM_Init+0x4c>
 8004e08:	f502 329a 	add.w	r2, r2, #78848	; 0x13400
 8004e0c:	4290      	cmp	r0, r2
 8004e0e:	d011      	beq.n	8004e34 <LL_TIM_Init+0x54>
 8004e10:	f502 6280 	add.w	r2, r2, #1024	; 0x400
 8004e14:	4290      	cmp	r0, r2
 8004e16:	d00d      	beq.n	8004e34 <LL_TIM_Init+0x54>
 8004e18:	f502 6280 	add.w	r2, r2, #1024	; 0x400
 8004e1c:	4290      	cmp	r0, r2
 8004e1e:	d009      	beq.n	8004e34 <LL_TIM_Init+0x54>
 8004e20:	688c      	ldr	r4, [r1, #8]
 8004e22:	880a      	ldrh	r2, [r1, #0]
 8004e24:	6003      	str	r3, [r0, #0]
 8004e26:	62c4      	str	r4, [r0, #44]	; 0x2c
 8004e28:	6282      	str	r2, [r0, #40]	; 0x28
 8004e2a:	e00c      	b.n	8004e46 <LL_TIM_Init+0x66>
 8004e2c:	684a      	ldr	r2, [r1, #4]
 8004e2e:	f023 0370 	bic.w	r3, r3, #112	; 0x70
 8004e32:	4313      	orrs	r3, r2
 8004e34:	68cd      	ldr	r5, [r1, #12]
 8004e36:	688c      	ldr	r4, [r1, #8]
 8004e38:	880a      	ldrh	r2, [r1, #0]
 8004e3a:	f423 7340 	bic.w	r3, r3, #768	; 0x300
 8004e3e:	432b      	orrs	r3, r5
 8004e40:	6003      	str	r3, [r0, #0]
 8004e42:	62c4      	str	r4, [r0, #44]	; 0x2c
 8004e44:	6282      	str	r2, [r0, #40]	; 0x28
 8004e46:	6943      	ldr	r3, [r0, #20]
 8004e48:	f043 0301 	orr.w	r3, r3, #1
 8004e4c:	6143      	str	r3, [r0, #20]
 8004e4e:	bc30      	pop	{r4, r5}
 8004e50:	2000      	movs	r0, #0
 8004e52:	4770      	bx	lr
 8004e54:	684c      	ldr	r4, [r1, #4]
 8004e56:	68ca      	ldr	r2, [r1, #12]
 8004e58:	f023 0370 	bic.w	r3, r3, #112	; 0x70
 8004e5c:	4323      	orrs	r3, r4
 8004e5e:	f423 7340 	bic.w	r3, r3, #768	; 0x300
 8004e62:	4313      	orrs	r3, r2
 8004e64:	6003      	str	r3, [r0, #0]
 8004e66:	688a      	ldr	r2, [r1, #8]
 8004e68:	880b      	ldrh	r3, [r1, #0]
 8004e6a:	62c2      	str	r2, [r0, #44]	; 0x2c
 8004e6c:	6283      	str	r3, [r0, #40]	; 0x28
 8004e6e:	690b      	ldr	r3, [r1, #16]
 8004e70:	6303      	str	r3, [r0, #48]	; 0x30
 8004e72:	e7e8      	b.n	8004e46 <LL_TIM_Init+0x66>
 8004e74:	40010000 	.word	0x40010000

08004e78 <LL_TIM_OC_Init>:
 8004e78:	f5b1 7f80 	cmp.w	r1, #256	; 0x100
 8004e7c:	b430      	push	{r4, r5}
 8004e7e:	d070      	beq.n	8004f62 <LL_TIM_OC_Init+0xea>
 8004e80:	d826      	bhi.n	8004ed0 <LL_TIM_OC_Init+0x58>
 8004e82:	2901      	cmp	r1, #1
 8004e84:	d04e      	beq.n	8004f24 <LL_TIM_OC_Init+0xac>
 8004e86:	2910      	cmp	r1, #16
 8004e88:	d148      	bne.n	8004f1c <LL_TIM_OC_Init+0xa4>
 8004e8a:	6a03      	ldr	r3, [r0, #32]
 8004e8c:	6915      	ldr	r5, [r2, #16]
 8004e8e:	f023 0310 	bic.w	r3, r3, #16
 8004e92:	6203      	str	r3, [r0, #32]
 8004e94:	6a03      	ldr	r3, [r0, #32]
 8004e96:	6844      	ldr	r4, [r0, #4]
 8004e98:	6981      	ldr	r1, [r0, #24]
 8004e9a:	f023 0320 	bic.w	r3, r3, #32
 8004e9e:	ea43 1305 	orr.w	r3, r3, r5, lsl #4
 8004ea2:	6815      	ldr	r5, [r2, #0]
 8004ea4:	f421 41e6 	bic.w	r1, r1, #29440	; 0x7300
 8004ea8:	ea41 2105 	orr.w	r1, r1, r5, lsl #8
 8004eac:	6855      	ldr	r5, [r2, #4]
 8004eae:	f023 0310 	bic.w	r3, r3, #16
 8004eb2:	ea43 1305 	orr.w	r3, r3, r5, lsl #4
 8004eb6:	4d5d      	ldr	r5, [pc, #372]	; (800502c <LL_TIM_OC_Init+0x1b4>)
 8004eb8:	42a8      	cmp	r0, r5
 8004eba:	f000 809c 	beq.w	8004ff6 <LL_TIM_OC_Init+0x17e>
 8004ebe:	68d5      	ldr	r5, [r2, #12]
 8004ec0:	6044      	str	r4, [r0, #4]
 8004ec2:	2200      	movs	r2, #0
 8004ec4:	6181      	str	r1, [r0, #24]
 8004ec6:	6385      	str	r5, [r0, #56]	; 0x38
 8004ec8:	6203      	str	r3, [r0, #32]
 8004eca:	bc30      	pop	{r4, r5}
 8004ecc:	4610      	mov	r0, r2
 8004ece:	4770      	bx	lr
 8004ed0:	f5b1 5f80 	cmp.w	r1, #4096	; 0x1000
 8004ed4:	d122      	bne.n	8004f1c <LL_TIM_OC_Init+0xa4>
 8004ed6:	6a03      	ldr	r3, [r0, #32]
 8004ed8:	6915      	ldr	r5, [r2, #16]
 8004eda:	f423 5380 	bic.w	r3, r3, #4096	; 0x1000
 8004ede:	6203      	str	r3, [r0, #32]
 8004ee0:	6a03      	ldr	r3, [r0, #32]
 8004ee2:	6844      	ldr	r4, [r0, #4]
 8004ee4:	69c1      	ldr	r1, [r0, #28]
 8004ee6:	f423 5300 	bic.w	r3, r3, #8192	; 0x2000
 8004eea:	ea43 3305 	orr.w	r3, r3, r5, lsl #12
 8004eee:	6815      	ldr	r5, [r2, #0]
 8004ef0:	f421 41e6 	bic.w	r1, r1, #29440	; 0x7300
 8004ef4:	ea41 2105 	orr.w	r1, r1, r5, lsl #8
 8004ef8:	6855      	ldr	r5, [r2, #4]
 8004efa:	f423 5380 	bic.w	r3, r3, #4096	; 0x1000
 8004efe:	ea43 3305 	orr.w	r3, r3, r5, lsl #12
 8004f02:	4d4a      	ldr	r5, [pc, #296]	; (800502c <LL_TIM_OC_Init+0x1b4>)
 8004f04:	42a8      	cmp	r0, r5
 8004f06:	f000 808b 	beq.w	8005020 <LL_TIM_OC_Init+0x1a8>
 8004f0a:	68d5      	ldr	r5, [r2, #12]
 8004f0c:	6044      	str	r4, [r0, #4]
 8004f0e:	2200      	movs	r2, #0
 8004f10:	61c1      	str	r1, [r0, #28]
 8004f12:	6405      	str	r5, [r0, #64]	; 0x40
 8004f14:	6203      	str	r3, [r0, #32]
 8004f16:	bc30      	pop	{r4, r5}
 8004f18:	4610      	mov	r0, r2
 8004f1a:	4770      	bx	lr
 8004f1c:	2201      	movs	r2, #1
 8004f1e:	4610      	mov	r0, r2
 8004f20:	bc30      	pop	{r4, r5}
 8004f22:	4770      	bx	lr
 8004f24:	6a03      	ldr	r3, [r0, #32]
 8004f26:	6915      	ldr	r5, [r2, #16]
 8004f28:	f023 0301 	bic.w	r3, r3, #1
 8004f2c:	6203      	str	r3, [r0, #32]
 8004f2e:	6a03      	ldr	r3, [r0, #32]
 8004f30:	6844      	ldr	r4, [r0, #4]
 8004f32:	6981      	ldr	r1, [r0, #24]
 8004f34:	f023 0302 	bic.w	r3, r3, #2
 8004f38:	432b      	orrs	r3, r5
 8004f3a:	6815      	ldr	r5, [r2, #0]
 8004f3c:	f021 0173 	bic.w	r1, r1, #115	; 0x73
 8004f40:	4329      	orrs	r1, r5
 8004f42:	6855      	ldr	r5, [r2, #4]
 8004f44:	f023 0301 	bic.w	r3, r3, #1
 8004f48:	432b      	orrs	r3, r5
 8004f4a:	4d38      	ldr	r5, [pc, #224]	; (800502c <LL_TIM_OC_Init+0x1b4>)
 8004f4c:	42a8      	cmp	r0, r5
 8004f4e:	d03e      	beq.n	8004fce <LL_TIM_OC_Init+0x156>
 8004f50:	68d5      	ldr	r5, [r2, #12]
 8004f52:	6044      	str	r4, [r0, #4]
 8004f54:	2200      	movs	r2, #0
 8004f56:	6181      	str	r1, [r0, #24]
 8004f58:	6345      	str	r5, [r0, #52]	; 0x34
 8004f5a:	6203      	str	r3, [r0, #32]
 8004f5c:	bc30      	pop	{r4, r5}
 8004f5e:	4610      	mov	r0, r2
 8004f60:	4770      	bx	lr
 8004f62:	6a03      	ldr	r3, [r0, #32]
 8004f64:	6915      	ldr	r5, [r2, #16]
 8004f66:	f423 7380 	bic.w	r3, r3, #256	; 0x100
 8004f6a:	6203      	str	r3, [r0, #32]
 8004f6c:	6a03      	ldr	r3, [r0, #32]
 8004f6e:	6844      	ldr	r4, [r0, #4]
 8004f70:	69c1      	ldr	r1, [r0, #28]
 8004f72:	f423 7300 	bic.w	r3, r3, #512	; 0x200
 8004f76:	ea43 2305 	orr.w	r3, r3, r5, lsl #8
 8004f7a:	6815      	ldr	r5, [r2, #0]
 8004f7c:	f021 0173 	bic.w	r1, r1, #115	; 0x73
 8004f80:	4329      	orrs	r1, r5
 8004f82:	6855      	ldr	r5, [r2, #4]
 8004f84:	f423 7380 	bic.w	r3, r3, #256	; 0x100
 8004f88:	ea43 2305 	orr.w	r3, r3, r5, lsl #8
 8004f8c:	4d27      	ldr	r5, [pc, #156]	; (800502c <LL_TIM_OC_Init+0x1b4>)
 8004f8e:	42a8      	cmp	r0, r5
 8004f90:	d008      	beq.n	8004fa4 <LL_TIM_OC_Init+0x12c>
 8004f92:	68d5      	ldr	r5, [r2, #12]
 8004f94:	6044      	str	r4, [r0, #4]
 8004f96:	2200      	movs	r2, #0
 8004f98:	61c1      	str	r1, [r0, #28]
 8004f9a:	63c5      	str	r5, [r0, #60]	; 0x3c
 8004f9c:	6203      	str	r3, [r0, #32]
 8004f9e:	bc30      	pop	{r4, r5}
 8004fa0:	4610      	mov	r0, r2
 8004fa2:	4770      	bx	lr
 8004fa4:	6955      	ldr	r5, [r2, #20]
 8004fa6:	f423 6300 	bic.w	r3, r3, #2048	; 0x800
 8004faa:	ea43 2385 	orr.w	r3, r3, r5, lsl #10
 8004fae:	6995      	ldr	r5, [r2, #24]
 8004fb0:	f424 5480 	bic.w	r4, r4, #4096	; 0x1000
 8004fb4:	ea44 1405 	orr.w	r4, r4, r5, lsl #4
 8004fb8:	6895      	ldr	r5, [r2, #8]
 8004fba:	f423 6380 	bic.w	r3, r3, #1024	; 0x400
 8004fbe:	ea43 2385 	orr.w	r3, r3, r5, lsl #10
 8004fc2:	69d5      	ldr	r5, [r2, #28]
 8004fc4:	f424 5400 	bic.w	r4, r4, #8192	; 0x2000
 8004fc8:	ea44 1445 	orr.w	r4, r4, r5, lsl #5
 8004fcc:	e7e1      	b.n	8004f92 <LL_TIM_OC_Init+0x11a>
 8004fce:	6955      	ldr	r5, [r2, #20]
 8004fd0:	f023 0308 	bic.w	r3, r3, #8
 8004fd4:	ea43 0385 	orr.w	r3, r3, r5, lsl #2
 8004fd8:	6995      	ldr	r5, [r2, #24]
 8004fda:	f424 7480 	bic.w	r4, r4, #256	; 0x100
 8004fde:	432c      	orrs	r4, r5
 8004fe0:	6895      	ldr	r5, [r2, #8]
 8004fe2:	f023 0304 	bic.w	r3, r3, #4
 8004fe6:	ea43 0385 	orr.w	r3, r3, r5, lsl #2
 8004fea:	69d5      	ldr	r5, [r2, #28]
 8004fec:	f424 7400 	bic.w	r4, r4, #512	; 0x200
 8004ff0:	ea44 0445 	orr.w	r4, r4, r5, lsl #1
 8004ff4:	e7ac      	b.n	8004f50 <LL_TIM_OC_Init+0xd8>
 8004ff6:	6955      	ldr	r5, [r2, #20]
 8004ff8:	f023 0380 	bic.w	r3, r3, #128	; 0x80
 8004ffc:	ea43 1385 	orr.w	r3, r3, r5, lsl #6
 8005000:	6995      	ldr	r5, [r2, #24]
 8005002:	f424 6480 	bic.w	r4, r4, #1024	; 0x400
 8005006:	ea44 0485 	orr.w	r4, r4, r5, lsl #2
 800500a:	6895      	ldr	r5, [r2, #8]
 800500c:	f023 0340 	bic.w	r3, r3, #64	; 0x40
 8005010:	ea43 1385 	orr.w	r3, r3, r5, lsl #6
 8005014:	69d5      	ldr	r5, [r2, #28]
 8005016:	f424 6400 	bic.w	r4, r4, #2048	; 0x800
 800501a:	ea44 04c5 	orr.w	r4, r4, r5, lsl #3
 800501e:	e74e      	b.n	8004ebe <LL_TIM_OC_Init+0x46>
 8005020:	6995      	ldr	r5, [r2, #24]
 8005022:	f424 4480 	bic.w	r4, r4, #16384	; 0x4000
 8005026:	ea44 1485 	orr.w	r4, r4, r5, lsl #6
 800502a:	e76e      	b.n	8004f0a <LL_TIM_OC_Init+0x92>
 800502c:	40010000 	.word	0x40010000

08005030 <LL_Init1msTick>:
 8005030:	4b06      	ldr	r3, [pc, #24]	; (800504c <LL_Init1msTick+0x1c>)
 8005032:	fba3 3000 	umull	r3, r0, r3, r0
 8005036:	f04f 22e0 	mov.w	r2, #3758153728	; 0xe000e000
 800503a:	0983      	lsrs	r3, r0, #6
 800503c:	3b01      	subs	r3, #1
 800503e:	2000      	movs	r0, #0
 8005040:	2105      	movs	r1, #5
 8005042:	6153      	str	r3, [r2, #20]
 8005044:	6190      	str	r0, [r2, #24]
 8005046:	6111      	str	r1, [r2, #16]
 8005048:	4770      	bx	lr
 800504a:	bf00      	nop
 800504c:	10624dd3 	.word	0x10624dd3

08005050 <LL_mDelay>:
 8005050:	f04f 23e0 	mov.w	r3, #3758153728	; 0xe000e000
 8005054:	b082      	sub	sp, #8
 8005056:	691b      	ldr	r3, [r3, #16]
 8005058:	9301      	str	r3, [sp, #4]
 800505a:	1c42      	adds	r2, r0, #1
 800505c:	9b01      	ldr	r3, [sp, #4]
 800505e:	bf18      	it	ne
 8005060:	3001      	addne	r0, #1
 8005062:	f04f 22e0 	mov.w	r2, #3758153728	; 0xe000e000
 8005066:	6913      	ldr	r3, [r2, #16]
 8005068:	03db      	lsls	r3, r3, #15
 800506a:	d5fc      	bpl.n	8005066 <LL_mDelay+0x16>
 800506c:	3801      	subs	r0, #1
 800506e:	d1fa      	bne.n	8005066 <LL_mDelay+0x16>
 8005070:	b002      	add	sp, #8
 8005072:	4770      	bx	lr

08005074 <LL_SetSystemCoreClock>:
 8005074:	4b01      	ldr	r3, [pc, #4]	; (800507c <LL_SetSystemCoreClock+0x8>)
 8005076:	6018      	str	r0, [r3, #0]
 8005078:	4770      	bx	lr
 800507a:	bf00      	nop
 800507c:	20000000 	.word	0x20000000

08005080 <xmp3_SetBitstreamPointer>:
 8005080:	2300      	movs	r3, #0
 8005082:	e9c0 2300 	strd	r2, r3, [r0]
 8005086:	e9c0 3102 	strd	r3, r1, [r0, #8]
 800508a:	4770      	bx	lr

0800508c <xmp3_GetBits>:
 800508c:	6842      	ldr	r2, [r0, #4]
 800508e:	f001 011f 	and.w	r1, r1, #31
 8005092:	b4f0      	push	{r4, r5, r6, r7}
 8005094:	f1c1 031f 	rsb	r3, r1, #31
 8005098:	6884      	ldr	r4, [r0, #8]
 800509a:	fa22 f303 	lsr.w	r3, r2, r3
 800509e:	408a      	lsls	r2, r1
 80050a0:	6042      	str	r2, [r0, #4]
 80050a2:	1a62      	subs	r2, r4, r1
 80050a4:	2a00      	cmp	r2, #0
 80050a6:	ea4f 0353 	mov.w	r3, r3, lsr #1
 80050aa:	6082      	str	r2, [r0, #8]
 80050ac:	db02      	blt.n	80050b4 <xmp3_GetBits+0x28>
 80050ae:	4618      	mov	r0, r3
 80050b0:	bcf0      	pop	{r4, r5, r6, r7}
 80050b2:	4770      	bx	lr
 80050b4:	68c5      	ldr	r5, [r0, #12]
 80050b6:	2d03      	cmp	r5, #3
 80050b8:	eba1 0104 	sub.w	r1, r1, r4
 80050bc:	dc2c      	bgt.n	8005118 <xmp3_GetBits+0x8c>
 80050be:	2400      	movs	r4, #0
 80050c0:	6044      	str	r4, [r0, #4]
 80050c2:	2d00      	cmp	r5, #0
 80050c4:	d047      	beq.n	8005156 <xmp3_GetBits+0xca>
 80050c6:	6806      	ldr	r6, [r0, #0]
 80050c8:	1c74      	adds	r4, r6, #1
 80050ca:	6004      	str	r4, [r0, #0]
 80050cc:	7834      	ldrb	r4, [r6, #0]
 80050ce:	2d01      	cmp	r5, #1
 80050d0:	ea4f 2404 	mov.w	r4, r4, lsl #8
 80050d4:	6044      	str	r4, [r0, #4]
 80050d6:	d00c      	beq.n	80050f2 <xmp3_GetBits+0x66>
 80050d8:	1cb7      	adds	r7, r6, #2
 80050da:	6007      	str	r7, [r0, #0]
 80050dc:	7877      	ldrb	r7, [r6, #1]
 80050de:	433c      	orrs	r4, r7
 80050e0:	0224      	lsls	r4, r4, #8
 80050e2:	2d02      	cmp	r5, #2
 80050e4:	6044      	str	r4, [r0, #4]
 80050e6:	d004      	beq.n	80050f2 <xmp3_GetBits+0x66>
 80050e8:	1cf7      	adds	r7, r6, #3
 80050ea:	6007      	str	r7, [r0, #0]
 80050ec:	78b6      	ldrb	r6, [r6, #2]
 80050ee:	4334      	orrs	r4, r6
 80050f0:	0224      	lsls	r4, r4, #8
 80050f2:	f1c5 0603 	rsb	r6, r5, #3
 80050f6:	00f6      	lsls	r6, r6, #3
 80050f8:	40b4      	lsls	r4, r6
 80050fa:	f102 0620 	add.w	r6, r2, #32
 80050fe:	fa04 f101 	lsl.w	r1, r4, r1
 8005102:	40f4      	lsrs	r4, r6
 8005104:	4323      	orrs	r3, r4
 8005106:	2400      	movs	r4, #0
 8005108:	eb02 02c5 	add.w	r2, r2, r5, lsl #3
 800510c:	60c4      	str	r4, [r0, #12]
 800510e:	e9c0 1201 	strd	r1, r2, [r0, #4]
 8005112:	bcf0      	pop	{r4, r5, r6, r7}
 8005114:	4618      	mov	r0, r3
 8005116:	4770      	bx	lr
 8005118:	6806      	ldr	r6, [r0, #0]
 800511a:	4637      	mov	r7, r6
 800511c:	1c74      	adds	r4, r6, #1
 800511e:	6004      	str	r4, [r0, #0]
 8005120:	f817 4b02 	ldrb.w	r4, [r7], #2
 8005124:	6007      	str	r7, [r0, #0]
 8005126:	0624      	lsls	r4, r4, #24
 8005128:	6044      	str	r4, [r0, #4]
 800512a:	7877      	ldrb	r7, [r6, #1]
 800512c:	ea44 4407 	orr.w	r4, r4, r7, lsl #16
 8005130:	1cf7      	adds	r7, r6, #3
 8005132:	6044      	str	r4, [r0, #4]
 8005134:	6007      	str	r7, [r0, #0]
 8005136:	78b7      	ldrb	r7, [r6, #2]
 8005138:	ea44 2407 	orr.w	r4, r4, r7, lsl #8
 800513c:	1d37      	adds	r7, r6, #4
 800513e:	6044      	str	r4, [r0, #4]
 8005140:	6007      	str	r7, [r0, #0]
 8005142:	78f6      	ldrb	r6, [r6, #3]
 8005144:	3220      	adds	r2, #32
 8005146:	4334      	orrs	r4, r6
 8005148:	3d04      	subs	r5, #4
 800514a:	fa04 f101 	lsl.w	r1, r4, r1
 800514e:	40d4      	lsrs	r4, r2
 8005150:	60c5      	str	r5, [r0, #12]
 8005152:	4323      	orrs	r3, r4
 8005154:	e7db      	b.n	800510e <xmp3_GetBits+0x82>
 8005156:	4629      	mov	r1, r5
 8005158:	e7d5      	b.n	8005106 <xmp3_GetBits+0x7a>
 800515a:	bf00      	nop

0800515c <xmp3_CalcBitsUsed>:
 800515c:	b410      	push	{r4}
 800515e:	6804      	ldr	r4, [r0, #0]
 8005160:	6883      	ldr	r3, [r0, #8]
 8005162:	1a61      	subs	r1, r4, r1
 8005164:	ebc3 03c1 	rsb	r3, r3, r1, lsl #3
 8005168:	1a98      	subs	r0, r3, r2
 800516a:	f85d 4b04 	ldr.w	r4, [sp], #4
 800516e:	4770      	bx	lr

08005170 <xmp3_CheckPadBit>:
 8005170:	b130      	cbz	r0, 8005180 <xmp3_CheckPadBit+0x10>
 8005172:	6803      	ldr	r3, [r0, #0]
 8005174:	b123      	cbz	r3, 8005180 <xmp3_CheckPadBit+0x10>
 8005176:	6958      	ldr	r0, [r3, #20]
 8005178:	3800      	subs	r0, #0
 800517a:	bf18      	it	ne
 800517c:	2001      	movne	r0, #1
 800517e:	4770      	bx	lr
 8005180:	f04f 30ff 	mov.w	r0, #4294967295
 8005184:	4770      	bx	lr
 8005186:	bf00      	nop

08005188 <xmp3_UnpackFrameHeader>:
 8005188:	2800      	cmp	r0, #0
 800518a:	f000 80c9 	beq.w	8005320 <xmp3_UnpackFrameHeader+0x198>
 800518e:	6803      	ldr	r3, [r0, #0]
 8005190:	2b00      	cmp	r3, #0
 8005192:	f000 80c5 	beq.w	8005320 <xmp3_UnpackFrameHeader+0x198>
 8005196:	780a      	ldrb	r2, [r1, #0]
 8005198:	2aff      	cmp	r2, #255	; 0xff
 800519a:	f040 80c1 	bne.w	8005320 <xmp3_UnpackFrameHeader+0x198>
 800519e:	784a      	ldrb	r2, [r1, #1]
 80051a0:	e92d 4ff0 	stmdb	sp!, {r4, r5, r6, r7, r8, r9, sl, fp, lr}
 80051a4:	f002 04e0 	and.w	r4, r2, #224	; 0xe0
 80051a8:	2ce0      	cmp	r4, #224	; 0xe0
 80051aa:	f040 80b6 	bne.w	800531a <xmp3_UnpackFrameHeader+0x192>
 80051ae:	ea4f 0cd2 	mov.w	ip, r2, lsr #3
 80051b2:	f012 0f18 	tst.w	r2, #24
 80051b6:	bf1a      	itte	ne
 80051b8:	ea6f 0c0c 	mvnne.w	ip, ip
 80051bc:	f00c 0c01 	andne.w	ip, ip, #1
 80051c0:	f04f 0c02 	moveq.w	ip, #2
 80051c4:	f883 c000 	strb.w	ip, [r3]
 80051c8:	f891 e001 	ldrb.w	lr, [r1, #1]
 80051cc:	f3ce 0e41 	ubfx	lr, lr, #1, #2
 80051d0:	f1ce 0904 	rsb	r9, lr, #4
 80051d4:	f8c3 9004 	str.w	r9, [r3, #4]
 80051d8:	784d      	ldrb	r5, [r1, #1]
 80051da:	43ed      	mvns	r5, r5
 80051dc:	f005 0501 	and.w	r5, r5, #1
 80051e0:	609d      	str	r5, [r3, #8]
 80051e2:	788a      	ldrb	r2, [r1, #2]
 80051e4:	0917      	lsrs	r7, r2, #4
 80051e6:	60df      	str	r7, [r3, #12]
 80051e8:	788a      	ldrb	r2, [r1, #2]
 80051ea:	f3c2 0281 	ubfx	r2, r2, #2, #2
 80051ee:	611a      	str	r2, [r3, #16]
 80051f0:	788e      	ldrb	r6, [r1, #2]
 80051f2:	f3c6 0640 	ubfx	r6, r6, #1, #1
 80051f6:	615e      	str	r6, [r3, #20]
 80051f8:	788c      	ldrb	r4, [r1, #2]
 80051fa:	f004 0401 	and.w	r4, r4, #1
 80051fe:	619c      	str	r4, [r3, #24]
 8005200:	f891 8003 	ldrb.w	r8, [r1, #3]
 8005204:	ea4f 1898 	mov.w	r8, r8, lsr #6
 8005208:	f883 801c 	strb.w	r8, [r3, #28]
 800520c:	78cc      	ldrb	r4, [r1, #3]
 800520e:	f3c4 1401 	ubfx	r4, r4, #4, #2
 8005212:	621c      	str	r4, [r3, #32]
 8005214:	78cc      	ldrb	r4, [r1, #3]
 8005216:	f3c4 04c0 	ubfx	r4, r4, #3, #1
 800521a:	625c      	str	r4, [r3, #36]	; 0x24
 800521c:	78cc      	ldrb	r4, [r1, #3]
 800521e:	f3c4 0480 	ubfx	r4, r4, #2, #1
 8005222:	629c      	str	r4, [r3, #40]	; 0x28
 8005224:	78cc      	ldrb	r4, [r1, #3]
 8005226:	2a03      	cmp	r2, #3
 8005228:	f004 0403 	and.w	r4, r4, #3
 800522c:	62dc      	str	r4, [r3, #44]	; 0x2c
 800522e:	d074      	beq.n	800531a <xmp3_UnpackFrameHeader+0x192>
 8005230:	f1b9 0f04 	cmp.w	r9, #4
 8005234:	d071      	beq.n	800531a <xmp3_UnpackFrameHeader+0x192>
 8005236:	2f0f      	cmp	r7, #15
 8005238:	d06f      	beq.n	800531a <xmp3_UnpackFrameHeader+0x192>
 800523a:	eb02 04c2 	add.w	r4, r2, r2, lsl #3
 800523e:	eb02 0484 	add.w	r4, r2, r4, lsl #2
 8005242:	f8df a0f8 	ldr.w	sl, [pc, #248]	; 800533c <xmp3_UnpackFrameHeader+0x1b4>
 8005246:	0064      	lsls	r4, r4, #1
 8005248:	f04f 0bde 	mov.w	fp, #222	; 0xde
 800524c:	fb0b 440c 	mla	r4, fp, ip, r4
 8005250:	4454      	add	r4, sl
 8005252:	f1b8 0f01 	cmp.w	r8, #1
 8005256:	635c      	str	r4, [r3, #52]	; 0x34
 8005258:	d006      	beq.n	8005268 <xmp3_UnpackFrameHeader+0xe0>
 800525a:	2400      	movs	r4, #0
 800525c:	f1b8 0f03 	cmp.w	r8, #3
 8005260:	621c      	str	r4, [r3, #32]
 8005262:	d101      	bne.n	8005268 <xmp3_UnpackFrameHeader+0xe0>
 8005264:	2401      	movs	r4, #1
 8005266:	e000      	b.n	800526a <xmp3_UnpackFrameHeader+0xe2>
 8005268:	2402      	movs	r4, #2
 800526a:	f8c0 97d0 	str.w	r9, [r0, #2000]	; 0x7d0
 800526e:	eb0c 094c 	add.w	r9, ip, ip, lsl #1
 8005272:	eb09 0a02 	add.w	sl, r9, r2
 8005276:	f8c0 47bc 	str.w	r4, [r0, #1980]	; 0x7bc
 800527a:	4c2b      	ldr	r4, [pc, #172]	; (8005328 <xmp3_UnpackFrameHeader+0x1a0>)
 800527c:	f880 c7d4 	strb.w	ip, [r0, #2004]	; 0x7d4
 8005280:	f854 402a 	ldr.w	r4, [r4, sl, lsl #2]
 8005284:	f8c0 47c0 	str.w	r4, [r0, #1984]	; 0x7c0
 8005288:	f1ce 0e03 	rsb	lr, lr, #3
 800528c:	eb09 0a0e 	add.w	sl, r9, lr
 8005290:	4c26      	ldr	r4, [pc, #152]	; (800532c <xmp3_UnpackFrameHeader+0x1a4>)
 8005292:	f1bc 0f00 	cmp.w	ip, #0
 8005296:	f934 401a 	ldrsh.w	r4, [r4, sl, lsl #1]
 800529a:	bf0c      	ite	eq
 800529c:	f04f 0a02 	moveq.w	sl, #2
 80052a0:	f04f 0a01 	movne.w	sl, #1
 80052a4:	ea4f 0c4c 	mov.w	ip, ip, lsl #1
 80052a8:	fb94 f4fa 	sdiv	r4, r4, sl
 80052ac:	f8c0 a7c4 	str.w	sl, [r0, #1988]	; 0x7c4
 80052b0:	f8c0 47c8 	str.w	r4, [r0, #1992]	; 0x7c8
 80052b4:	b32f      	cbz	r7, 8005302 <xmp3_UnpackFrameHeader+0x17a>
 80052b6:	ebc9 1909 	rsb	r9, r9, r9, lsl #4
 80052ba:	ebce 1e0e 	rsb	lr, lr, lr, lsl #4
 80052be:	ebc2 1202 	rsb	r2, r2, r2, lsl #4
 80052c2:	44ce      	add	lr, r9
 80052c4:	444a      	add	r2, r9
 80052c6:	44be      	add	lr, r7
 80052c8:	443a      	add	r2, r7
 80052ca:	4f19      	ldr	r7, [pc, #100]	; (8005330 <xmp3_UnpackFrameHeader+0x1a8>)
 80052cc:	4c19      	ldr	r4, [pc, #100]	; (8005334 <xmp3_UnpackFrameHeader+0x1ac>)
 80052ce:	f937 2012 	ldrsh.w	r2, [r7, r2, lsl #1]
 80052d2:	4f19      	ldr	r7, [pc, #100]	; (8005338 <xmp3_UnpackFrameHeader+0x1b0>)
 80052d4:	f934 401e 	ldrsh.w	r4, [r4, lr, lsl #1]
 80052d8:	f1b8 0f03 	cmp.w	r8, #3
 80052dc:	bf18      	it	ne
 80052de:	f10c 0c01 	addne.w	ip, ip, #1
 80052e2:	f937 701c 	ldrsh.w	r7, [r7, ip, lsl #1]
 80052e6:	1bd2      	subs	r2, r2, r7
 80052e8:	ebc4 1744 	rsb	r7, r4, r4, lsl #5
 80052ec:	eb04 0487 	add.w	r4, r4, r7, lsl #2
 80052f0:	00e4      	lsls	r4, r4, #3
 80052f2:	f8c0 47b8 	str.w	r4, [r0, #1976]	; 0x7b8
 80052f6:	1f14      	subs	r4, r2, #4
 80052f8:	b105      	cbz	r5, 80052fc <xmp3_UnpackFrameHeader+0x174>
 80052fa:	1f94      	subs	r4, r2, #6
 80052fc:	4426      	add	r6, r4
 80052fe:	f8c0 67cc 	str.w	r6, [r0, #1996]	; 0x7cc
 8005302:	b91d      	cbnz	r5, 800530c <xmp3_UnpackFrameHeader+0x184>
 8005304:	631d      	str	r5, [r3, #48]	; 0x30
 8005306:	2004      	movs	r0, #4
 8005308:	e8bd 8ff0 	ldmia.w	sp!, {r4, r5, r6, r7, r8, r9, sl, fp, pc}
 800530c:	888a      	ldrh	r2, [r1, #4]
 800530e:	ba52      	rev16	r2, r2
 8005310:	b292      	uxth	r2, r2
 8005312:	2006      	movs	r0, #6
 8005314:	631a      	str	r2, [r3, #48]	; 0x30
 8005316:	e8bd 8ff0 	ldmia.w	sp!, {r4, r5, r6, r7, r8, r9, sl, fp, pc}
 800531a:	f04f 30ff 	mov.w	r0, #4294967295
 800531e:	e7f3      	b.n	8005308 <xmp3_UnpackFrameHeader+0x180>
 8005320:	f04f 30ff 	mov.w	r0, #4294967295
 8005324:	4770      	bx	lr
 8005326:	bf00      	nop
 8005328:	08013b38 	.word	0x08013b38
 800532c:	08013b5c 	.word	0x08013b5c
 8005330:	08013e18 	.word	0x08013e18
 8005334:	08013a28 	.word	0x08013a28
 8005338:	08013e0c 	.word	0x08013e0c
 800533c:	08013b70 	.word	0x08013b70

08005340 <xmp3_UnpackSideInfo>:
 8005340:	e92d 4ff0 	stmdb	sp!, {r4, r5, r6, r7, r8, r9, sl, fp, lr}
 8005344:	b08b      	sub	sp, #44	; 0x2c
 8005346:	2800      	cmp	r0, #0
 8005348:	f001 8061 	beq.w	800640e <xmp3_UnpackSideInfo+0x10ce>
 800534c:	f8d0 b000 	ldr.w	fp, [r0]
 8005350:	4606      	mov	r6, r0
 8005352:	f1bb 0f00 	cmp.w	fp, #0
 8005356:	f001 805a 	beq.w	800640e <xmp3_UnpackSideInfo+0x10ce>
 800535a:	6844      	ldr	r4, [r0, #4]
 800535c:	9404      	str	r4, [sp, #16]
 800535e:	2c00      	cmp	r4, #0
 8005360:	f001 8055 	beq.w	800640e <xmp3_UnpackSideInfo+0x10ce>
 8005364:	f89b 8000 	ldrb.w	r8, [fp]
 8005368:	f1b8 0f00 	cmp.w	r8, #0
 800536c:	f000 80ed 	beq.w	800554a <xmp3_UnpackSideInfo+0x20a>
 8005370:	f89b 301c 	ldrb.w	r3, [fp, #28]
 8005374:	9106      	str	r1, [sp, #24]
 8005376:	2b03      	cmp	r3, #3
 8005378:	ad06      	add	r5, sp, #24
 800537a:	bf0c      	ite	eq
 800537c:	2209      	moveq	r2, #9
 800537e:	2211      	movne	r2, #17
 8005380:	2108      	movs	r1, #8
 8005382:	2300      	movs	r3, #0
 8005384:	4628      	mov	r0, r5
 8005386:	e9cd 3307 	strd	r3, r3, [sp, #28]
 800538a:	9205      	str	r2, [sp, #20]
 800538c:	9209      	str	r2, [sp, #36]	; 0x24
 800538e:	f7ff fe7d 	bl	800508c <xmp3_GetBits>
 8005392:	9c04      	ldr	r4, [sp, #16]
 8005394:	6020      	str	r0, [r4, #0]
 8005396:	f89b 301c 	ldrb.w	r3, [fp, #28]
 800539a:	2b03      	cmp	r3, #3
 800539c:	bf0c      	ite	eq
 800539e:	2101      	moveq	r1, #1
 80053a0:	2102      	movne	r1, #2
 80053a2:	4628      	mov	r0, r5
 80053a4:	f7ff fe72 	bl	800508c <xmp3_GetBits>
 80053a8:	6060      	str	r0, [r4, #4]
 80053aa:	f8d6 37c4 	ldr.w	r3, [r6, #1988]	; 0x7c4
 80053ae:	2b00      	cmp	r3, #0
 80053b0:	f340 80c3 	ble.w	800553a <xmp3_UnpackSideInfo+0x1fa>
 80053b4:	f8d6 37bc 	ldr.w	r3, [r6, #1980]	; 0x7bc
 80053b8:	9a04      	ldr	r2, [sp, #16]
 80053ba:	9203      	str	r2, [sp, #12]
 80053bc:	2b00      	cmp	r3, #0
 80053be:	f04f 0200 	mov.w	r2, #0
 80053c2:	9202      	str	r2, [sp, #8]
 80053c4:	f340 80b9 	ble.w	800553a <xmp3_UnpackSideInfo+0x1fa>
 80053c8:	9c03      	ldr	r4, [sp, #12]
 80053ca:	2700      	movs	r7, #0
 80053cc:	46b2      	mov	sl, r6
 80053ce:	210c      	movs	r1, #12
 80053d0:	4628      	mov	r0, r5
 80053d2:	f7ff fe5b 	bl	800508c <xmp3_GetBits>
 80053d6:	2109      	movs	r1, #9
 80053d8:	62a0      	str	r0, [r4, #40]	; 0x28
 80053da:	4628      	mov	r0, r5
 80053dc:	f7ff fe56 	bl	800508c <xmp3_GetBits>
 80053e0:	2108      	movs	r1, #8
 80053e2:	62e0      	str	r0, [r4, #44]	; 0x2c
 80053e4:	4628      	mov	r0, r5
 80053e6:	f7ff fe51 	bl	800508c <xmp3_GetBits>
 80053ea:	6320      	str	r0, [r4, #48]	; 0x30
 80053ec:	f89b 3000 	ldrb.w	r3, [fp]
 80053f0:	2b00      	cmp	r3, #0
 80053f2:	bf0c      	ite	eq
 80053f4:	2104      	moveq	r1, #4
 80053f6:	2109      	movne	r1, #9
 80053f8:	4628      	mov	r0, r5
 80053fa:	f7ff fe47 	bl	800508c <xmp3_GetBits>
 80053fe:	6360      	str	r0, [r4, #52]	; 0x34
 8005400:	e9dd 0107 	ldrd	r0, r1, [sp, #28]
 8005404:	f101 3eff 	add.w	lr, r1, #4294967295
 8005408:	0043      	lsls	r3, r0, #1
 800540a:	f1be 0f00 	cmp.w	lr, #0
 800540e:	9307      	str	r3, [sp, #28]
 8005410:	ea4f 70d0 	mov.w	r0, r0, lsr #31
 8005414:	f8cd e020 	str.w	lr, [sp, #32]
 8005418:	f2c0 81b5 	blt.w	8005786 <xmp3_UnpackSideInfo+0x446>
 800541c:	63a0      	str	r0, [r4, #56]	; 0x38
 800541e:	2800      	cmp	r0, #0
 8005420:	f000 80d2 	beq.w	80055c8 <xmp3_UnpackSideInfo+0x288>
 8005424:	2102      	movs	r1, #2
 8005426:	4628      	mov	r0, r5
 8005428:	f7ff fe30 	bl	800508c <xmp3_GetBits>
 800542c:	e9dd 3e07 	ldrd	r3, lr, [sp, #28]
 8005430:	f10e 31ff 	add.w	r1, lr, #4294967295
 8005434:	005a      	lsls	r2, r3, #1
 8005436:	0fde      	lsrs	r6, r3, #31
 8005438:	2900      	cmp	r1, #0
 800543a:	63e0      	str	r0, [r4, #60]	; 0x3c
 800543c:	9601      	str	r6, [sp, #4]
 800543e:	9207      	str	r2, [sp, #28]
 8005440:	9108      	str	r1, [sp, #32]
 8005442:	f2c0 83ef 	blt.w	8005c24 <xmp3_UnpackSideInfo+0x8e4>
 8005446:	ea4f 6cd2 	mov.w	ip, r2, lsr #27
 800544a:	019b      	lsls	r3, r3, #6
 800544c:	4632      	mov	r2, r6
 800544e:	6422      	str	r2, [r4, #64]	; 0x40
 8005450:	1f4a      	subs	r2, r1, #5
 8005452:	2a00      	cmp	r2, #0
 8005454:	9307      	str	r3, [sp, #28]
 8005456:	9208      	str	r2, [sp, #32]
 8005458:	f2c0 849a 	blt.w	8005d90 <xmp3_UnpackSideInfo+0xa50>
 800545c:	ea4f 6ed3 	mov.w	lr, r3, lsr #27
 8005460:	015b      	lsls	r3, r3, #5
 8005462:	1f51      	subs	r1, r2, #5
 8005464:	2900      	cmp	r1, #0
 8005466:	f8c4 c044 	str.w	ip, [r4, #68]	; 0x44
 800546a:	9307      	str	r3, [sp, #28]
 800546c:	9108      	str	r1, [sp, #32]
 800546e:	f2c0 8228 	blt.w	80058c2 <xmp3_UnpackSideInfo+0x582>
 8005472:	0f5a      	lsrs	r2, r3, #29
 8005474:	00db      	lsls	r3, r3, #3
 8005476:	f8c4 e048 	str.w	lr, [r4, #72]	; 0x48
 800547a:	f1a1 0c03 	sub.w	ip, r1, #3
 800547e:	f04f 0e00 	mov.w	lr, #0
 8005482:	45f4      	cmp	ip, lr
 8005484:	f8c4 e04c 	str.w	lr, [r4, #76]	; 0x4c
 8005488:	9307      	str	r3, [sp, #28]
 800548a:	f8cd c020 	str.w	ip, [sp, #32]
 800548e:	f2c0 835a 	blt.w	8005b46 <xmp3_UnpackSideInfo+0x806>
 8005492:	ea4f 7e53 	mov.w	lr, r3, lsr #29
 8005496:	00db      	lsls	r3, r3, #3
 8005498:	6522      	str	r2, [r4, #80]	; 0x50
 800549a:	f1ac 0203 	sub.w	r2, ip, #3
 800549e:	2a00      	cmp	r2, #0
 80054a0:	9307      	str	r3, [sp, #28]
 80054a2:	9208      	str	r2, [sp, #32]
 80054a4:	f2c0 8244 	blt.w	8005930 <xmp3_UnpackSideInfo+0x5f0>
 80054a8:	0f59      	lsrs	r1, r3, #29
 80054aa:	00db      	lsls	r3, r3, #3
 80054ac:	f8c4 e054 	str.w	lr, [r4, #84]	; 0x54
 80054b0:	9307      	str	r3, [sp, #28]
 80054b2:	1ed3      	subs	r3, r2, #3
 80054b4:	2b00      	cmp	r3, #0
 80054b6:	9308      	str	r3, [sp, #32]
 80054b8:	f2c0 830c 	blt.w	8005ad4 <xmp3_UnpackSideInfo+0x794>
 80054bc:	65a1      	str	r1, [r4, #88]	; 0x58
 80054be:	2800      	cmp	r0, #0
 80054c0:	f040 8191 	bne.w	80057e6 <xmp3_UnpackSideInfo+0x4a6>
 80054c4:	6de3      	ldr	r3, [r4, #92]	; 0x5c
 80054c6:	6360      	str	r0, [r4, #52]	; 0x34
 80054c8:	e9c4 000a 	strd	r0, r0, [r4, #40]	; 0x28
 80054cc:	f1c3 0314 	rsb	r3, r3, #20
 80054d0:	6623      	str	r3, [r4, #96]	; 0x60
 80054d2:	e9dd 3c07 	ldrd	r3, ip, [sp, #28]
 80054d6:	f89b 2000 	ldrb.w	r2, [fp]
 80054da:	0fd9      	lsrs	r1, r3, #31
 80054dc:	005b      	lsls	r3, r3, #1
 80054de:	2a00      	cmp	r2, #0
 80054e0:	f000 80b0 	beq.w	8005644 <xmp3_UnpackSideInfo+0x304>
 80054e4:	2200      	movs	r2, #0
 80054e6:	f10c 36ff 	add.w	r6, ip, #4294967295
 80054ea:	2e00      	cmp	r6, #0
 80054ec:	6662      	str	r2, [r4, #100]	; 0x64
 80054ee:	9307      	str	r3, [sp, #28]
 80054f0:	9608      	str	r6, [sp, #32]
 80054f2:	f2c0 80b5 	blt.w	8005660 <xmp3_UnpackSideInfo+0x320>
 80054f6:	0fd8      	lsrs	r0, r3, #31
 80054f8:	005b      	lsls	r3, r3, #1
 80054fa:	1e72      	subs	r2, r6, #1
 80054fc:	2a00      	cmp	r2, #0
 80054fe:	66a1      	str	r1, [r4, #104]	; 0x68
 8005500:	9307      	str	r3, [sp, #28]
 8005502:	9208      	str	r2, [sp, #32]
 8005504:	f2c0 8110 	blt.w	8005728 <xmp3_UnpackSideInfo+0x3e8>
 8005508:	f8da 37bc 	ldr.w	r3, [sl, #1980]	; 0x7bc
 800550c:	66e0      	str	r0, [r4, #108]	; 0x6c
 800550e:	3701      	adds	r7, #1
 8005510:	42bb      	cmp	r3, r7
 8005512:	f104 0448 	add.w	r4, r4, #72	; 0x48
 8005516:	f73f af5a 	bgt.w	80053ce <xmp3_UnpackSideInfo+0x8e>
 800551a:	9a02      	ldr	r2, [sp, #8]
 800551c:	3201      	adds	r2, #1
 800551e:	4611      	mov	r1, r2
 8005520:	9202      	str	r2, [sp, #8]
 8005522:	f8da 27c4 	ldr.w	r2, [sl, #1988]	; 0x7c4
 8005526:	4291      	cmp	r1, r2
 8005528:	4656      	mov	r6, sl
 800552a:	da06      	bge.n	800553a <xmp3_UnpackSideInfo+0x1fa>
 800552c:	9a03      	ldr	r2, [sp, #12]
 800552e:	2b00      	cmp	r3, #0
 8005530:	f102 0290 	add.w	r2, r2, #144	; 0x90
 8005534:	9203      	str	r2, [sp, #12]
 8005536:	f73f af47 	bgt.w	80053c8 <xmp3_UnpackSideInfo+0x88>
 800553a:	9b04      	ldr	r3, [sp, #16]
 800553c:	681b      	ldr	r3, [r3, #0]
 800553e:	f8c6 37d8 	str.w	r3, [r6, #2008]	; 0x7d8
 8005542:	9805      	ldr	r0, [sp, #20]
 8005544:	b00b      	add	sp, #44	; 0x2c
 8005546:	e8bd 8ff0 	ldmia.w	sp!, {r4, r5, r6, r7, r8, r9, sl, fp, pc}
 800554a:	f89b 301c 	ldrb.w	r3, [fp, #28]
 800554e:	9106      	str	r1, [sp, #24]
 8005550:	2b03      	cmp	r3, #3
 8005552:	ad06      	add	r5, sp, #24
 8005554:	bf0c      	ite	eq
 8005556:	2311      	moveq	r3, #17
 8005558:	2320      	movne	r3, #32
 800555a:	2109      	movs	r1, #9
 800555c:	4628      	mov	r0, r5
 800555e:	9305      	str	r3, [sp, #20]
 8005560:	9309      	str	r3, [sp, #36]	; 0x24
 8005562:	e9cd 8807 	strd	r8, r8, [sp, #28]
 8005566:	f7ff fd91 	bl	800508c <xmp3_GetBits>
 800556a:	6020      	str	r0, [r4, #0]
 800556c:	f89b 301c 	ldrb.w	r3, [fp, #28]
 8005570:	2b03      	cmp	r3, #3
 8005572:	bf0c      	ite	eq
 8005574:	2105      	moveq	r1, #5
 8005576:	2103      	movne	r1, #3
 8005578:	4628      	mov	r0, r5
 800557a:	f7ff fd87 	bl	800508c <xmp3_GetBits>
 800557e:	f8d6 37bc 	ldr.w	r3, [r6, #1980]	; 0x7bc
 8005582:	6060      	str	r0, [r4, #4]
 8005584:	2b00      	cmp	r3, #0
 8005586:	f77f af10 	ble.w	80053aa <xmp3_UnpackSideInfo+0x6a>
 800558a:	f104 0718 	add.w	r7, r4, #24
 800558e:	eb07 1903 	add.w	r9, r7, r3, lsl #4
 8005592:	e9dd 3107 	ldrd	r3, r1, [sp, #28]
 8005596:	46bc      	mov	ip, r7
 8005598:	468e      	mov	lr, r1
 800559a:	4641      	mov	r1, r8
 800559c:	f1ac 0410 	sub.w	r4, ip, #16
 80055a0:	f10e 30ff 	add.w	r0, lr, #4294967295
 80055a4:	0fdf      	lsrs	r7, r3, #31
 80055a6:	2800      	cmp	r0, #0
 80055a8:	ea4f 0343 	mov.w	r3, r3, lsl #1
 80055ac:	9307      	str	r3, [sp, #28]
 80055ae:	9008      	str	r0, [sp, #32]
 80055b0:	f2c0 8085 	blt.w	80056be <xmp3_UnpackSideInfo+0x37e>
 80055b4:	4686      	mov	lr, r0
 80055b6:	f844 7b04 	str.w	r7, [r4], #4
 80055ba:	45a4      	cmp	ip, r4
 80055bc:	d1f0      	bne.n	80055a0 <xmp3_UnpackSideInfo+0x260>
 80055be:	f10c 0c10 	add.w	ip, ip, #16
 80055c2:	45cc      	cmp	ip, r9
 80055c4:	d1ea      	bne.n	800559c <xmp3_UnpackSideInfo+0x25c>
 80055c6:	e6f0      	b.n	80053aa <xmp3_UnpackSideInfo+0x6a>
 80055c8:	f1ae 0605 	sub.w	r6, lr, #5
 80055cc:	0159      	lsls	r1, r3, #5
 80055ce:	2e00      	cmp	r6, #0
 80055d0:	e9c4 000f 	strd	r0, r0, [r4, #60]	; 0x3c
 80055d4:	ea4f 6cd3 	mov.w	ip, r3, lsr #27
 80055d8:	9107      	str	r1, [sp, #28]
 80055da:	9608      	str	r6, [sp, #32]
 80055dc:	f2c0 8247 	blt.w	8005a6e <xmp3_UnpackSideInfo+0x72e>
 80055e0:	0ec9      	lsrs	r1, r1, #27
 80055e2:	029b      	lsls	r3, r3, #10
 80055e4:	1f72      	subs	r2, r6, #5
 80055e6:	2a00      	cmp	r2, #0
 80055e8:	f8c4 c044 	str.w	ip, [r4, #68]	; 0x44
 80055ec:	9307      	str	r3, [sp, #28]
 80055ee:	9208      	str	r2, [sp, #32]
 80055f0:	f2c0 820c 	blt.w	8005a0c <xmp3_UnpackSideInfo+0x6cc>
 80055f4:	0ed8      	lsrs	r0, r3, #27
 80055f6:	015b      	lsls	r3, r3, #5
 80055f8:	f1a2 0e05 	sub.w	lr, r2, #5
 80055fc:	f1be 0f00 	cmp.w	lr, #0
 8005600:	64a1      	str	r1, [r4, #72]	; 0x48
 8005602:	9307      	str	r3, [sp, #28]
 8005604:	f8cd e020 	str.w	lr, [sp, #32]
 8005608:	f2c0 8128 	blt.w	800585c <xmp3_UnpackSideInfo+0x51c>
 800560c:	64e0      	str	r0, [r4, #76]	; 0x4c
 800560e:	2104      	movs	r1, #4
 8005610:	4628      	mov	r0, r5
 8005612:	f7ff fd3b 	bl	800508c <xmp3_GetBits>
 8005616:	e9dd 3207 	ldrd	r3, r2, [sp, #28]
 800561a:	f1a2 0c03 	sub.w	ip, r2, #3
 800561e:	00d9      	lsls	r1, r3, #3
 8005620:	f1bc 0f00 	cmp.w	ip, #0
 8005624:	65e0      	str	r0, [r4, #92]	; 0x5c
 8005626:	9107      	str	r1, [sp, #28]
 8005628:	f8cd c020 	str.w	ip, [sp, #32]
 800562c:	ea4f 7053 	mov.w	r0, r3, lsr #29
 8005630:	f2c0 80e0 	blt.w	80057f4 <xmp3_UnpackSideInfo+0x4b4>
 8005634:	0fc9      	lsrs	r1, r1, #31
 8005636:	011b      	lsls	r3, r3, #4
 8005638:	6620      	str	r0, [r4, #96]	; 0x60
 800563a:	f89b 2000 	ldrb.w	r2, [fp]
 800563e:	2a00      	cmp	r2, #0
 8005640:	f47f af50 	bne.w	80054e4 <xmp3_UnpackSideInfo+0x1a4>
 8005644:	f10c 3eff 	add.w	lr, ip, #4294967295
 8005648:	f1be 0f00 	cmp.w	lr, #0
 800564c:	9307      	str	r3, [sp, #28]
 800564e:	f8cd e020 	str.w	lr, [sp, #32]
 8005652:	f2c0 83de 	blt.w	8005e12 <xmp3_UnpackSideInfo+0xad2>
 8005656:	460a      	mov	r2, r1
 8005658:	46f4      	mov	ip, lr
 800565a:	0fd9      	lsrs	r1, r3, #31
 800565c:	005b      	lsls	r3, r3, #1
 800565e:	e742      	b.n	80054e6 <xmp3_UnpackSideInfo+0x1a6>
 8005660:	9a09      	ldr	r2, [sp, #36]	; 0x24
 8005662:	2a03      	cmp	r2, #3
 8005664:	f1cc 0001 	rsb	r0, ip, #1
 8005668:	f340 831a 	ble.w	8005ca0 <xmp3_UnpackSideInfo+0x960>
 800566c:	9b06      	ldr	r3, [sp, #24]
 800566e:	f10c 061f 	add.w	r6, ip, #31
 8005672:	469e      	mov	lr, r3
 8005674:	f1a2 0c04 	sub.w	ip, r2, #4
 8005678:	1c5a      	adds	r2, r3, #1
 800567a:	9206      	str	r2, [sp, #24]
 800567c:	f81e 2b02 	ldrb.w	r2, [lr], #2
 8005680:	f8cd e018 	str.w	lr, [sp, #24]
 8005684:	0612      	lsls	r2, r2, #24
 8005686:	9207      	str	r2, [sp, #28]
 8005688:	f893 e001 	ldrb.w	lr, [r3, #1]
 800568c:	ea42 420e 	orr.w	r2, r2, lr, lsl #16
 8005690:	f103 0e03 	add.w	lr, r3, #3
 8005694:	9207      	str	r2, [sp, #28]
 8005696:	f8cd e018 	str.w	lr, [sp, #24]
 800569a:	f893 e002 	ldrb.w	lr, [r3, #2]
 800569e:	ea42 220e 	orr.w	r2, r2, lr, lsl #8
 80056a2:	f103 0e04 	add.w	lr, r3, #4
 80056a6:	9207      	str	r2, [sp, #28]
 80056a8:	f8cd e018 	str.w	lr, [sp, #24]
 80056ac:	78db      	ldrb	r3, [r3, #3]
 80056ae:	f8cd c024 	str.w	ip, [sp, #36]	; 0x24
 80056b2:	431a      	orrs	r2, r3
 80056b4:	fa02 f300 	lsl.w	r3, r2, r0
 80056b8:	40f2      	lsrs	r2, r6
 80056ba:	4311      	orrs	r1, r2
 80056bc:	e71b      	b.n	80054f6 <xmp3_UnpackSideInfo+0x1b6>
 80056be:	f8dd 8024 	ldr.w	r8, [sp, #36]	; 0x24
 80056c2:	f1ce 0301 	rsb	r3, lr, #1
 80056c6:	f1b8 0f03 	cmp.w	r8, #3
 80056ca:	9301      	str	r3, [sp, #4]
 80056cc:	f340 8166 	ble.w	800599c <xmp3_UnpackSideInfo+0x65c>
 80056d0:	9806      	ldr	r0, [sp, #24]
 80056d2:	4682      	mov	sl, r0
 80056d4:	1c42      	adds	r2, r0, #1
 80056d6:	9206      	str	r2, [sp, #24]
 80056d8:	f81a 2b02 	ldrb.w	r2, [sl], #2
 80056dc:	f8cd a018 	str.w	sl, [sp, #24]
 80056e0:	0612      	lsls	r2, r2, #24
 80056e2:	9207      	str	r2, [sp, #28]
 80056e4:	f890 a001 	ldrb.w	sl, [r0, #1]
 80056e8:	ea42 420a 	orr.w	r2, r2, sl, lsl #16
 80056ec:	f100 0a03 	add.w	sl, r0, #3
 80056f0:	9207      	str	r2, [sp, #28]
 80056f2:	f8cd a018 	str.w	sl, [sp, #24]
 80056f6:	f890 a002 	ldrb.w	sl, [r0, #2]
 80056fa:	ea42 2a0a 	orr.w	sl, r2, sl, lsl #8
 80056fe:	1d02      	adds	r2, r0, #4
 8005700:	f8cd a01c 	str.w	sl, [sp, #28]
 8005704:	9206      	str	r2, [sp, #24]
 8005706:	78c2      	ldrb	r2, [r0, #3]
 8005708:	f10e 0e1f 	add.w	lr, lr, #31
 800570c:	ea42 020a 	orr.w	r2, r2, sl
 8005710:	f1a8 0804 	sub.w	r8, r8, #4
 8005714:	fa02 f303 	lsl.w	r3, r2, r3
 8005718:	fa22 f20e 	lsr.w	r2, r2, lr
 800571c:	f8cd 8024 	str.w	r8, [sp, #36]	; 0x24
 8005720:	4317      	orrs	r7, r2
 8005722:	e9cd 3e07 	strd	r3, lr, [sp, #28]
 8005726:	e746      	b.n	80055b6 <xmp3_UnpackSideInfo+0x276>
 8005728:	9909      	ldr	r1, [sp, #36]	; 0x24
 800572a:	2903      	cmp	r1, #3
 800572c:	f1c6 0c01 	rsb	ip, r6, #1
 8005730:	f340 82f4 	ble.w	8005d1c <xmp3_UnpackSideInfo+0x9dc>
 8005734:	f106 031f 	add.w	r3, r6, #31
 8005738:	9e06      	ldr	r6, [sp, #24]
 800573a:	46b6      	mov	lr, r6
 800573c:	1c72      	adds	r2, r6, #1
 800573e:	9206      	str	r2, [sp, #24]
 8005740:	f81e 2b02 	ldrb.w	r2, [lr], #2
 8005744:	f8cd e018 	str.w	lr, [sp, #24]
 8005748:	0612      	lsls	r2, r2, #24
 800574a:	9207      	str	r2, [sp, #28]
 800574c:	f896 e001 	ldrb.w	lr, [r6, #1]
 8005750:	ea42 420e 	orr.w	r2, r2, lr, lsl #16
 8005754:	f106 0e03 	add.w	lr, r6, #3
 8005758:	9207      	str	r2, [sp, #28]
 800575a:	f8cd e018 	str.w	lr, [sp, #24]
 800575e:	f896 e002 	ldrb.w	lr, [r6, #2]
 8005762:	ea42 220e 	orr.w	r2, r2, lr, lsl #8
 8005766:	f106 0e04 	add.w	lr, r6, #4
 800576a:	9207      	str	r2, [sp, #28]
 800576c:	f8cd e018 	str.w	lr, [sp, #24]
 8005770:	78f6      	ldrb	r6, [r6, #3]
 8005772:	4332      	orrs	r2, r6
 8005774:	3904      	subs	r1, #4
 8005776:	fa02 f60c 	lsl.w	r6, r2, ip
 800577a:	40da      	lsrs	r2, r3
 800577c:	9109      	str	r1, [sp, #36]	; 0x24
 800577e:	4310      	orrs	r0, r2
 8005780:	e9cd 6307 	strd	r6, r3, [sp, #28]
 8005784:	e6c0      	b.n	8005508 <xmp3_UnpackSideInfo+0x1c8>
 8005786:	9a09      	ldr	r2, [sp, #36]	; 0x24
 8005788:	2a03      	cmp	r2, #3
 800578a:	f1c1 0301 	rsb	r3, r1, #1
 800578e:	f340 8211 	ble.w	8005bb4 <xmp3_UnpackSideInfo+0x874>
 8005792:	9e06      	ldr	r6, [sp, #24]
 8005794:	f101 0e1f 	add.w	lr, r1, #31
 8005798:	46b4      	mov	ip, r6
 800579a:	1f11      	subs	r1, r2, #4
 800579c:	1c72      	adds	r2, r6, #1
 800579e:	9206      	str	r2, [sp, #24]
 80057a0:	f81c 2b02 	ldrb.w	r2, [ip], #2
 80057a4:	f8cd c018 	str.w	ip, [sp, #24]
 80057a8:	0612      	lsls	r2, r2, #24
 80057aa:	9207      	str	r2, [sp, #28]
 80057ac:	f896 c001 	ldrb.w	ip, [r6, #1]
 80057b0:	ea42 420c 	orr.w	r2, r2, ip, lsl #16
 80057b4:	f106 0c03 	add.w	ip, r6, #3
 80057b8:	9207      	str	r2, [sp, #28]
 80057ba:	f8cd c018 	str.w	ip, [sp, #24]
 80057be:	f896 c002 	ldrb.w	ip, [r6, #2]
 80057c2:	ea42 220c 	orr.w	r2, r2, ip, lsl #8
 80057c6:	f106 0c04 	add.w	ip, r6, #4
 80057ca:	9207      	str	r2, [sp, #28]
 80057cc:	f8cd c018 	str.w	ip, [sp, #24]
 80057d0:	78f6      	ldrb	r6, [r6, #3]
 80057d2:	9109      	str	r1, [sp, #36]	; 0x24
 80057d4:	4332      	orrs	r2, r6
 80057d6:	fa02 f303 	lsl.w	r3, r2, r3
 80057da:	fa22 f20e 	lsr.w	r2, r2, lr
 80057de:	4310      	orrs	r0, r2
 80057e0:	e9cd 3e07 	strd	r3, lr, [sp, #28]
 80057e4:	e61a      	b.n	800541c <xmp3_UnpackSideInfo+0xdc>
 80057e6:	2802      	cmp	r0, #2
 80057e8:	f000 830a 	beq.w	8005e00 <xmp3_UnpackSideInfo+0xac0>
 80057ec:	2307      	movs	r3, #7
 80057ee:	65e3      	str	r3, [r4, #92]	; 0x5c
 80057f0:	230d      	movs	r3, #13
 80057f2:	e66d      	b.n	80054d0 <xmp3_UnpackSideInfo+0x190>
 80057f4:	9e09      	ldr	r6, [sp, #36]	; 0x24
 80057f6:	2e03      	cmp	r6, #3
 80057f8:	f1c2 0303 	rsb	r3, r2, #3
 80057fc:	f340 8344 	ble.w	8005e88 <xmp3_UnpackSideInfo+0xb48>
 8005800:	f8dd c018 	ldr.w	ip, [sp, #24]
 8005804:	46e6      	mov	lr, ip
 8005806:	f10c 0101 	add.w	r1, ip, #1
 800580a:	9106      	str	r1, [sp, #24]
 800580c:	f81e 1b02 	ldrb.w	r1, [lr], #2
 8005810:	f8cd e018 	str.w	lr, [sp, #24]
 8005814:	0609      	lsls	r1, r1, #24
 8005816:	9107      	str	r1, [sp, #28]
 8005818:	f89c e001 	ldrb.w	lr, [ip, #1]
 800581c:	ea41 410e 	orr.w	r1, r1, lr, lsl #16
 8005820:	f10c 0e03 	add.w	lr, ip, #3
 8005824:	9107      	str	r1, [sp, #28]
 8005826:	f8cd e018 	str.w	lr, [sp, #24]
 800582a:	f89c e002 	ldrb.w	lr, [ip, #2]
 800582e:	ea41 210e 	orr.w	r1, r1, lr, lsl #8
 8005832:	f10c 0e04 	add.w	lr, ip, #4
 8005836:	9107      	str	r1, [sp, #28]
 8005838:	f8cd e018 	str.w	lr, [sp, #24]
 800583c:	f89c c003 	ldrb.w	ip, [ip, #3]
 8005840:	321d      	adds	r2, #29
 8005842:	ea4c 0101 	orr.w	r1, ip, r1
 8005846:	fa01 f303 	lsl.w	r3, r1, r3
 800584a:	3e04      	subs	r6, #4
 800584c:	40d1      	lsrs	r1, r2
 800584e:	4308      	orrs	r0, r1
 8005850:	9609      	str	r6, [sp, #36]	; 0x24
 8005852:	0fd9      	lsrs	r1, r3, #31
 8005854:	005b      	lsls	r3, r3, #1
 8005856:	4694      	mov	ip, r2
 8005858:	9208      	str	r2, [sp, #32]
 800585a:	e6ed      	b.n	8005638 <xmp3_UnpackSideInfo+0x2f8>
 800585c:	f8dd c024 	ldr.w	ip, [sp, #36]	; 0x24
 8005860:	f1bc 0f03 	cmp.w	ip, #3
 8005864:	f1c2 0105 	rsb	r1, r2, #5
 8005868:	f340 8503 	ble.w	8006272 <xmp3_UnpackSideInfo+0xf32>
 800586c:	9e06      	ldr	r6, [sp, #24]
 800586e:	f102 031b 	add.w	r3, r2, #27
 8005872:	46b6      	mov	lr, r6
 8005874:	1c72      	adds	r2, r6, #1
 8005876:	9206      	str	r2, [sp, #24]
 8005878:	f81e 2b02 	ldrb.w	r2, [lr], #2
 800587c:	f8cd e018 	str.w	lr, [sp, #24]
 8005880:	0612      	lsls	r2, r2, #24
 8005882:	9207      	str	r2, [sp, #28]
 8005884:	f896 e001 	ldrb.w	lr, [r6, #1]
 8005888:	ea42 420e 	orr.w	r2, r2, lr, lsl #16
 800588c:	f106 0e03 	add.w	lr, r6, #3
 8005890:	9207      	str	r2, [sp, #28]
 8005892:	f8cd e018 	str.w	lr, [sp, #24]
 8005896:	f896 e002 	ldrb.w	lr, [r6, #2]
 800589a:	ea42 220e 	orr.w	r2, r2, lr, lsl #8
 800589e:	f106 0e04 	add.w	lr, r6, #4
 80058a2:	9207      	str	r2, [sp, #28]
 80058a4:	f8cd e018 	str.w	lr, [sp, #24]
 80058a8:	78f6      	ldrb	r6, [r6, #3]
 80058aa:	4332      	orrs	r2, r6
 80058ac:	f1ac 0c04 	sub.w	ip, ip, #4
 80058b0:	fa02 f101 	lsl.w	r1, r2, r1
 80058b4:	40da      	lsrs	r2, r3
 80058b6:	f8cd c024 	str.w	ip, [sp, #36]	; 0x24
 80058ba:	4310      	orrs	r0, r2
 80058bc:	e9cd 1307 	strd	r1, r3, [sp, #28]
 80058c0:	e6a4      	b.n	800560c <xmp3_UnpackSideInfo+0x2cc>
 80058c2:	f8dd c024 	ldr.w	ip, [sp, #36]	; 0x24
 80058c6:	f1bc 0f03 	cmp.w	ip, #3
 80058ca:	f1c2 0305 	rsb	r3, r2, #5
 80058ce:	f340 8353 	ble.w	8005f78 <xmp3_UnpackSideInfo+0xc38>
 80058d2:	f8dd 8018 	ldr.w	r8, [sp, #24]
 80058d6:	f102 011b 	add.w	r1, r2, #27
 80058da:	46c1      	mov	r9, r8
 80058dc:	f108 0201 	add.w	r2, r8, #1
 80058e0:	9206      	str	r2, [sp, #24]
 80058e2:	f819 2b02 	ldrb.w	r2, [r9], #2
 80058e6:	f8cd 9018 	str.w	r9, [sp, #24]
 80058ea:	0612      	lsls	r2, r2, #24
 80058ec:	9207      	str	r2, [sp, #28]
 80058ee:	f898 9001 	ldrb.w	r9, [r8, #1]
 80058f2:	ea42 4209 	orr.w	r2, r2, r9, lsl #16
 80058f6:	f108 0903 	add.w	r9, r8, #3
 80058fa:	9207      	str	r2, [sp, #28]
 80058fc:	f8cd 9018 	str.w	r9, [sp, #24]
 8005900:	f898 9002 	ldrb.w	r9, [r8, #2]
 8005904:	ea42 2909 	orr.w	r9, r2, r9, lsl #8
 8005908:	f108 0204 	add.w	r2, r8, #4
 800590c:	f8cd 901c 	str.w	r9, [sp, #28]
 8005910:	9206      	str	r2, [sp, #24]
 8005912:	f898 2003 	ldrb.w	r2, [r8, #3]
 8005916:	f1ac 0c04 	sub.w	ip, ip, #4
 800591a:	f8cd c024 	str.w	ip, [sp, #36]	; 0x24
 800591e:	ea42 0c09 	orr.w	ip, r2, r9
 8005922:	fa0c f303 	lsl.w	r3, ip, r3
 8005926:	fa2c fc01 	lsr.w	ip, ip, r1
 800592a:	ea4e 0e0c 	orr.w	lr, lr, ip
 800592e:	e5a0      	b.n	8005472 <xmp3_UnpackSideInfo+0x132>
 8005930:	f8dd 8024 	ldr.w	r8, [sp, #36]	; 0x24
 8005934:	f1b8 0f03 	cmp.w	r8, #3
 8005938:	f1cc 0303 	rsb	r3, ip, #3
 800593c:	f340 82de 	ble.w	8005efc <xmp3_UnpackSideInfo+0xbbc>
 8005940:	f10c 021d 	add.w	r2, ip, #29
 8005944:	f8dd c018 	ldr.w	ip, [sp, #24]
 8005948:	46e1      	mov	r9, ip
 800594a:	f10c 0101 	add.w	r1, ip, #1
 800594e:	9106      	str	r1, [sp, #24]
 8005950:	f819 1b02 	ldrb.w	r1, [r9], #2
 8005954:	f8cd 9018 	str.w	r9, [sp, #24]
 8005958:	0609      	lsls	r1, r1, #24
 800595a:	9107      	str	r1, [sp, #28]
 800595c:	f89c 9001 	ldrb.w	r9, [ip, #1]
 8005960:	ea41 4109 	orr.w	r1, r1, r9, lsl #16
 8005964:	f10c 0903 	add.w	r9, ip, #3
 8005968:	9107      	str	r1, [sp, #28]
 800596a:	f8cd 9018 	str.w	r9, [sp, #24]
 800596e:	f89c 9002 	ldrb.w	r9, [ip, #2]
 8005972:	ea41 2909 	orr.w	r9, r1, r9, lsl #8
 8005976:	f10c 0104 	add.w	r1, ip, #4
 800597a:	f8cd 901c 	str.w	r9, [sp, #28]
 800597e:	9106      	str	r1, [sp, #24]
 8005980:	f89c 1003 	ldrb.w	r1, [ip, #3]
 8005984:	ea41 0109 	orr.w	r1, r1, r9
 8005988:	f1a8 0804 	sub.w	r8, r8, #4
 800598c:	fa01 f303 	lsl.w	r3, r1, r3
 8005990:	40d1      	lsrs	r1, r2
 8005992:	f8cd 8024 	str.w	r8, [sp, #36]	; 0x24
 8005996:	ea4e 0e01 	orr.w	lr, lr, r1
 800599a:	e585      	b.n	80054a8 <xmp3_UnpackSideInfo+0x168>
 800599c:	9107      	str	r1, [sp, #28]
 800599e:	f1b8 0f00 	cmp.w	r8, #0
 80059a2:	f000 852d 	beq.w	8006400 <xmp3_UnpackSideInfo+0x10c0>
 80059a6:	f8dd a018 	ldr.w	sl, [sp, #24]
 80059aa:	f10a 0201 	add.w	r2, sl, #1
 80059ae:	9206      	str	r2, [sp, #24]
 80059b0:	f89a 2000 	ldrb.w	r2, [sl]
 80059b4:	f1b8 0f01 	cmp.w	r8, #1
 80059b8:	ea4f 2202 	mov.w	r2, r2, lsl #8
 80059bc:	9207      	str	r2, [sp, #28]
 80059be:	d012      	beq.n	80059e6 <xmp3_UnpackSideInfo+0x6a6>
 80059c0:	f10a 0302 	add.w	r3, sl, #2
 80059c4:	9306      	str	r3, [sp, #24]
 80059c6:	f89a 3001 	ldrb.w	r3, [sl, #1]
 80059ca:	431a      	orrs	r2, r3
 80059cc:	0212      	lsls	r2, r2, #8
 80059ce:	f1b8 0f02 	cmp.w	r8, #2
 80059d2:	9207      	str	r2, [sp, #28]
 80059d4:	d007      	beq.n	80059e6 <xmp3_UnpackSideInfo+0x6a6>
 80059d6:	f10a 0303 	add.w	r3, sl, #3
 80059da:	9306      	str	r3, [sp, #24]
 80059dc:	f89a a002 	ldrb.w	sl, [sl, #2]
 80059e0:	ea4a 0202 	orr.w	r2, sl, r2
 80059e4:	0212      	lsls	r2, r2, #8
 80059e6:	f1c8 0a03 	rsb	sl, r8, #3
 80059ea:	ea4f 0aca 	mov.w	sl, sl, lsl #3
 80059ee:	fa02 f20a 	lsl.w	r2, r2, sl
 80059f2:	9b01      	ldr	r3, [sp, #4]
 80059f4:	f10e 0e1f 	add.w	lr, lr, #31
 80059f8:	fa22 fe0e 	lsr.w	lr, r2, lr
 80059fc:	ea47 070e 	orr.w	r7, r7, lr
 8005a00:	fa02 f303 	lsl.w	r3, r2, r3
 8005a04:	eb00 0ec8 	add.w	lr, r0, r8, lsl #3
 8005a08:	9109      	str	r1, [sp, #36]	; 0x24
 8005a0a:	e68a      	b.n	8005722 <xmp3_UnpackSideInfo+0x3e2>
 8005a0c:	f8dd c024 	ldr.w	ip, [sp, #36]	; 0x24
 8005a10:	f1bc 0f03 	cmp.w	ip, #3
 8005a14:	f1c6 0305 	rsb	r3, r6, #5
 8005a18:	f340 83a6 	ble.w	8006168 <xmp3_UnpackSideInfo+0xe28>
 8005a1c:	f106 021b 	add.w	r2, r6, #27
 8005a20:	9e06      	ldr	r6, [sp, #24]
 8005a22:	46b6      	mov	lr, r6
 8005a24:	1c70      	adds	r0, r6, #1
 8005a26:	9006      	str	r0, [sp, #24]
 8005a28:	f81e 0b02 	ldrb.w	r0, [lr], #2
 8005a2c:	f8cd e018 	str.w	lr, [sp, #24]
 8005a30:	0600      	lsls	r0, r0, #24
 8005a32:	9007      	str	r0, [sp, #28]
 8005a34:	f896 e001 	ldrb.w	lr, [r6, #1]
 8005a38:	ea40 400e 	orr.w	r0, r0, lr, lsl #16
 8005a3c:	f106 0e03 	add.w	lr, r6, #3
 8005a40:	9007      	str	r0, [sp, #28]
 8005a42:	f8cd e018 	str.w	lr, [sp, #24]
 8005a46:	f896 e002 	ldrb.w	lr, [r6, #2]
 8005a4a:	ea40 200e 	orr.w	r0, r0, lr, lsl #8
 8005a4e:	f106 0e04 	add.w	lr, r6, #4
 8005a52:	9007      	str	r0, [sp, #28]
 8005a54:	f8cd e018 	str.w	lr, [sp, #24]
 8005a58:	78f6      	ldrb	r6, [r6, #3]
 8005a5a:	4330      	orrs	r0, r6
 8005a5c:	f1ac 0c04 	sub.w	ip, ip, #4
 8005a60:	fa00 f303 	lsl.w	r3, r0, r3
 8005a64:	40d0      	lsrs	r0, r2
 8005a66:	f8cd c024 	str.w	ip, [sp, #36]	; 0x24
 8005a6a:	4301      	orrs	r1, r0
 8005a6c:	e5c2      	b.n	80055f4 <xmp3_UnpackSideInfo+0x2b4>
 8005a6e:	f8dd 8024 	ldr.w	r8, [sp, #36]	; 0x24
 8005a72:	f1b8 0f03 	cmp.w	r8, #3
 8005a76:	f1ce 0205 	rsb	r2, lr, #5
 8005a7a:	f340 8303 	ble.w	8006084 <xmp3_UnpackSideInfo+0xd44>
 8005a7e:	9906      	ldr	r1, [sp, #24]
 8005a80:	f10e 061b 	add.w	r6, lr, #27
 8005a84:	1c4b      	adds	r3, r1, #1
 8005a86:	468e      	mov	lr, r1
 8005a88:	9306      	str	r3, [sp, #24]
 8005a8a:	f81e 3b02 	ldrb.w	r3, [lr], #2
 8005a8e:	f8cd e018 	str.w	lr, [sp, #24]
 8005a92:	061b      	lsls	r3, r3, #24
 8005a94:	9307      	str	r3, [sp, #28]
 8005a96:	f891 e001 	ldrb.w	lr, [r1, #1]
 8005a9a:	ea43 430e 	orr.w	r3, r3, lr, lsl #16
 8005a9e:	f101 0e03 	add.w	lr, r1, #3
 8005aa2:	9307      	str	r3, [sp, #28]
 8005aa4:	f8cd e018 	str.w	lr, [sp, #24]
 8005aa8:	f891 e002 	ldrb.w	lr, [r1, #2]
 8005aac:	ea43 230e 	orr.w	r3, r3, lr, lsl #8
 8005ab0:	f101 0e04 	add.w	lr, r1, #4
 8005ab4:	9307      	str	r3, [sp, #28]
 8005ab6:	f8cd e018 	str.w	lr, [sp, #24]
 8005aba:	78c9      	ldrb	r1, [r1, #3]
 8005abc:	4319      	orrs	r1, r3
 8005abe:	fa01 f302 	lsl.w	r3, r1, r2
 8005ac2:	f1a8 0004 	sub.w	r0, r8, #4
 8005ac6:	40f1      	lsrs	r1, r6
 8005ac8:	ea4c 0c01 	orr.w	ip, ip, r1
 8005acc:	9009      	str	r0, [sp, #36]	; 0x24
 8005ace:	0ed9      	lsrs	r1, r3, #27
 8005ad0:	015b      	lsls	r3, r3, #5
 8005ad2:	e587      	b.n	80055e4 <xmp3_UnpackSideInfo+0x2a4>
 8005ad4:	f8dd e024 	ldr.w	lr, [sp, #36]	; 0x24
 8005ad8:	f1be 0f03 	cmp.w	lr, #3
 8005adc:	f1c2 0903 	rsb	r9, r2, #3
 8005ae0:	f340 828f 	ble.w	8006002 <xmp3_UnpackSideInfo+0xcc2>
 8005ae4:	f8dd c018 	ldr.w	ip, [sp, #24]
 8005ae8:	f102 031d 	add.w	r3, r2, #29
 8005aec:	46e0      	mov	r8, ip
 8005aee:	f10c 0201 	add.w	r2, ip, #1
 8005af2:	9206      	str	r2, [sp, #24]
 8005af4:	f818 2b02 	ldrb.w	r2, [r8], #2
 8005af8:	f8cd 8018 	str.w	r8, [sp, #24]
 8005afc:	0612      	lsls	r2, r2, #24
 8005afe:	9207      	str	r2, [sp, #28]
 8005b00:	f89c 8001 	ldrb.w	r8, [ip, #1]
 8005b04:	ea42 4208 	orr.w	r2, r2, r8, lsl #16
 8005b08:	f10c 0803 	add.w	r8, ip, #3
 8005b0c:	9207      	str	r2, [sp, #28]
 8005b0e:	f8cd 8018 	str.w	r8, [sp, #24]
 8005b12:	f89c 8002 	ldrb.w	r8, [ip, #2]
 8005b16:	ea42 2208 	orr.w	r2, r2, r8, lsl #8
 8005b1a:	f10c 0804 	add.w	r8, ip, #4
 8005b1e:	9207      	str	r2, [sp, #28]
 8005b20:	f8cd 8018 	str.w	r8, [sp, #24]
 8005b24:	f89c c003 	ldrb.w	ip, [ip, #3]
 8005b28:	f1ae 0e04 	sub.w	lr, lr, #4
 8005b2c:	f8cd e024 	str.w	lr, [sp, #36]	; 0x24
 8005b30:	ea4c 0e02 	orr.w	lr, ip, r2
 8005b34:	fa0e f209 	lsl.w	r2, lr, r9
 8005b38:	fa2e fe03 	lsr.w	lr, lr, r3
 8005b3c:	ea41 010e 	orr.w	r1, r1, lr
 8005b40:	e9cd 2307 	strd	r2, r3, [sp, #28]
 8005b44:	e4ba      	b.n	80054bc <xmp3_UnpackSideInfo+0x17c>
 8005b46:	f8dd 8024 	ldr.w	r8, [sp, #36]	; 0x24
 8005b4a:	f1b8 0f03 	cmp.w	r8, #3
 8005b4e:	f1c1 0303 	rsb	r3, r1, #3
 8005b52:	f340 82c8 	ble.w	80060e6 <xmp3_UnpackSideInfo+0xda6>
 8005b56:	f8dd 9018 	ldr.w	r9, [sp, #24]
 8005b5a:	f101 0c1d 	add.w	ip, r1, #29
 8005b5e:	46ce      	mov	lr, r9
 8005b60:	f109 0101 	add.w	r1, r9, #1
 8005b64:	9106      	str	r1, [sp, #24]
 8005b66:	f81e 1b02 	ldrb.w	r1, [lr], #2
 8005b6a:	f8cd e018 	str.w	lr, [sp, #24]
 8005b6e:	0609      	lsls	r1, r1, #24
 8005b70:	9107      	str	r1, [sp, #28]
 8005b72:	f899 e001 	ldrb.w	lr, [r9, #1]
 8005b76:	ea41 410e 	orr.w	r1, r1, lr, lsl #16
 8005b7a:	f109 0e03 	add.w	lr, r9, #3
 8005b7e:	9107      	str	r1, [sp, #28]
 8005b80:	f8cd e018 	str.w	lr, [sp, #24]
 8005b84:	f899 e002 	ldrb.w	lr, [r9, #2]
 8005b88:	ea41 210e 	orr.w	r1, r1, lr, lsl #8
 8005b8c:	f109 0e04 	add.w	lr, r9, #4
 8005b90:	9107      	str	r1, [sp, #28]
 8005b92:	f8cd e018 	str.w	lr, [sp, #24]
 8005b96:	f899 e003 	ldrb.w	lr, [r9, #3]
 8005b9a:	ea4e 0e01 	orr.w	lr, lr, r1
 8005b9e:	f1a8 0804 	sub.w	r8, r8, #4
 8005ba2:	fa0e f303 	lsl.w	r3, lr, r3
 8005ba6:	fa2e fe0c 	lsr.w	lr, lr, ip
 8005baa:	f8cd 8024 	str.w	r8, [sp, #36]	; 0x24
 8005bae:	ea42 020e 	orr.w	r2, r2, lr
 8005bb2:	e46e      	b.n	8005492 <xmp3_UnpackSideInfo+0x152>
 8005bb4:	2600      	movs	r6, #0
 8005bb6:	9607      	str	r6, [sp, #28]
 8005bb8:	2a00      	cmp	r2, #0
 8005bba:	f000 841f 	beq.w	80063fc <xmp3_UnpackSideInfo+0x10bc>
 8005bbe:	f8dd 8018 	ldr.w	r8, [sp, #24]
 8005bc2:	f108 0601 	add.w	r6, r8, #1
 8005bc6:	9606      	str	r6, [sp, #24]
 8005bc8:	f898 6000 	ldrb.w	r6, [r8]
 8005bcc:	2a01      	cmp	r2, #1
 8005bce:	ea4f 2c06 	mov.w	ip, r6, lsl #8
 8005bd2:	f8cd c01c 	str.w	ip, [sp, #28]
 8005bd6:	d015      	beq.n	8005c04 <xmp3_UnpackSideInfo+0x8c4>
 8005bd8:	f108 0602 	add.w	r6, r8, #2
 8005bdc:	9606      	str	r6, [sp, #24]
 8005bde:	f898 6001 	ldrb.w	r6, [r8, #1]
 8005be2:	ea46 060c 	orr.w	r6, r6, ip
 8005be6:	ea4f 2c06 	mov.w	ip, r6, lsl #8
 8005bea:	2a02      	cmp	r2, #2
 8005bec:	f8cd c01c 	str.w	ip, [sp, #28]
 8005bf0:	d008      	beq.n	8005c04 <xmp3_UnpackSideInfo+0x8c4>
 8005bf2:	f108 0603 	add.w	r6, r8, #3
 8005bf6:	9606      	str	r6, [sp, #24]
 8005bf8:	f898 6002 	ldrb.w	r6, [r8, #2]
 8005bfc:	ea46 060c 	orr.w	r6, r6, ip
 8005c00:	ea4f 2c06 	mov.w	ip, r6, lsl #8
 8005c04:	f1c2 0603 	rsb	r6, r2, #3
 8005c08:	00f6      	lsls	r6, r6, #3
 8005c0a:	fa0c f606 	lsl.w	r6, ip, r6
 8005c0e:	311f      	adds	r1, #31
 8005c10:	fa26 f101 	lsr.w	r1, r6, r1
 8005c14:	4308      	orrs	r0, r1
 8005c16:	fa06 f303 	lsl.w	r3, r6, r3
 8005c1a:	eb0e 0ec2 	add.w	lr, lr, r2, lsl #3
 8005c1e:	2200      	movs	r2, #0
 8005c20:	9209      	str	r2, [sp, #36]	; 0x24
 8005c22:	e5dd      	b.n	80057e0 <xmp3_UnpackSideInfo+0x4a0>
 8005c24:	9a09      	ldr	r2, [sp, #36]	; 0x24
 8005c26:	2a03      	cmp	r2, #3
 8005c28:	f1ce 0301 	rsb	r3, lr, #1
 8005c2c:	f340 82da 	ble.w	80061e4 <xmp3_UnpackSideInfo+0xea4>
 8005c30:	f10e 011f 	add.w	r1, lr, #31
 8005c34:	f8dd e018 	ldr.w	lr, [sp, #24]
 8005c38:	46f0      	mov	r8, lr
 8005c3a:	f10e 0c01 	add.w	ip, lr, #1
 8005c3e:	f8cd c018 	str.w	ip, [sp, #24]
 8005c42:	f818 cb02 	ldrb.w	ip, [r8], #2
 8005c46:	f8cd 8018 	str.w	r8, [sp, #24]
 8005c4a:	ea4f 6c0c 	mov.w	ip, ip, lsl #24
 8005c4e:	f8cd c01c 	str.w	ip, [sp, #28]
 8005c52:	f89e 8001 	ldrb.w	r8, [lr, #1]
 8005c56:	ea4c 4c08 	orr.w	ip, ip, r8, lsl #16
 8005c5a:	f10e 0803 	add.w	r8, lr, #3
 8005c5e:	f8cd c01c 	str.w	ip, [sp, #28]
 8005c62:	f8cd 8018 	str.w	r8, [sp, #24]
 8005c66:	f89e 8002 	ldrb.w	r8, [lr, #2]
 8005c6a:	ea4c 2c08 	orr.w	ip, ip, r8, lsl #8
 8005c6e:	f10e 0804 	add.w	r8, lr, #4
 8005c72:	f8cd c01c 	str.w	ip, [sp, #28]
 8005c76:	f8cd 8018 	str.w	r8, [sp, #24]
 8005c7a:	f89e e003 	ldrb.w	lr, [lr, #3]
 8005c7e:	3a04      	subs	r2, #4
 8005c80:	ea4e 0c0c 	orr.w	ip, lr, ip
 8005c84:	9209      	str	r2, [sp, #36]	; 0x24
 8005c86:	9a01      	ldr	r2, [sp, #4]
 8005c88:	fa0c f303 	lsl.w	r3, ip, r3
 8005c8c:	fa2c fc01 	lsr.w	ip, ip, r1
 8005c90:	ea42 020c 	orr.w	r2, r2, ip
 8005c94:	9201      	str	r2, [sp, #4]
 8005c96:	ea4f 6cd3 	mov.w	ip, r3, lsr #27
 8005c9a:	015b      	lsls	r3, r3, #5
 8005c9c:	f7ff bbd7 	b.w	800544e <xmp3_UnpackSideInfo+0x10e>
 8005ca0:	2300      	movs	r3, #0
 8005ca2:	9307      	str	r3, [sp, #28]
 8005ca4:	2a00      	cmp	r2, #0
 8005ca6:	f000 83a6 	beq.w	80063f6 <xmp3_UnpackSideInfo+0x10b6>
 8005caa:	9b06      	ldr	r3, [sp, #24]
 8005cac:	f103 0e01 	add.w	lr, r3, #1
 8005cb0:	f8cd e018 	str.w	lr, [sp, #24]
 8005cb4:	f893 e000 	ldrb.w	lr, [r3]
 8005cb8:	2a01      	cmp	r2, #1
 8005cba:	ea4f 2e0e 	mov.w	lr, lr, lsl #8
 8005cbe:	f8cd e01c 	str.w	lr, [sp, #28]
 8005cc2:	d016      	beq.n	8005cf2 <xmp3_UnpackSideInfo+0x9b2>
 8005cc4:	f103 0802 	add.w	r8, r3, #2
 8005cc8:	f8cd 8018 	str.w	r8, [sp, #24]
 8005ccc:	f893 8001 	ldrb.w	r8, [r3, #1]
 8005cd0:	ea48 0e0e 	orr.w	lr, r8, lr
 8005cd4:	ea4f 2e0e 	mov.w	lr, lr, lsl #8
 8005cd8:	2a02      	cmp	r2, #2
 8005cda:	f8cd e01c 	str.w	lr, [sp, #28]
 8005cde:	d008      	beq.n	8005cf2 <xmp3_UnpackSideInfo+0x9b2>
 8005ce0:	f103 0803 	add.w	r8, r3, #3
 8005ce4:	f8cd 8018 	str.w	r8, [sp, #24]
 8005ce8:	789b      	ldrb	r3, [r3, #2]
 8005cea:	ea43 0e0e 	orr.w	lr, r3, lr
 8005cee:	ea4f 2e0e 	mov.w	lr, lr, lsl #8
 8005cf2:	f1c2 0303 	rsb	r3, r2, #3
 8005cf6:	00db      	lsls	r3, r3, #3
 8005cf8:	fa0e fe03 	lsl.w	lr, lr, r3
 8005cfc:	f10c 0c1f 	add.w	ip, ip, #31
 8005d00:	fa0e f300 	lsl.w	r3, lr, r0
 8005d04:	fa2e fe0c 	lsr.w	lr, lr, ip
 8005d08:	0fd8      	lsrs	r0, r3, #31
 8005d0a:	ea41 010e 	orr.w	r1, r1, lr
 8005d0e:	005b      	lsls	r3, r3, #1
 8005d10:	eb06 06c2 	add.w	r6, r6, r2, lsl #3
 8005d14:	2200      	movs	r2, #0
 8005d16:	9209      	str	r2, [sp, #36]	; 0x24
 8005d18:	f7ff bbef 	b.w	80054fa <xmp3_UnpackSideInfo+0x1ba>
 8005d1c:	2300      	movs	r3, #0
 8005d1e:	9307      	str	r3, [sp, #28]
 8005d20:	2900      	cmp	r1, #0
 8005d22:	f000 8366 	beq.w	80063f2 <xmp3_UnpackSideInfo+0x10b2>
 8005d26:	9b06      	ldr	r3, [sp, #24]
 8005d28:	f103 0e01 	add.w	lr, r3, #1
 8005d2c:	f8cd e018 	str.w	lr, [sp, #24]
 8005d30:	f893 e000 	ldrb.w	lr, [r3]
 8005d34:	2901      	cmp	r1, #1
 8005d36:	ea4f 2e0e 	mov.w	lr, lr, lsl #8
 8005d3a:	f8cd e01c 	str.w	lr, [sp, #28]
 8005d3e:	d016      	beq.n	8005d6e <xmp3_UnpackSideInfo+0xa2e>
 8005d40:	f103 0802 	add.w	r8, r3, #2
 8005d44:	f8cd 8018 	str.w	r8, [sp, #24]
 8005d48:	f893 8001 	ldrb.w	r8, [r3, #1]
 8005d4c:	ea48 0e0e 	orr.w	lr, r8, lr
 8005d50:	ea4f 2e0e 	mov.w	lr, lr, lsl #8
 8005d54:	2902      	cmp	r1, #2
 8005d56:	f8cd e01c 	str.w	lr, [sp, #28]
 8005d5a:	d008      	beq.n	8005d6e <xmp3_UnpackSideInfo+0xa2e>
 8005d5c:	f103 0803 	add.w	r8, r3, #3
 8005d60:	f8cd 8018 	str.w	r8, [sp, #24]
 8005d64:	789b      	ldrb	r3, [r3, #2]
 8005d66:	ea43 0e0e 	orr.w	lr, r3, lr
 8005d6a:	ea4f 2e0e 	mov.w	lr, lr, lsl #8
 8005d6e:	f106 031f 	add.w	r3, r6, #31
 8005d72:	f1c1 0603 	rsb	r6, r1, #3
 8005d76:	00f6      	lsls	r6, r6, #3
 8005d78:	fa0e f606 	lsl.w	r6, lr, r6
 8005d7c:	fa26 f303 	lsr.w	r3, r6, r3
 8005d80:	4318      	orrs	r0, r3
 8005d82:	fa06 f60c 	lsl.w	r6, r6, ip
 8005d86:	eb02 03c1 	add.w	r3, r2, r1, lsl #3
 8005d8a:	2200      	movs	r2, #0
 8005d8c:	9209      	str	r2, [sp, #36]	; 0x24
 8005d8e:	e4f7      	b.n	8005780 <xmp3_UnpackSideInfo+0x440>
 8005d90:	f8dd 8024 	ldr.w	r8, [sp, #36]	; 0x24
 8005d94:	f1b8 0f03 	cmp.w	r8, #3
 8005d98:	f1c1 0305 	rsb	r3, r1, #5
 8005d9c:	f340 829e 	ble.w	80062dc <xmp3_UnpackSideInfo+0xf9c>
 8005da0:	f8dd 9018 	ldr.w	r9, [sp, #24]
 8005da4:	f101 021b 	add.w	r2, r1, #27
 8005da8:	46ce      	mov	lr, r9
 8005daa:	f109 0101 	add.w	r1, r9, #1
 8005dae:	9106      	str	r1, [sp, #24]
 8005db0:	f81e 1b02 	ldrb.w	r1, [lr], #2
 8005db4:	f8cd e018 	str.w	lr, [sp, #24]
 8005db8:	0609      	lsls	r1, r1, #24
 8005dba:	9107      	str	r1, [sp, #28]
 8005dbc:	f899 e001 	ldrb.w	lr, [r9, #1]
 8005dc0:	ea41 410e 	orr.w	r1, r1, lr, lsl #16
 8005dc4:	f109 0e03 	add.w	lr, r9, #3
 8005dc8:	9107      	str	r1, [sp, #28]
 8005dca:	f8cd e018 	str.w	lr, [sp, #24]
 8005dce:	f899 e002 	ldrb.w	lr, [r9, #2]
 8005dd2:	ea41 210e 	orr.w	r1, r1, lr, lsl #8
 8005dd6:	f109 0e04 	add.w	lr, r9, #4
 8005dda:	9107      	str	r1, [sp, #28]
 8005ddc:	f8cd e018 	str.w	lr, [sp, #24]
 8005de0:	f899 e003 	ldrb.w	lr, [r9, #3]
 8005de4:	ea4e 0e01 	orr.w	lr, lr, r1
 8005de8:	f1a8 0804 	sub.w	r8, r8, #4
 8005dec:	fa0e f303 	lsl.w	r3, lr, r3
 8005df0:	fa2e fe02 	lsr.w	lr, lr, r2
 8005df4:	f8cd 8024 	str.w	r8, [sp, #36]	; 0x24
 8005df8:	ea4c 0c0e 	orr.w	ip, ip, lr
 8005dfc:	f7ff bb2e 	b.w	800545c <xmp3_UnpackSideInfo+0x11c>
 8005e00:	9b01      	ldr	r3, [sp, #4]
 8005e02:	2b00      	cmp	r3, #0
 8005e04:	f47f acf2 	bne.w	80057ec <xmp3_UnpackSideInfo+0x4ac>
 8005e08:	2308      	movs	r3, #8
 8005e0a:	65e3      	str	r3, [r4, #92]	; 0x5c
 8005e0c:	230c      	movs	r3, #12
 8005e0e:	f7ff bb5f 	b.w	80054d0 <xmp3_UnpackSideInfo+0x190>
 8005e12:	9809      	ldr	r0, [sp, #36]	; 0x24
 8005e14:	2803      	cmp	r0, #3
 8005e16:	f1cc 0601 	rsb	r6, ip, #1
 8005e1a:	f300 82a2 	bgt.w	8006362 <xmp3_UnpackSideInfo+0x1022>
 8005e1e:	9207      	str	r2, [sp, #28]
 8005e20:	2800      	cmp	r0, #0
 8005e22:	f000 82f0 	beq.w	8006406 <xmp3_UnpackSideInfo+0x10c6>
 8005e26:	9a06      	ldr	r2, [sp, #24]
 8005e28:	1c53      	adds	r3, r2, #1
 8005e2a:	9306      	str	r3, [sp, #24]
 8005e2c:	7813      	ldrb	r3, [r2, #0]
 8005e2e:	2801      	cmp	r0, #1
 8005e30:	ea4f 2303 	mov.w	r3, r3, lsl #8
 8005e34:	9307      	str	r3, [sp, #28]
 8005e36:	d012      	beq.n	8005e5e <xmp3_UnpackSideInfo+0xb1e>
 8005e38:	f102 0802 	add.w	r8, r2, #2
 8005e3c:	f8cd 8018 	str.w	r8, [sp, #24]
 8005e40:	f892 8001 	ldrb.w	r8, [r2, #1]
 8005e44:	ea48 0303 	orr.w	r3, r8, r3
 8005e48:	021b      	lsls	r3, r3, #8
 8005e4a:	2802      	cmp	r0, #2
 8005e4c:	9307      	str	r3, [sp, #28]
 8005e4e:	d006      	beq.n	8005e5e <xmp3_UnpackSideInfo+0xb1e>
 8005e50:	f102 0803 	add.w	r8, r2, #3
 8005e54:	f8cd 8018 	str.w	r8, [sp, #24]
 8005e58:	7892      	ldrb	r2, [r2, #2]
 8005e5a:	4313      	orrs	r3, r2
 8005e5c:	021b      	lsls	r3, r3, #8
 8005e5e:	f1c0 0803 	rsb	r8, r0, #3
 8005e62:	ea4f 08c8 	mov.w	r8, r8, lsl #3
 8005e66:	f10c 021f 	add.w	r2, ip, #31
 8005e6a:	fa03 f308 	lsl.w	r3, r3, r8
 8005e6e:	fa03 f606 	lsl.w	r6, r3, r6
 8005e72:	40d3      	lsrs	r3, r2
 8005e74:	ea43 0201 	orr.w	r2, r3, r1
 8005e78:	0073      	lsls	r3, r6, #1
 8005e7a:	0ff1      	lsrs	r1, r6, #31
 8005e7c:	eb0e 0cc0 	add.w	ip, lr, r0, lsl #3
 8005e80:	2000      	movs	r0, #0
 8005e82:	9009      	str	r0, [sp, #36]	; 0x24
 8005e84:	f7ff bb2f 	b.w	80054e6 <xmp3_UnpackSideInfo+0x1a6>
 8005e88:	2100      	movs	r1, #0
 8005e8a:	9107      	str	r1, [sp, #28]
 8005e8c:	2e00      	cmp	r6, #0
 8005e8e:	f000 8294 	beq.w	80063ba <xmp3_UnpackSideInfo+0x107a>
 8005e92:	9906      	ldr	r1, [sp, #24]
 8005e94:	f101 0e01 	add.w	lr, r1, #1
 8005e98:	f8cd e018 	str.w	lr, [sp, #24]
 8005e9c:	f891 e000 	ldrb.w	lr, [r1]
 8005ea0:	2e01      	cmp	r6, #1
 8005ea2:	ea4f 2e0e 	mov.w	lr, lr, lsl #8
 8005ea6:	f8cd e01c 	str.w	lr, [sp, #28]
 8005eaa:	d016      	beq.n	8005eda <xmp3_UnpackSideInfo+0xb9a>
 8005eac:	f101 0802 	add.w	r8, r1, #2
 8005eb0:	f8cd 8018 	str.w	r8, [sp, #24]
 8005eb4:	f891 8001 	ldrb.w	r8, [r1, #1]
 8005eb8:	ea48 0e0e 	orr.w	lr, r8, lr
 8005ebc:	ea4f 2e0e 	mov.w	lr, lr, lsl #8
 8005ec0:	2e02      	cmp	r6, #2
 8005ec2:	f8cd e01c 	str.w	lr, [sp, #28]
 8005ec6:	d008      	beq.n	8005eda <xmp3_UnpackSideInfo+0xb9a>
 8005ec8:	f101 0803 	add.w	r8, r1, #3
 8005ecc:	f8cd 8018 	str.w	r8, [sp, #24]
 8005ed0:	7889      	ldrb	r1, [r1, #2]
 8005ed2:	ea41 010e 	orr.w	r1, r1, lr
 8005ed6:	ea4f 2e01 	mov.w	lr, r1, lsl #8
 8005eda:	f1c6 0103 	rsb	r1, r6, #3
 8005ede:	00c9      	lsls	r1, r1, #3
 8005ee0:	fa0e f101 	lsl.w	r1, lr, r1
 8005ee4:	321d      	adds	r2, #29
 8005ee6:	fa01 f303 	lsl.w	r3, r1, r3
 8005eea:	40d1      	lsrs	r1, r2
 8005eec:	4308      	orrs	r0, r1
 8005eee:	0fd9      	lsrs	r1, r3, #31
 8005ef0:	005b      	lsls	r3, r3, #1
 8005ef2:	eb0c 02c6 	add.w	r2, ip, r6, lsl #3
 8005ef6:	2600      	movs	r6, #0
 8005ef8:	9609      	str	r6, [sp, #36]	; 0x24
 8005efa:	e4ac      	b.n	8005856 <xmp3_UnpackSideInfo+0x516>
 8005efc:	2100      	movs	r1, #0
 8005efe:	9107      	str	r1, [sp, #28]
 8005f00:	f1b8 0f00 	cmp.w	r8, #0
 8005f04:	f000 826d 	beq.w	80063e2 <xmp3_UnpackSideInfo+0x10a2>
 8005f08:	f8dd 9018 	ldr.w	r9, [sp, #24]
 8005f0c:	f109 0101 	add.w	r1, r9, #1
 8005f10:	9106      	str	r1, [sp, #24]
 8005f12:	f899 1000 	ldrb.w	r1, [r9]
 8005f16:	f1b8 0f01 	cmp.w	r8, #1
 8005f1a:	ea4f 2101 	mov.w	r1, r1, lsl #8
 8005f1e:	9107      	str	r1, [sp, #28]
 8005f20:	d012      	beq.n	8005f48 <xmp3_UnpackSideInfo+0xc08>
 8005f22:	f109 0602 	add.w	r6, r9, #2
 8005f26:	9606      	str	r6, [sp, #24]
 8005f28:	f899 6001 	ldrb.w	r6, [r9, #1]
 8005f2c:	4331      	orrs	r1, r6
 8005f2e:	0209      	lsls	r1, r1, #8
 8005f30:	f1b8 0f02 	cmp.w	r8, #2
 8005f34:	9107      	str	r1, [sp, #28]
 8005f36:	d007      	beq.n	8005f48 <xmp3_UnpackSideInfo+0xc08>
 8005f38:	f109 0603 	add.w	r6, r9, #3
 8005f3c:	9606      	str	r6, [sp, #24]
 8005f3e:	f899 9002 	ldrb.w	r9, [r9, #2]
 8005f42:	ea49 0101 	orr.w	r1, r9, r1
 8005f46:	0209      	lsls	r1, r1, #8
 8005f48:	f1c8 0903 	rsb	r9, r8, #3
 8005f4c:	ea4f 09c9 	mov.w	r9, r9, lsl #3
 8005f50:	fa01 f109 	lsl.w	r1, r1, r9
 8005f54:	f10c 0c1d 	add.w	ip, ip, #29
 8005f58:	fa01 f303 	lsl.w	r3, r1, r3
 8005f5c:	fa21 f10c 	lsr.w	r1, r1, ip
 8005f60:	ea4e 0e01 	orr.w	lr, lr, r1
 8005f64:	0f59      	lsrs	r1, r3, #29
 8005f66:	00db      	lsls	r3, r3, #3
 8005f68:	f04f 0c00 	mov.w	ip, #0
 8005f6c:	eb02 02c8 	add.w	r2, r2, r8, lsl #3
 8005f70:	f8cd c024 	str.w	ip, [sp, #36]	; 0x24
 8005f74:	f7ff ba9a 	b.w	80054ac <xmp3_UnpackSideInfo+0x16c>
 8005f78:	f04f 0800 	mov.w	r8, #0
 8005f7c:	f8cd 801c 	str.w	r8, [sp, #28]
 8005f80:	f1bc 0f00 	cmp.w	ip, #0
 8005f84:	f000 822a 	beq.w	80063dc <xmp3_UnpackSideInfo+0x109c>
 8005f88:	f8dd 9018 	ldr.w	r9, [sp, #24]
 8005f8c:	f109 0801 	add.w	r8, r9, #1
 8005f90:	f8cd 8018 	str.w	r8, [sp, #24]
 8005f94:	f899 8000 	ldrb.w	r8, [r9]
 8005f98:	f1bc 0f01 	cmp.w	ip, #1
 8005f9c:	ea4f 2808 	mov.w	r8, r8, lsl #8
 8005fa0:	f8cd 801c 	str.w	r8, [sp, #28]
 8005fa4:	d016      	beq.n	8005fd4 <xmp3_UnpackSideInfo+0xc94>
 8005fa6:	f109 0602 	add.w	r6, r9, #2
 8005faa:	9606      	str	r6, [sp, #24]
 8005fac:	f899 6001 	ldrb.w	r6, [r9, #1]
 8005fb0:	ea46 0808 	orr.w	r8, r6, r8
 8005fb4:	ea4f 2808 	mov.w	r8, r8, lsl #8
 8005fb8:	f1bc 0f02 	cmp.w	ip, #2
 8005fbc:	f8cd 801c 	str.w	r8, [sp, #28]
 8005fc0:	d008      	beq.n	8005fd4 <xmp3_UnpackSideInfo+0xc94>
 8005fc2:	f109 0603 	add.w	r6, r9, #3
 8005fc6:	9606      	str	r6, [sp, #24]
 8005fc8:	f899 9002 	ldrb.w	r9, [r9, #2]
 8005fcc:	ea49 0808 	orr.w	r8, r9, r8
 8005fd0:	ea4f 2808 	mov.w	r8, r8, lsl #8
 8005fd4:	f1cc 0903 	rsb	r9, ip, #3
 8005fd8:	ea4f 09c9 	mov.w	r9, r9, lsl #3
 8005fdc:	fa08 f809 	lsl.w	r8, r8, r9
 8005fe0:	321b      	adds	r2, #27
 8005fe2:	fa08 f303 	lsl.w	r3, r8, r3
 8005fe6:	fa28 f202 	lsr.w	r2, r8, r2
 8005fea:	ea4e 0e02 	orr.w	lr, lr, r2
 8005fee:	0f5a      	lsrs	r2, r3, #29
 8005ff0:	00db      	lsls	r3, r3, #3
 8005ff2:	eb01 01cc 	add.w	r1, r1, ip, lsl #3
 8005ff6:	f04f 0c00 	mov.w	ip, #0
 8005ffa:	f8cd c024 	str.w	ip, [sp, #36]	; 0x24
 8005ffe:	f7ff ba3a 	b.w	8005476 <xmp3_UnpackSideInfo+0x136>
 8006002:	f04f 0c00 	mov.w	ip, #0
 8006006:	f8cd c01c 	str.w	ip, [sp, #28]
 800600a:	f1be 0f00 	cmp.w	lr, #0
 800600e:	f000 81ee 	beq.w	80063ee <xmp3_UnpackSideInfo+0x10ae>
 8006012:	f8dd 8018 	ldr.w	r8, [sp, #24]
 8006016:	f108 0c01 	add.w	ip, r8, #1
 800601a:	f8cd c018 	str.w	ip, [sp, #24]
 800601e:	f898 c000 	ldrb.w	ip, [r8]
 8006022:	f1be 0f01 	cmp.w	lr, #1
 8006026:	ea4f 2c0c 	mov.w	ip, ip, lsl #8
 800602a:	f8cd c01c 	str.w	ip, [sp, #28]
 800602e:	d016      	beq.n	800605e <xmp3_UnpackSideInfo+0xd1e>
 8006030:	f108 0602 	add.w	r6, r8, #2
 8006034:	9606      	str	r6, [sp, #24]
 8006036:	f898 6001 	ldrb.w	r6, [r8, #1]
 800603a:	ea46 0c0c 	orr.w	ip, r6, ip
 800603e:	ea4f 2c0c 	mov.w	ip, ip, lsl #8
 8006042:	f1be 0f02 	cmp.w	lr, #2
 8006046:	f8cd c01c 	str.w	ip, [sp, #28]
 800604a:	d008      	beq.n	800605e <xmp3_UnpackSideInfo+0xd1e>
 800604c:	f108 0603 	add.w	r6, r8, #3
 8006050:	9606      	str	r6, [sp, #24]
 8006052:	f898 8002 	ldrb.w	r8, [r8, #2]
 8006056:	ea48 0c0c 	orr.w	ip, r8, ip
 800605a:	ea4f 2c0c 	mov.w	ip, ip, lsl #8
 800605e:	f1ce 0803 	rsb	r8, lr, #3
 8006062:	ea4f 08c8 	mov.w	r8, r8, lsl #3
 8006066:	fa0c fc08 	lsl.w	ip, ip, r8
 800606a:	321d      	adds	r2, #29
 800606c:	fa2c f202 	lsr.w	r2, ip, r2
 8006070:	4311      	orrs	r1, r2
 8006072:	fa0c f209 	lsl.w	r2, ip, r9
 8006076:	f04f 0c00 	mov.w	ip, #0
 800607a:	eb03 03ce 	add.w	r3, r3, lr, lsl #3
 800607e:	f8cd c024 	str.w	ip, [sp, #36]	; 0x24
 8006082:	e55d      	b.n	8005b40 <xmp3_UnpackSideInfo+0x800>
 8006084:	9007      	str	r0, [sp, #28]
 8006086:	f1b8 0f00 	cmp.w	r8, #0
 800608a:	f000 81ad 	beq.w	80063e8 <xmp3_UnpackSideInfo+0x10a8>
 800608e:	9b06      	ldr	r3, [sp, #24]
 8006090:	1c59      	adds	r1, r3, #1
 8006092:	9106      	str	r1, [sp, #24]
 8006094:	7819      	ldrb	r1, [r3, #0]
 8006096:	f1b8 0f01 	cmp.w	r8, #1
 800609a:	ea4f 2101 	mov.w	r1, r1, lsl #8
 800609e:	9107      	str	r1, [sp, #28]
 80060a0:	d00d      	beq.n	80060be <xmp3_UnpackSideInfo+0xd7e>
 80060a2:	1c98      	adds	r0, r3, #2
 80060a4:	9006      	str	r0, [sp, #24]
 80060a6:	7858      	ldrb	r0, [r3, #1]
 80060a8:	4301      	orrs	r1, r0
 80060aa:	0209      	lsls	r1, r1, #8
 80060ac:	f1b8 0f02 	cmp.w	r8, #2
 80060b0:	9107      	str	r1, [sp, #28]
 80060b2:	d004      	beq.n	80060be <xmp3_UnpackSideInfo+0xd7e>
 80060b4:	1cd8      	adds	r0, r3, #3
 80060b6:	9006      	str	r0, [sp, #24]
 80060b8:	789b      	ldrb	r3, [r3, #2]
 80060ba:	4319      	orrs	r1, r3
 80060bc:	0209      	lsls	r1, r1, #8
 80060be:	f1c8 0303 	rsb	r3, r8, #3
 80060c2:	00db      	lsls	r3, r3, #3
 80060c4:	4099      	lsls	r1, r3
 80060c6:	f10e 0e1b 	add.w	lr, lr, #27
 80060ca:	fa01 f302 	lsl.w	r3, r1, r2
 80060ce:	fa21 f10e 	lsr.w	r1, r1, lr
 80060d2:	ea4c 0c01 	orr.w	ip, ip, r1
 80060d6:	0ed9      	lsrs	r1, r3, #27
 80060d8:	015b      	lsls	r3, r3, #5
 80060da:	2200      	movs	r2, #0
 80060dc:	eb06 06c8 	add.w	r6, r6, r8, lsl #3
 80060e0:	9209      	str	r2, [sp, #36]	; 0x24
 80060e2:	f7ff ba7f 	b.w	80055e4 <xmp3_UnpackSideInfo+0x2a4>
 80060e6:	f8cd e01c 	str.w	lr, [sp, #28]
 80060ea:	f1b8 0f00 	cmp.w	r8, #0
 80060ee:	f000 816d 	beq.w	80063cc <xmp3_UnpackSideInfo+0x108c>
 80060f2:	f8dd 9018 	ldr.w	r9, [sp, #24]
 80060f6:	f109 0e01 	add.w	lr, r9, #1
 80060fa:	f8cd e018 	str.w	lr, [sp, #24]
 80060fe:	f899 e000 	ldrb.w	lr, [r9]
 8006102:	f1b8 0f01 	cmp.w	r8, #1
 8006106:	ea4f 2e0e 	mov.w	lr, lr, lsl #8
 800610a:	f8cd e01c 	str.w	lr, [sp, #28]
 800610e:	d016      	beq.n	800613e <xmp3_UnpackSideInfo+0xdfe>
 8006110:	f109 0602 	add.w	r6, r9, #2
 8006114:	9606      	str	r6, [sp, #24]
 8006116:	f899 6001 	ldrb.w	r6, [r9, #1]
 800611a:	ea46 0e0e 	orr.w	lr, r6, lr
 800611e:	ea4f 2e0e 	mov.w	lr, lr, lsl #8
 8006122:	f1b8 0f02 	cmp.w	r8, #2
 8006126:	f8cd e01c 	str.w	lr, [sp, #28]
 800612a:	d008      	beq.n	800613e <xmp3_UnpackSideInfo+0xdfe>
 800612c:	f109 0603 	add.w	r6, r9, #3
 8006130:	9606      	str	r6, [sp, #24]
 8006132:	f899 9002 	ldrb.w	r9, [r9, #2]
 8006136:	ea49 0e0e 	orr.w	lr, r9, lr
 800613a:	ea4f 2e0e 	mov.w	lr, lr, lsl #8
 800613e:	f1c8 0903 	rsb	r9, r8, #3
 8006142:	ea4f 09c9 	mov.w	r9, r9, lsl #3
 8006146:	fa0e fe09 	lsl.w	lr, lr, r9
 800614a:	311d      	adds	r1, #29
 800614c:	fa0e f303 	lsl.w	r3, lr, r3
 8006150:	fa2e f101 	lsr.w	r1, lr, r1
 8006154:	430a      	orrs	r2, r1
 8006156:	ea4f 7e53 	mov.w	lr, r3, lsr #29
 800615a:	00db      	lsls	r3, r3, #3
 800615c:	2100      	movs	r1, #0
 800615e:	eb0c 0cc8 	add.w	ip, ip, r8, lsl #3
 8006162:	9109      	str	r1, [sp, #36]	; 0x24
 8006164:	f7ff b998 	b.w	8005498 <xmp3_UnpackSideInfo+0x158>
 8006168:	2000      	movs	r0, #0
 800616a:	9007      	str	r0, [sp, #28]
 800616c:	f1bc 0f00 	cmp.w	ip, #0
 8006170:	f000 8129 	beq.w	80063c6 <xmp3_UnpackSideInfo+0x1086>
 8006174:	9806      	ldr	r0, [sp, #24]
 8006176:	f100 0e01 	add.w	lr, r0, #1
 800617a:	f8cd e018 	str.w	lr, [sp, #24]
 800617e:	f890 e000 	ldrb.w	lr, [r0]
 8006182:	f1bc 0f01 	cmp.w	ip, #1
 8006186:	ea4f 2e0e 	mov.w	lr, lr, lsl #8
 800618a:	f8cd e01c 	str.w	lr, [sp, #28]
 800618e:	d017      	beq.n	80061c0 <xmp3_UnpackSideInfo+0xe80>
 8006190:	f100 0802 	add.w	r8, r0, #2
 8006194:	f8cd 8018 	str.w	r8, [sp, #24]
 8006198:	f890 8001 	ldrb.w	r8, [r0, #1]
 800619c:	ea48 0e0e 	orr.w	lr, r8, lr
 80061a0:	ea4f 2e0e 	mov.w	lr, lr, lsl #8
 80061a4:	f1bc 0f02 	cmp.w	ip, #2
 80061a8:	f8cd e01c 	str.w	lr, [sp, #28]
 80061ac:	d008      	beq.n	80061c0 <xmp3_UnpackSideInfo+0xe80>
 80061ae:	f100 0803 	add.w	r8, r0, #3
 80061b2:	f8cd 8018 	str.w	r8, [sp, #24]
 80061b6:	7880      	ldrb	r0, [r0, #2]
 80061b8:	ea40 000e 	orr.w	r0, r0, lr
 80061bc:	ea4f 2e00 	mov.w	lr, r0, lsl #8
 80061c0:	f1cc 0003 	rsb	r0, ip, #3
 80061c4:	00c0      	lsls	r0, r0, #3
 80061c6:	fa0e f000 	lsl.w	r0, lr, r0
 80061ca:	361b      	adds	r6, #27
 80061cc:	fa00 f303 	lsl.w	r3, r0, r3
 80061d0:	40f0      	lsrs	r0, r6
 80061d2:	4301      	orrs	r1, r0
 80061d4:	0ed8      	lsrs	r0, r3, #27
 80061d6:	015b      	lsls	r3, r3, #5
 80061d8:	2600      	movs	r6, #0
 80061da:	eb02 02cc 	add.w	r2, r2, ip, lsl #3
 80061de:	9609      	str	r6, [sp, #36]	; 0x24
 80061e0:	f7ff ba0a 	b.w	80055f8 <xmp3_UnpackSideInfo+0x2b8>
 80061e4:	f04f 0c00 	mov.w	ip, #0
 80061e8:	f8cd c01c 	str.w	ip, [sp, #28]
 80061ec:	2a00      	cmp	r2, #0
 80061ee:	f000 80f2 	beq.w	80063d6 <xmp3_UnpackSideInfo+0x1096>
 80061f2:	f8dd 8018 	ldr.w	r8, [sp, #24]
 80061f6:	f108 0c01 	add.w	ip, r8, #1
 80061fa:	f8cd c018 	str.w	ip, [sp, #24]
 80061fe:	f898 c000 	ldrb.w	ip, [r8]
 8006202:	2a01      	cmp	r2, #1
 8006204:	ea4f 2c0c 	mov.w	ip, ip, lsl #8
 8006208:	f8cd c01c 	str.w	ip, [sp, #28]
 800620c:	d017      	beq.n	800623e <xmp3_UnpackSideInfo+0xefe>
 800620e:	f108 0902 	add.w	r9, r8, #2
 8006212:	f8cd 9018 	str.w	r9, [sp, #24]
 8006216:	f898 9001 	ldrb.w	r9, [r8, #1]
 800621a:	ea49 0c0c 	orr.w	ip, r9, ip
 800621e:	ea4f 2c0c 	mov.w	ip, ip, lsl #8
 8006222:	2a02      	cmp	r2, #2
 8006224:	f8cd c01c 	str.w	ip, [sp, #28]
 8006228:	d009      	beq.n	800623e <xmp3_UnpackSideInfo+0xefe>
 800622a:	f108 0903 	add.w	r9, r8, #3
 800622e:	f8cd 9018 	str.w	r9, [sp, #24]
 8006232:	f898 8002 	ldrb.w	r8, [r8, #2]
 8006236:	ea48 0c0c 	orr.w	ip, r8, ip
 800623a:	ea4f 2c0c 	mov.w	ip, ip, lsl #8
 800623e:	f1c2 0803 	rsb	r8, r2, #3
 8006242:	ea4f 08c8 	mov.w	r8, r8, lsl #3
 8006246:	9e01      	ldr	r6, [sp, #4]
 8006248:	fa0c fc08 	lsl.w	ip, ip, r8
 800624c:	f10e 0e1f 	add.w	lr, lr, #31
 8006250:	fa0c f303 	lsl.w	r3, ip, r3
 8006254:	fa2c fc0e 	lsr.w	ip, ip, lr
 8006258:	ea46 060c 	orr.w	r6, r6, ip
 800625c:	9601      	str	r6, [sp, #4]
 800625e:	ea4f 6cd3 	mov.w	ip, r3, lsr #27
 8006262:	015b      	lsls	r3, r3, #5
 8006264:	eb01 01c2 	add.w	r1, r1, r2, lsl #3
 8006268:	2200      	movs	r2, #0
 800626a:	9209      	str	r2, [sp, #36]	; 0x24
 800626c:	9a01      	ldr	r2, [sp, #4]
 800626e:	f7ff b8ee 	b.w	800544e <xmp3_UnpackSideInfo+0x10e>
 8006272:	2300      	movs	r3, #0
 8006274:	9307      	str	r3, [sp, #28]
 8006276:	f1bc 0f00 	cmp.w	ip, #0
 800627a:	f000 80aa 	beq.w	80063d2 <xmp3_UnpackSideInfo+0x1092>
 800627e:	9b06      	ldr	r3, [sp, #24]
 8006280:	1c5e      	adds	r6, r3, #1
 8006282:	9606      	str	r6, [sp, #24]
 8006284:	781e      	ldrb	r6, [r3, #0]
 8006286:	f1bc 0f01 	cmp.w	ip, #1
 800628a:	ea4f 2606 	mov.w	r6, r6, lsl #8
 800628e:	9607      	str	r6, [sp, #28]
 8006290:	d013      	beq.n	80062ba <xmp3_UnpackSideInfo+0xf7a>
 8006292:	f103 0802 	add.w	r8, r3, #2
 8006296:	f8cd 8018 	str.w	r8, [sp, #24]
 800629a:	f893 8001 	ldrb.w	r8, [r3, #1]
 800629e:	ea48 0606 	orr.w	r6, r8, r6
 80062a2:	0236      	lsls	r6, r6, #8
 80062a4:	f1bc 0f02 	cmp.w	ip, #2
 80062a8:	9607      	str	r6, [sp, #28]
 80062aa:	d006      	beq.n	80062ba <xmp3_UnpackSideInfo+0xf7a>
 80062ac:	f103 0803 	add.w	r8, r3, #3
 80062b0:	f8cd 8018 	str.w	r8, [sp, #24]
 80062b4:	789b      	ldrb	r3, [r3, #2]
 80062b6:	431e      	orrs	r6, r3
 80062b8:	0236      	lsls	r6, r6, #8
 80062ba:	f102 031b 	add.w	r3, r2, #27
 80062be:	f1cc 0203 	rsb	r2, ip, #3
 80062c2:	00d2      	lsls	r2, r2, #3
 80062c4:	4096      	lsls	r6, r2
 80062c6:	fa26 f303 	lsr.w	r3, r6, r3
 80062ca:	4318      	orrs	r0, r3
 80062cc:	fa06 f101 	lsl.w	r1, r6, r1
 80062d0:	2200      	movs	r2, #0
 80062d2:	eb0e 03cc 	add.w	r3, lr, ip, lsl #3
 80062d6:	9209      	str	r2, [sp, #36]	; 0x24
 80062d8:	f7ff baf0 	b.w	80058bc <xmp3_UnpackSideInfo+0x57c>
 80062dc:	f04f 0e00 	mov.w	lr, #0
 80062e0:	f8cd e01c 	str.w	lr, [sp, #28]
 80062e4:	f1b8 0f00 	cmp.w	r8, #0
 80062e8:	d06a      	beq.n	80063c0 <xmp3_UnpackSideInfo+0x1080>
 80062ea:	f8dd 9018 	ldr.w	r9, [sp, #24]
 80062ee:	f109 0e01 	add.w	lr, r9, #1
 80062f2:	f8cd e018 	str.w	lr, [sp, #24]
 80062f6:	f899 e000 	ldrb.w	lr, [r9]
 80062fa:	f1b8 0f01 	cmp.w	r8, #1
 80062fe:	ea4f 2e0e 	mov.w	lr, lr, lsl #8
 8006302:	f8cd e01c 	str.w	lr, [sp, #28]
 8006306:	d016      	beq.n	8006336 <xmp3_UnpackSideInfo+0xff6>
 8006308:	f109 0602 	add.w	r6, r9, #2
 800630c:	9606      	str	r6, [sp, #24]
 800630e:	f899 6001 	ldrb.w	r6, [r9, #1]
 8006312:	ea46 0e0e 	orr.w	lr, r6, lr
 8006316:	ea4f 2e0e 	mov.w	lr, lr, lsl #8
 800631a:	f1b8 0f02 	cmp.w	r8, #2
 800631e:	f8cd e01c 	str.w	lr, [sp, #28]
 8006322:	d008      	beq.n	8006336 <xmp3_UnpackSideInfo+0xff6>
 8006324:	f109 0603 	add.w	r6, r9, #3
 8006328:	9606      	str	r6, [sp, #24]
 800632a:	f899 9002 	ldrb.w	r9, [r9, #2]
 800632e:	ea49 0e0e 	orr.w	lr, r9, lr
 8006332:	ea4f 2e0e 	mov.w	lr, lr, lsl #8
 8006336:	f1c8 0903 	rsb	r9, r8, #3
 800633a:	ea4f 09c9 	mov.w	r9, r9, lsl #3
 800633e:	fa0e fe09 	lsl.w	lr, lr, r9
 8006342:	311b      	adds	r1, #27
 8006344:	fa0e f303 	lsl.w	r3, lr, r3
 8006348:	fa2e f101 	lsr.w	r1, lr, r1
 800634c:	ea4c 0c01 	orr.w	ip, ip, r1
 8006350:	ea4f 6ed3 	mov.w	lr, r3, lsr #27
 8006354:	015b      	lsls	r3, r3, #5
 8006356:	2100      	movs	r1, #0
 8006358:	eb02 02c8 	add.w	r2, r2, r8, lsl #3
 800635c:	9109      	str	r1, [sp, #36]	; 0x24
 800635e:	f7ff b880 	b.w	8005462 <xmp3_UnpackSideInfo+0x122>
 8006362:	9b06      	ldr	r3, [sp, #24]
 8006364:	1f02      	subs	r2, r0, #4
 8006366:	469e      	mov	lr, r3
 8006368:	1c58      	adds	r0, r3, #1
 800636a:	9006      	str	r0, [sp, #24]
 800636c:	f81e 0b02 	ldrb.w	r0, [lr], #2
 8006370:	f8cd e018 	str.w	lr, [sp, #24]
 8006374:	0600      	lsls	r0, r0, #24
 8006376:	9007      	str	r0, [sp, #28]
 8006378:	f893 e001 	ldrb.w	lr, [r3, #1]
 800637c:	ea40 400e 	orr.w	r0, r0, lr, lsl #16
 8006380:	f103 0e03 	add.w	lr, r3, #3
 8006384:	9007      	str	r0, [sp, #28]
 8006386:	f8cd e018 	str.w	lr, [sp, #24]
 800638a:	f893 e002 	ldrb.w	lr, [r3, #2]
 800638e:	ea40 200e 	orr.w	r0, r0, lr, lsl #8
 8006392:	f103 0e04 	add.w	lr, r3, #4
 8006396:	9007      	str	r0, [sp, #28]
 8006398:	f8cd e018 	str.w	lr, [sp, #24]
 800639c:	78db      	ldrb	r3, [r3, #3]
 800639e:	9209      	str	r2, [sp, #36]	; 0x24
 80063a0:	4318      	orrs	r0, r3
 80063a2:	f10c 0c1f 	add.w	ip, ip, #31
 80063a6:	fa00 f606 	lsl.w	r6, r0, r6
 80063aa:	fa20 f00c 	lsr.w	r0, r0, ip
 80063ae:	ea40 0201 	orr.w	r2, r0, r1
 80063b2:	0073      	lsls	r3, r6, #1
 80063b4:	0ff1      	lsrs	r1, r6, #31
 80063b6:	f7ff b896 	b.w	80054e6 <xmp3_UnpackSideInfo+0x1a6>
 80063ba:	4633      	mov	r3, r6
 80063bc:	4631      	mov	r1, r6
 80063be:	e598      	b.n	8005ef2 <xmp3_UnpackSideInfo+0xbb2>
 80063c0:	4643      	mov	r3, r8
 80063c2:	46c6      	mov	lr, r8
 80063c4:	e7c7      	b.n	8006356 <xmp3_UnpackSideInfo+0x1016>
 80063c6:	4663      	mov	r3, ip
 80063c8:	4660      	mov	r0, ip
 80063ca:	e705      	b.n	80061d8 <xmp3_UnpackSideInfo+0xe98>
 80063cc:	4643      	mov	r3, r8
 80063ce:	46c6      	mov	lr, r8
 80063d0:	e6c4      	b.n	800615c <xmp3_UnpackSideInfo+0xe1c>
 80063d2:	4661      	mov	r1, ip
 80063d4:	e77c      	b.n	80062d0 <xmp3_UnpackSideInfo+0xf90>
 80063d6:	4613      	mov	r3, r2
 80063d8:	4694      	mov	ip, r2
 80063da:	e743      	b.n	8006264 <xmp3_UnpackSideInfo+0xf24>
 80063dc:	4663      	mov	r3, ip
 80063de:	4662      	mov	r2, ip
 80063e0:	e607      	b.n	8005ff2 <xmp3_UnpackSideInfo+0xcb2>
 80063e2:	4643      	mov	r3, r8
 80063e4:	4641      	mov	r1, r8
 80063e6:	e5bf      	b.n	8005f68 <xmp3_UnpackSideInfo+0xc28>
 80063e8:	4603      	mov	r3, r0
 80063ea:	4601      	mov	r1, r0
 80063ec:	e675      	b.n	80060da <xmp3_UnpackSideInfo+0xd9a>
 80063ee:	4672      	mov	r2, lr
 80063f0:	e641      	b.n	8006076 <xmp3_UnpackSideInfo+0xd36>
 80063f2:	460e      	mov	r6, r1
 80063f4:	e4c7      	b.n	8005d86 <xmp3_UnpackSideInfo+0xa46>
 80063f6:	4613      	mov	r3, r2
 80063f8:	4610      	mov	r0, r2
 80063fa:	e489      	b.n	8005d10 <xmp3_UnpackSideInfo+0x9d0>
 80063fc:	4613      	mov	r3, r2
 80063fe:	e40c      	b.n	8005c1a <xmp3_UnpackSideInfo+0x8da>
 8006400:	4643      	mov	r3, r8
 8006402:	f7ff baff 	b.w	8005a04 <xmp3_UnpackSideInfo+0x6c4>
 8006406:	460a      	mov	r2, r1
 8006408:	4603      	mov	r3, r0
 800640a:	4601      	mov	r1, r0
 800640c:	e536      	b.n	8005e7c <xmp3_UnpackSideInfo+0xb3c>
 800640e:	f04f 33ff 	mov.w	r3, #4294967295
 8006412:	9305      	str	r3, [sp, #20]
 8006414:	f7ff b895 	b.w	8005542 <xmp3_UnpackSideInfo+0x202>

08006418 <xmp3_FreeBuffers>:
 8006418:	b310      	cbz	r0, 8006460 <xmp3_FreeBuffers+0x48>
 800641a:	b510      	push	{r4, lr}
 800641c:	4604      	mov	r4, r0
 800641e:	6800      	ldr	r0, [r0, #0]
 8006420:	b108      	cbz	r0, 8006426 <xmp3_FreeBuffers+0xe>
 8006422:	f006 fe9d 	bl	800d160 <free>
 8006426:	6860      	ldr	r0, [r4, #4]
 8006428:	b108      	cbz	r0, 800642e <xmp3_FreeBuffers+0x16>
 800642a:	f006 fe99 	bl	800d160 <free>
 800642e:	68a0      	ldr	r0, [r4, #8]
 8006430:	b108      	cbz	r0, 8006436 <xmp3_FreeBuffers+0x1e>
 8006432:	f006 fe95 	bl	800d160 <free>
 8006436:	68e0      	ldr	r0, [r4, #12]
 8006438:	b108      	cbz	r0, 800643e <xmp3_FreeBuffers+0x26>
 800643a:	f006 fe91 	bl	800d160 <free>
 800643e:	6920      	ldr	r0, [r4, #16]
 8006440:	b108      	cbz	r0, 8006446 <xmp3_FreeBuffers+0x2e>
 8006442:	f006 fe8d 	bl	800d160 <free>
 8006446:	6960      	ldr	r0, [r4, #20]
 8006448:	b108      	cbz	r0, 800644e <xmp3_FreeBuffers+0x36>
 800644a:	f006 fe89 	bl	800d160 <free>
 800644e:	69a0      	ldr	r0, [r4, #24]
 8006450:	b108      	cbz	r0, 8006456 <xmp3_FreeBuffers+0x3e>
 8006452:	f006 fe85 	bl	800d160 <free>
 8006456:	4620      	mov	r0, r4
 8006458:	e8bd 4010 	ldmia.w	sp!, {r4, lr}
 800645c:	f006 be80 	b.w	800d160 <free>
 8006460:	4770      	bx	lr
 8006462:	bf00      	nop

08006464 <xmp3_AllocateBuffers>:
 8006464:	e92d 47f0 	stmdb	sp!, {r4, r5, r6, r7, r8, r9, sl, lr}
 8006468:	2101      	movs	r1, #1
 800646a:	f44f 60fe 	mov.w	r0, #2032	; 0x7f0
 800646e:	f006 fe3d 	bl	800d0ec <calloc>
 8006472:	4604      	mov	r4, r0
 8006474:	b3d8      	cbz	r0, 80064ee <xmp3_AllocateBuffers+0x8a>
 8006476:	2101      	movs	r1, #1
 8006478:	2038      	movs	r0, #56	; 0x38
 800647a:	f006 fe37 	bl	800d0ec <calloc>
 800647e:	2101      	movs	r1, #1
 8006480:	4606      	mov	r6, r0
 8006482:	f44f 70a4 	mov.w	r0, #328	; 0x148
 8006486:	f006 fe31 	bl	800d0ec <calloc>
 800648a:	2101      	movs	r1, #1
 800648c:	4605      	mov	r5, r0
 800648e:	f44f 708e 	mov.w	r0, #284	; 0x11c
 8006492:	f006 fe2b 	bl	800d0ec <calloc>
 8006496:	2101      	movs	r1, #1
 8006498:	4682      	mov	sl, r0
 800649a:	f241 2010 	movw	r0, #4624	; 0x1210
 800649e:	f006 fe25 	bl	800d0ec <calloc>
 80064a2:	2101      	movs	r1, #1
 80064a4:	4681      	mov	r9, r0
 80064a6:	f44f 7052 	mov.w	r0, #840	; 0x348
 80064aa:	f006 fe1f 	bl	800d0ec <calloc>
 80064ae:	2101      	movs	r1, #1
 80064b0:	4680      	mov	r8, r0
 80064b2:	f44f 50d9 	mov.w	r0, #6944	; 0x1b20
 80064b6:	f006 fe19 	bl	800d0ec <calloc>
 80064ba:	2101      	movs	r1, #1
 80064bc:	4607      	mov	r7, r0
 80064be:	f242 2004 	movw	r0, #8708	; 0x2204
 80064c2:	f006 fe13 	bl	800d0ec <calloc>
 80064c6:	e9c4 6500 	strd	r6, r5, [r4]
 80064ca:	e9c4 a902 	strd	sl, r9, [r4, #8]
 80064ce:	e9c4 8704 	strd	r8, r7, [r4, #16]
 80064d2:	61a0      	str	r0, [r4, #24]
 80064d4:	b176      	cbz	r6, 80064f4 <xmp3_AllocateBuffers+0x90>
 80064d6:	b16d      	cbz	r5, 80064f4 <xmp3_AllocateBuffers+0x90>
 80064d8:	f1ba 0f00 	cmp.w	sl, #0
 80064dc:	d00a      	beq.n	80064f4 <xmp3_AllocateBuffers+0x90>
 80064de:	f1b9 0f00 	cmp.w	r9, #0
 80064e2:	d007      	beq.n	80064f4 <xmp3_AllocateBuffers+0x90>
 80064e4:	f1b8 0f00 	cmp.w	r8, #0
 80064e8:	d004      	beq.n	80064f4 <xmp3_AllocateBuffers+0x90>
 80064ea:	b11f      	cbz	r7, 80064f4 <xmp3_AllocateBuffers+0x90>
 80064ec:	b110      	cbz	r0, 80064f4 <xmp3_AllocateBuffers+0x90>
 80064ee:	4620      	mov	r0, r4
 80064f0:	e8bd 87f0 	ldmia.w	sp!, {r4, r5, r6, r7, r8, r9, sl, pc}
 80064f4:	4620      	mov	r0, r4
 80064f6:	f7ff ff8f 	bl	8006418 <xmp3_FreeBuffers>
 80064fa:	2400      	movs	r4, #0
 80064fc:	e7f7      	b.n	80064ee <xmp3_AllocateBuffers+0x8a>
 80064fe:	bf00      	nop

08006500 <xmp3_FDCT32>:
 8006500:	e92d 4ff0 	stmdb	sp!, {r4, r5, r6, r7, r8, r9, sl, fp, lr}
 8006504:	b087      	sub	sp, #28
 8006506:	e9cd 2302 	strd	r2, r3, [sp, #8]
 800650a:	9c10      	ldr	r4, [sp, #64]	; 0x40
 800650c:	9100      	str	r1, [sp, #0]
 800650e:	2c05      	cmp	r4, #5
 8006510:	f300 84f6 	bgt.w	8006f00 <xmp3_FDCT32+0xa00>
 8006514:	f1c4 0b06 	rsb	fp, r4, #6
 8006518:	1f03      	subs	r3, r0, #4
 800651a:	f100 017c 	add.w	r1, r0, #124	; 0x7c
 800651e:	f853 2f04 	ldr.w	r2, [r3, #4]!
 8006522:	fa42 f20b 	asr.w	r2, r2, fp
 8006526:	4299      	cmp	r1, r3
 8006528:	601a      	str	r2, [r3, #0]
 800652a:	d1f8      	bne.n	800651e <xmp3_FDCT32+0x1e>
 800652c:	6801      	ldr	r1, [r0, #0]
 800652e:	6fc2      	ldr	r2, [r0, #124]	; 0x7c
 8006530:	6bc4      	ldr	r4, [r0, #60]	; 0x3c
 8006532:	6c05      	ldr	r5, [r0, #64]	; 0x40
 8006534:	1a8b      	subs	r3, r1, r2
 8006536:	440a      	add	r2, r1
 8006538:	49cb      	ldr	r1, [pc, #812]	; (8006868 <xmp3_FDCT32+0x368>)
 800653a:	fb81 6303 	smull	r6, r3, r1, r3
 800653e:	1b61      	subs	r1, r4, r5
 8006540:	005b      	lsls	r3, r3, #1
 8006542:	442c      	add	r4, r5
 8006544:	4dc9      	ldr	r5, [pc, #804]	; (800686c <xmp3_FDCT32+0x36c>)
 8006546:	fb85 6101 	smull	r6, r1, r5, r1
 800654a:	1915      	adds	r5, r2, r4
 800654c:	0149      	lsls	r1, r1, #5
 800654e:	1b12      	subs	r2, r2, r4
 8006550:	6005      	str	r5, [r0, #0]
 8006552:	4cc7      	ldr	r4, [pc, #796]	; (8006870 <xmp3_FDCT32+0x370>)
 8006554:	fb84 5202 	smull	r5, r2, r4, r2
 8006558:	0052      	lsls	r2, r2, #1
 800655a:	63c2      	str	r2, [r0, #60]	; 0x3c
 800655c:	185a      	adds	r2, r3, r1
 800655e:	6402      	str	r2, [r0, #64]	; 0x40
 8006560:	1a5b      	subs	r3, r3, r1
 8006562:	fb84 2303 	smull	r2, r3, r4, r3
 8006566:	6841      	ldr	r1, [r0, #4]
 8006568:	6f82      	ldr	r2, [r0, #120]	; 0x78
 800656a:	6b84      	ldr	r4, [r0, #56]	; 0x38
 800656c:	6c45      	ldr	r5, [r0, #68]	; 0x44
 800656e:	005b      	lsls	r3, r3, #1
 8006570:	67c3      	str	r3, [r0, #124]	; 0x7c
 8006572:	1a8b      	subs	r3, r1, r2
 8006574:	440a      	add	r2, r1
 8006576:	49bf      	ldr	r1, [pc, #764]	; (8006874 <xmp3_FDCT32+0x374>)
 8006578:	fb81 6303 	smull	r6, r3, r1, r3
 800657c:	1b61      	subs	r1, r4, r5
 800657e:	005b      	lsls	r3, r3, #1
 8006580:	442c      	add	r4, r5
 8006582:	4dbd      	ldr	r5, [pc, #756]	; (8006878 <xmp3_FDCT32+0x378>)
 8006584:	fb85 6101 	smull	r6, r1, r5, r1
 8006588:	1915      	adds	r5, r2, r4
 800658a:	00c9      	lsls	r1, r1, #3
 800658c:	1b12      	subs	r2, r2, r4
 800658e:	6045      	str	r5, [r0, #4]
 8006590:	4cba      	ldr	r4, [pc, #744]	; (800687c <xmp3_FDCT32+0x37c>)
 8006592:	fb84 5202 	smull	r5, r2, r4, r2
 8006596:	0052      	lsls	r2, r2, #1
 8006598:	6382      	str	r2, [r0, #56]	; 0x38
 800659a:	185a      	adds	r2, r3, r1
 800659c:	6442      	str	r2, [r0, #68]	; 0x44
 800659e:	1a5b      	subs	r3, r3, r1
 80065a0:	fb84 2303 	smull	r2, r3, r4, r3
 80065a4:	6881      	ldr	r1, [r0, #8]
 80065a6:	6f42      	ldr	r2, [r0, #116]	; 0x74
 80065a8:	6b44      	ldr	r4, [r0, #52]	; 0x34
 80065aa:	6c85      	ldr	r5, [r0, #72]	; 0x48
 80065ac:	005b      	lsls	r3, r3, #1
 80065ae:	6783      	str	r3, [r0, #120]	; 0x78
 80065b0:	1a8b      	subs	r3, r1, r2
 80065b2:	440a      	add	r2, r1
 80065b4:	49b2      	ldr	r1, [pc, #712]	; (8006880 <xmp3_FDCT32+0x380>)
 80065b6:	fb81 6303 	smull	r6, r3, r1, r3
 80065ba:	1b61      	subs	r1, r4, r5
 80065bc:	005b      	lsls	r3, r3, #1
 80065be:	442c      	add	r4, r5
 80065c0:	4db0      	ldr	r5, [pc, #704]	; (8006884 <xmp3_FDCT32+0x384>)
 80065c2:	fb85 6101 	smull	r6, r1, r5, r1
 80065c6:	1915      	adds	r5, r2, r4
 80065c8:	00c9      	lsls	r1, r1, #3
 80065ca:	1b12      	subs	r2, r2, r4
 80065cc:	6085      	str	r5, [r0, #8]
 80065ce:	4cae      	ldr	r4, [pc, #696]	; (8006888 <xmp3_FDCT32+0x388>)
 80065d0:	fb84 5202 	smull	r5, r2, r4, r2
 80065d4:	0052      	lsls	r2, r2, #1
 80065d6:	6342      	str	r2, [r0, #52]	; 0x34
 80065d8:	185a      	adds	r2, r3, r1
 80065da:	6482      	str	r2, [r0, #72]	; 0x48
 80065dc:	1a5b      	subs	r3, r3, r1
 80065de:	fb84 2303 	smull	r2, r3, r4, r3
 80065e2:	68c1      	ldr	r1, [r0, #12]
 80065e4:	6f02      	ldr	r2, [r0, #112]	; 0x70
 80065e6:	6b04      	ldr	r4, [r0, #48]	; 0x30
 80065e8:	6cc5      	ldr	r5, [r0, #76]	; 0x4c
 80065ea:	005b      	lsls	r3, r3, #1
 80065ec:	6743      	str	r3, [r0, #116]	; 0x74
 80065ee:	1a8b      	subs	r3, r1, r2
 80065f0:	440a      	add	r2, r1
 80065f2:	49a6      	ldr	r1, [pc, #664]	; (800688c <xmp3_FDCT32+0x38c>)
 80065f4:	fb81 6303 	smull	r6, r3, r1, r3
 80065f8:	1b61      	subs	r1, r4, r5
 80065fa:	005b      	lsls	r3, r3, #1
 80065fc:	442c      	add	r4, r5
 80065fe:	4da4      	ldr	r5, [pc, #656]	; (8006890 <xmp3_FDCT32+0x390>)
 8006600:	fb85 6101 	smull	r6, r1, r5, r1
 8006604:	1915      	adds	r5, r2, r4
 8006606:	0089      	lsls	r1, r1, #2
 8006608:	1b12      	subs	r2, r2, r4
 800660a:	60c5      	str	r5, [r0, #12]
 800660c:	4ca1      	ldr	r4, [pc, #644]	; (8006894 <xmp3_FDCT32+0x394>)
 800660e:	fb84 5202 	smull	r5, r2, r4, r2
 8006612:	0052      	lsls	r2, r2, #1
 8006614:	6302      	str	r2, [r0, #48]	; 0x30
 8006616:	185a      	adds	r2, r3, r1
 8006618:	64c2      	str	r2, [r0, #76]	; 0x4c
 800661a:	1a5b      	subs	r3, r3, r1
 800661c:	fb84 2303 	smull	r2, r3, r4, r3
 8006620:	6901      	ldr	r1, [r0, #16]
 8006622:	6ec2      	ldr	r2, [r0, #108]	; 0x6c
 8006624:	6ac4      	ldr	r4, [r0, #44]	; 0x2c
 8006626:	6d05      	ldr	r5, [r0, #80]	; 0x50
 8006628:	005b      	lsls	r3, r3, #1
 800662a:	6703      	str	r3, [r0, #112]	; 0x70
 800662c:	1a8b      	subs	r3, r1, r2
 800662e:	440a      	add	r2, r1
 8006630:	4999      	ldr	r1, [pc, #612]	; (8006898 <xmp3_FDCT32+0x398>)
 8006632:	fb81 6303 	smull	r6, r3, r1, r3
 8006636:	1b61      	subs	r1, r4, r5
 8006638:	005b      	lsls	r3, r3, #1
 800663a:	442c      	add	r4, r5
 800663c:	4d97      	ldr	r5, [pc, #604]	; (800689c <xmp3_FDCT32+0x39c>)
 800663e:	fb85 6101 	smull	r6, r1, r5, r1
 8006642:	1915      	adds	r5, r2, r4
 8006644:	0089      	lsls	r1, r1, #2
 8006646:	1b12      	subs	r2, r2, r4
 8006648:	6105      	str	r5, [r0, #16]
 800664a:	4c95      	ldr	r4, [pc, #596]	; (80068a0 <xmp3_FDCT32+0x3a0>)
 800664c:	fb84 5202 	smull	r5, r2, r4, r2
 8006650:	0052      	lsls	r2, r2, #1
 8006652:	62c2      	str	r2, [r0, #44]	; 0x2c
 8006654:	185a      	adds	r2, r3, r1
 8006656:	6502      	str	r2, [r0, #80]	; 0x50
 8006658:	1a5b      	subs	r3, r3, r1
 800665a:	fb84 2303 	smull	r2, r3, r4, r3
 800665e:	6941      	ldr	r1, [r0, #20]
 8006660:	6e82      	ldr	r2, [r0, #104]	; 0x68
 8006662:	6a84      	ldr	r4, [r0, #40]	; 0x28
 8006664:	6d45      	ldr	r5, [r0, #84]	; 0x54
 8006666:	005b      	lsls	r3, r3, #1
 8006668:	66c3      	str	r3, [r0, #108]	; 0x6c
 800666a:	1a8b      	subs	r3, r1, r2
 800666c:	440a      	add	r2, r1
 800666e:	498d      	ldr	r1, [pc, #564]	; (80068a4 <xmp3_FDCT32+0x3a4>)
 8006670:	fb81 6303 	smull	r6, r3, r1, r3
 8006674:	1b61      	subs	r1, r4, r5
 8006676:	005b      	lsls	r3, r3, #1
 8006678:	442c      	add	r4, r5
 800667a:	4d8b      	ldr	r5, [pc, #556]	; (80068a8 <xmp3_FDCT32+0x3a8>)
 800667c:	fb85 6101 	smull	r6, r1, r5, r1
 8006680:	1915      	adds	r5, r2, r4
 8006682:	0049      	lsls	r1, r1, #1
 8006684:	1b12      	subs	r2, r2, r4
 8006686:	6145      	str	r5, [r0, #20]
 8006688:	4c88      	ldr	r4, [pc, #544]	; (80068ac <xmp3_FDCT32+0x3ac>)
 800668a:	fb84 5202 	smull	r5, r2, r4, r2
 800668e:	0092      	lsls	r2, r2, #2
 8006690:	6282      	str	r2, [r0, #40]	; 0x28
 8006692:	185a      	adds	r2, r3, r1
 8006694:	6542      	str	r2, [r0, #84]	; 0x54
 8006696:	1a5b      	subs	r3, r3, r1
 8006698:	fb84 2303 	smull	r2, r3, r4, r3
 800669c:	6981      	ldr	r1, [r0, #24]
 800669e:	6e42      	ldr	r2, [r0, #100]	; 0x64
 80066a0:	6a44      	ldr	r4, [r0, #36]	; 0x24
 80066a2:	6d85      	ldr	r5, [r0, #88]	; 0x58
 80066a4:	009b      	lsls	r3, r3, #2
 80066a6:	6683      	str	r3, [r0, #104]	; 0x68
 80066a8:	1a8b      	subs	r3, r1, r2
 80066aa:	440a      	add	r2, r1
 80066ac:	4980      	ldr	r1, [pc, #512]	; (80068b0 <xmp3_FDCT32+0x3b0>)
 80066ae:	fb81 6303 	smull	r6, r3, r1, r3
 80066b2:	1b61      	subs	r1, r4, r5
 80066b4:	005b      	lsls	r3, r3, #1
 80066b6:	442c      	add	r4, r5
 80066b8:	4d7e      	ldr	r5, [pc, #504]	; (80068b4 <xmp3_FDCT32+0x3b4>)
 80066ba:	fb85 6101 	smull	r6, r1, r5, r1
 80066be:	1915      	adds	r5, r2, r4
 80066c0:	0049      	lsls	r1, r1, #1
 80066c2:	1b12      	subs	r2, r2, r4
 80066c4:	6185      	str	r5, [r0, #24]
 80066c6:	4c7c      	ldr	r4, [pc, #496]	; (80068b8 <xmp3_FDCT32+0x3b8>)
 80066c8:	fb84 5202 	smull	r5, r2, r4, r2
 80066cc:	0092      	lsls	r2, r2, #2
 80066ce:	6242      	str	r2, [r0, #36]	; 0x24
 80066d0:	185a      	adds	r2, r3, r1
 80066d2:	6582      	str	r2, [r0, #88]	; 0x58
 80066d4:	1a5b      	subs	r3, r3, r1
 80066d6:	fb84 2303 	smull	r2, r3, r4, r3
 80066da:	69c1      	ldr	r1, [r0, #28]
 80066dc:	6e02      	ldr	r2, [r0, #96]	; 0x60
 80066de:	6a04      	ldr	r4, [r0, #32]
 80066e0:	6dc5      	ldr	r5, [r0, #92]	; 0x5c
 80066e2:	009b      	lsls	r3, r3, #2
 80066e4:	6643      	str	r3, [r0, #100]	; 0x64
 80066e6:	1a8b      	subs	r3, r1, r2
 80066e8:	440a      	add	r2, r1
 80066ea:	4974      	ldr	r1, [pc, #464]	; (80068bc <xmp3_FDCT32+0x3bc>)
 80066ec:	fb81 6303 	smull	r6, r3, r1, r3
 80066f0:	1b61      	subs	r1, r4, r5
 80066f2:	005b      	lsls	r3, r3, #1
 80066f4:	442c      	add	r4, r5
 80066f6:	4d72      	ldr	r5, [pc, #456]	; (80068c0 <xmp3_FDCT32+0x3c0>)
 80066f8:	fb85 6101 	smull	r6, r1, r5, r1
 80066fc:	1915      	adds	r5, r2, r4
 80066fe:	0049      	lsls	r1, r1, #1
 8006700:	1b12      	subs	r2, r2, r4
 8006702:	61c5      	str	r5, [r0, #28]
 8006704:	4c6f      	ldr	r4, [pc, #444]	; (80068c4 <xmp3_FDCT32+0x3c4>)
 8006706:	fb84 5202 	smull	r5, r2, r4, r2
 800670a:	0112      	lsls	r2, r2, #4
 800670c:	6202      	str	r2, [r0, #32]
 800670e:	185a      	adds	r2, r3, r1
 8006710:	65c2      	str	r2, [r0, #92]	; 0x5c
 8006712:	1a5b      	subs	r3, r3, r1
 8006714:	fb84 2303 	smull	r2, r3, r4, r3
 8006718:	e9cd b004 	strd	fp, r0, [sp, #16]
 800671c:	011b      	lsls	r3, r3, #4
 800671e:	f100 02a0 	add.w	r2, r0, #160	; 0xa0
 8006722:	f8df a1a8 	ldr.w	sl, [pc, #424]	; 80068cc <xmp3_FDCT32+0x3cc>
 8006726:	6603      	str	r3, [r0, #96]	; 0x60
 8006728:	9201      	str	r2, [sp, #4]
 800672a:	f100 0320 	add.w	r3, r0, #32
 800672e:	f853 2c04 	ldr.w	r2, [r3, #-4]
 8006732:	f853 6c20 	ldr.w	r6, [r3, #-32]
 8006736:	f853 5c14 	ldr.w	r5, [r3, #-20]
 800673a:	f853 7c10 	ldr.w	r7, [r3, #-16]
 800673e:	1ab1      	subs	r1, r6, r2
 8006740:	4416      	add	r6, r2
 8006742:	f8da 2060 	ldr.w	r2, [sl, #96]	; 0x60
 8006746:	fb82 4101 	smull	r4, r1, r2, r1
 800674a:	004c      	lsls	r4, r1, #1
 800674c:	1bea      	subs	r2, r5, r7
 800674e:	f8da 1064 	ldr.w	r1, [sl, #100]	; 0x64
 8006752:	443d      	add	r5, r7
 8006754:	fb81 7202 	smull	r7, r2, r1, r2
 8006758:	eba6 0e05 	sub.w	lr, r6, r5
 800675c:	00d1      	lsls	r1, r2, #3
 800675e:	442e      	add	r6, r5
 8006760:	f8da 5068 	ldr.w	r5, [sl, #104]	; 0x68
 8006764:	fb85 2e0e 	smull	r2, lr, r5, lr
 8006768:	1a62      	subs	r2, r4, r1
 800676a:	ea4f 0e4e 	mov.w	lr, lr, lsl #1
 800676e:	4421      	add	r1, r4
 8006770:	fb85 4202 	smull	r4, r2, r5, r2
 8006774:	f853 7c1c 	ldr.w	r7, [r3, #-28]
 8006778:	f853 4c08 	ldr.w	r4, [r3, #-8]
 800677c:	f853 8c18 	ldr.w	r8, [r3, #-24]
 8006780:	1b3d      	subs	r5, r7, r4
 8006782:	eb07 0904 	add.w	r9, r7, r4
 8006786:	0052      	lsls	r2, r2, #1
 8006788:	f853 7c0c 	ldr.w	r7, [r3, #-12]
 800678c:	f8da 406c 	ldr.w	r4, [sl, #108]	; 0x6c
 8006790:	fb84 c505 	smull	ip, r5, r4, r5
 8006794:	ea4f 0c45 	mov.w	ip, r5, lsl #1
 8006798:	f8da 4070 	ldr.w	r4, [sl, #112]	; 0x70
 800679c:	eba8 0507 	sub.w	r5, r8, r7
 80067a0:	4447      	add	r7, r8
 80067a2:	fb84 8505 	smull	r8, r5, r4, r5
 80067a6:	eba9 0407 	sub.w	r4, r9, r7
 80067aa:	f8da 8074 	ldr.w	r8, [sl, #116]	; 0x74
 80067ae:	006d      	lsls	r5, r5, #1
 80067b0:	44b9      	add	r9, r7
 80067b2:	fb88 7404 	smull	r7, r4, r8, r4
 80067b6:	ebac 0705 	sub.w	r7, ip, r5
 80067ba:	00a4      	lsls	r4, r4, #2
 80067bc:	4465      	add	r5, ip
 80067be:	fb88 c707 	smull	ip, r7, r8, r7
 80067c2:	4841      	ldr	r0, [pc, #260]	; (80068c8 <xmp3_FDCT32+0x3c8>)
 80067c4:	00bf      	lsls	r7, r7, #2
 80067c6:	eba6 0809 	sub.w	r8, r6, r9
 80067ca:	fb80 c808 	smull	ip, r8, r0, r8
 80067ce:	ebae 0c04 	sub.w	ip, lr, r4
 80067d2:	fb80 bc0c 	smull	fp, ip, r0, ip
 80067d6:	4474      	add	r4, lr
 80067d8:	444e      	add	r6, r9
 80067da:	eb04 044c 	add.w	r4, r4, ip, lsl #1
 80067de:	f843 6c20 	str.w	r6, [r3, #-32]
 80067e2:	f843 4c18 	str.w	r4, [r3, #-24]
 80067e6:	ea4f 0648 	mov.w	r6, r8, lsl #1
 80067ea:	ea4f 044c 	mov.w	r4, ip, lsl #1
 80067ee:	f843 4c14 	str.w	r4, [r3, #-20]
 80067f2:	f843 6c1c 	str.w	r6, [r3, #-28]
 80067f6:	1b4c      	subs	r4, r1, r5
 80067f8:	fb80 6404 	smull	r6, r4, r0, r4
 80067fc:	1bd6      	subs	r6, r2, r7
 80067fe:	0064      	lsls	r4, r4, #1
 8006800:	443a      	add	r2, r7
 8006802:	fb80 7606 	smull	r7, r6, r0, r6
 8006806:	eb02 0246 	add.w	r2, r2, r6, lsl #1
 800680a:	4429      	add	r1, r5
 800680c:	4411      	add	r1, r2
 800680e:	4422      	add	r2, r4
 8006810:	f843 2c08 	str.w	r2, [r3, #-8]
 8006814:	eb04 0446 	add.w	r4, r4, r6, lsl #1
 8006818:	9a01      	ldr	r2, [sp, #4]
 800681a:	f843 1c10 	str.w	r1, [r3, #-16]
 800681e:	0076      	lsls	r6, r6, #1
 8006820:	f843 4c0c 	str.w	r4, [r3, #-12]
 8006824:	f843 6c04 	str.w	r6, [r3, #-4]
 8006828:	3320      	adds	r3, #32
 800682a:	4293      	cmp	r3, r2
 800682c:	f10a 0a18 	add.w	sl, sl, #24
 8006830:	f47f af7d 	bne.w	800672e <xmp3_FDCT32+0x22e>
 8006834:	e9dd 3102 	ldrd	r3, r1, [sp, #8]
 8006838:	1a5b      	subs	r3, r3, r1
 800683a:	f003 0307 	and.w	r3, r3, #7
 800683e:	f503 6380 	add.w	r3, r3, #1024	; 0x400
 8006842:	e9dd b004 	ldrd	fp, r0, [sp, #16]
 8006846:	009a      	lsls	r2, r3, #2
 8006848:	2900      	cmp	r1, #0
 800684a:	f000 834d 	beq.w	8006ee8 <xmp3_FDCT32+0x9e8>
 800684e:	9d00      	ldr	r5, [sp, #0]
 8006850:	9902      	ldr	r1, [sp, #8]
 8006852:	6804      	ldr	r4, [r0, #0]
 8006854:	18ae      	adds	r6, r5, r2
 8006856:	0089      	lsls	r1, r1, #2
 8006858:	6234      	str	r4, [r6, #32]
 800685a:	f501 5188 	add.w	r1, r1, #4352	; 0x1100
 800685e:	f845 4023 	str.w	r4, [r5, r3, lsl #2]
 8006862:	2400      	movs	r4, #0
 8006864:	e034      	b.n	80068d0 <xmp3_FDCT32+0x3d0>
 8006866:	bf00      	nop
 8006868:	4013c251 	.word	0x4013c251
 800686c:	518522fb 	.word	0x518522fb
 8006870:	404f4672 	.word	0x404f4672
 8006874:	40b345bd 	.word	0x40b345bd
 8006878:	6d0b20cf 	.word	0x6d0b20cf
 800687c:	42e13c10 	.word	0x42e13c10
 8006880:	41fa2d6d 	.word	0x41fa2d6d
 8006884:	41d95790 	.word	0x41d95790
 8006888:	48919f44 	.word	0x48919f44
 800688c:	43f93421 	.word	0x43f93421
 8006890:	5efc8d96 	.word	0x5efc8d96
 8006894:	52cb0e63 	.word	0x52cb0e63
 8006898:	46cc1bc4 	.word	0x46cc1bc4
 800689c:	4ad81a97 	.word	0x4ad81a97
 80068a0:	64e2402e 	.word	0x64e2402e
 80068a4:	4a9d9cf0 	.word	0x4a9d9cf0
 80068a8:	7c7d1db3 	.word	0x7c7d1db3
 80068ac:	43e224a9 	.word	0x43e224a9
 80068b0:	4fae3711 	.word	0x4fae3711
 80068b4:	6b6fcf26 	.word	0x6b6fcf26
 80068b8:	6e3c92c1 	.word	0x6e3c92c1
 80068bc:	56601ea7 	.word	0x56601ea7
 80068c0:	5f4cf6eb 	.word	0x5f4cf6eb
 80068c4:	519e4e04 	.word	0x519e4e04
 80068c8:	5a82799a 	.word	0x5a82799a
 80068cc:	080113d0 	.word	0x080113d0
 80068d0:	186b      	adds	r3, r5, r1
 80068d2:	f5a2 627c 	sub.w	r2, r2, #4032	; 0xfc0
 80068d6:	4414      	add	r4, r2
 80068d8:	6842      	ldr	r2, [r0, #4]
 80068da:	621a      	str	r2, [r3, #32]
 80068dc:	506a      	str	r2, [r5, r1]
 80068de:	192a      	adds	r2, r5, r4
 80068e0:	6e41      	ldr	r1, [r0, #100]	; 0x64
 80068e2:	6f45      	ldr	r5, [r0, #116]	; 0x74
 80068e4:	6c47      	ldr	r7, [r0, #68]	; 0x44
 80068e6:	4429      	add	r1, r5
 80068e8:	440f      	add	r7, r1
 80068ea:	f8c3 7120 	str.w	r7, [r3, #288]	; 0x120
 80068ee:	f8c3 7100 	str.w	r7, [r3, #256]	; 0x100
 80068f2:	6b47      	ldr	r7, [r0, #52]	; 0x34
 80068f4:	6a45      	ldr	r5, [r0, #36]	; 0x24
 80068f6:	443d      	add	r5, r7
 80068f8:	f8c3 5220 	str.w	r5, [r3, #544]	; 0x220
 80068fc:	f8c3 5200 	str.w	r5, [r3, #512]	; 0x200
 8006900:	6d47      	ldr	r7, [r0, #84]	; 0x54
 8006902:	4439      	add	r1, r7
 8006904:	f8c3 1320 	str.w	r1, [r3, #800]	; 0x320
 8006908:	f8c3 1300 	str.w	r1, [r3, #768]	; 0x300
 800690c:	6947      	ldr	r7, [r0, #20]
 800690e:	6f45      	ldr	r5, [r0, #116]	; 0x74
 8006910:	6ec1      	ldr	r1, [r0, #108]	; 0x6c
 8006912:	f8c3 7420 	str.w	r7, [r3, #1056]	; 0x420
 8006916:	f8c3 7400 	str.w	r7, [r3, #1024]	; 0x400
 800691a:	6d47      	ldr	r7, [r0, #84]	; 0x54
 800691c:	4429      	add	r1, r5
 800691e:	440f      	add	r7, r1
 8006920:	f8c3 7520 	str.w	r7, [r3, #1312]	; 0x520
 8006924:	f8c3 7500 	str.w	r7, [r3, #1280]	; 0x500
 8006928:	6ac7      	ldr	r7, [r0, #44]	; 0x2c
 800692a:	6b45      	ldr	r5, [r0, #52]	; 0x34
 800692c:	443d      	add	r5, r7
 800692e:	f8c3 5620 	str.w	r5, [r3, #1568]	; 0x620
 8006932:	f8c3 5600 	str.w	r5, [r3, #1536]	; 0x600
 8006936:	6cc7      	ldr	r7, [r0, #76]	; 0x4c
 8006938:	4439      	add	r1, r7
 800693a:	f8c3 1720 	str.w	r1, [r3, #1824]	; 0x720
 800693e:	f8c3 1700 	str.w	r1, [r3, #1792]	; 0x700
 8006942:	6ec5      	ldr	r5, [r0, #108]	; 0x6c
 8006944:	6fc1      	ldr	r1, [r0, #124]	; 0x7c
 8006946:	4429      	add	r1, r5
 8006948:	68c5      	ldr	r5, [r0, #12]
 800694a:	f8c3 5820 	str.w	r5, [r3, #2080]	; 0x820
 800694e:	f8c3 5800 	str.w	r5, [r3, #2048]	; 0x800
 8006952:	6cc7      	ldr	r7, [r0, #76]	; 0x4c
 8006954:	440f      	add	r7, r1
 8006956:	f8c3 7920 	str.w	r7, [r3, #2336]	; 0x920
 800695a:	f8c3 7900 	str.w	r7, [r3, #2304]	; 0x900
 800695e:	6bc7      	ldr	r7, [r0, #60]	; 0x3c
 8006960:	6ac5      	ldr	r5, [r0, #44]	; 0x2c
 8006962:	443d      	add	r5, r7
 8006964:	f8c3 5a20 	str.w	r5, [r3, #2592]	; 0xa20
 8006968:	f8c3 5a00 	str.w	r5, [r3, #2560]	; 0xa00
 800696c:	6dc7      	ldr	r7, [r0, #92]	; 0x5c
 800696e:	4439      	add	r1, r7
 8006970:	f8c3 1b20 	str.w	r1, [r3, #2848]	; 0xb20
 8006974:	f8c3 1b00 	str.w	r1, [r3, #2816]	; 0xb00
 8006978:	69c1      	ldr	r1, [r0, #28]
 800697a:	6fc5      	ldr	r5, [r0, #124]	; 0x7c
 800697c:	f8c3 1c20 	str.w	r1, [r3, #3104]	; 0xc20
 8006980:	f8c3 1c00 	str.w	r1, [r3, #3072]	; 0xc00
 8006984:	6dc1      	ldr	r1, [r0, #92]	; 0x5c
 8006986:	4429      	add	r1, r5
 8006988:	f8c3 1d20 	str.w	r1, [r3, #3360]	; 0xd20
 800698c:	f8c3 1d00 	str.w	r1, [r3, #3328]	; 0xd00
 8006990:	6bc1      	ldr	r1, [r0, #60]	; 0x3c
 8006992:	f8c3 1e20 	str.w	r1, [r3, #3616]	; 0xe20
 8006996:	f8c3 5f20 	str.w	r5, [r3, #3872]	; 0xf20
 800699a:	f8c3 5f00 	str.w	r5, [r3, #3840]	; 0xf00
 800699e:	f8c3 1e00 	str.w	r1, [r3, #3584]	; 0xe00
 80069a2:	9d00      	ldr	r5, [sp, #0]
 80069a4:	6841      	ldr	r1, [r0, #4]
 80069a6:	6211      	str	r1, [r2, #32]
 80069a8:	5129      	str	r1, [r5, r4]
 80069aa:	6e45      	ldr	r5, [r0, #100]	; 0x64
 80069ac:	6f81      	ldr	r1, [r0, #120]	; 0x78
 80069ae:	6c47      	ldr	r7, [r0, #68]	; 0x44
 80069b0:	4429      	add	r1, r5
 80069b2:	440f      	add	r7, r1
 80069b4:	f8c2 7120 	str.w	r7, [r2, #288]	; 0x120
 80069b8:	f8c2 7100 	str.w	r7, [r2, #256]	; 0x100
 80069bc:	6a47      	ldr	r7, [r0, #36]	; 0x24
 80069be:	6b85      	ldr	r5, [r0, #56]	; 0x38
 80069c0:	443d      	add	r5, r7
 80069c2:	f8c2 5220 	str.w	r5, [r2, #544]	; 0x220
 80069c6:	f8c2 5200 	str.w	r5, [r2, #512]	; 0x200
 80069ca:	6d87      	ldr	r7, [r0, #88]	; 0x58
 80069cc:	4439      	add	r1, r7
 80069ce:	f8c2 1320 	str.w	r1, [r2, #800]	; 0x320
 80069d2:	f8c2 1300 	str.w	r1, [r2, #768]	; 0x300
 80069d6:	6981      	ldr	r1, [r0, #24]
 80069d8:	f8c2 1420 	str.w	r1, [r2, #1056]	; 0x420
 80069dc:	f8c2 1400 	str.w	r1, [r2, #1024]	; 0x400
 80069e0:	6f85      	ldr	r5, [r0, #120]	; 0x78
 80069e2:	6e81      	ldr	r1, [r0, #104]	; 0x68
 80069e4:	6d87      	ldr	r7, [r0, #88]	; 0x58
 80069e6:	4429      	add	r1, r5
 80069e8:	440f      	add	r7, r1
 80069ea:	f8c2 7520 	str.w	r7, [r2, #1312]	; 0x520
 80069ee:	f8c2 7500 	str.w	r7, [r2, #1280]	; 0x500
 80069f2:	6b87      	ldr	r7, [r0, #56]	; 0x38
 80069f4:	6a85      	ldr	r5, [r0, #40]	; 0x28
 80069f6:	443d      	add	r5, r7
 80069f8:	f8c2 5620 	str.w	r5, [r2, #1568]	; 0x620
 80069fc:	f8c2 5600 	str.w	r5, [r2, #1536]	; 0x600
 8006a00:	6c87      	ldr	r7, [r0, #72]	; 0x48
 8006a02:	4439      	add	r1, r7
 8006a04:	f8c2 1720 	str.w	r1, [r2, #1824]	; 0x720
 8006a08:	f8c2 1700 	str.w	r1, [r2, #1792]	; 0x700
 8006a0c:	6881      	ldr	r1, [r0, #8]
 8006a0e:	f8c2 1820 	str.w	r1, [r2, #2080]	; 0x820
 8006a12:	f8c2 1800 	str.w	r1, [r2, #2048]	; 0x800
 8006a16:	6e85      	ldr	r5, [r0, #104]	; 0x68
 8006a18:	6f01      	ldr	r1, [r0, #112]	; 0x70
 8006a1a:	6c87      	ldr	r7, [r0, #72]	; 0x48
 8006a1c:	4429      	add	r1, r5
 8006a1e:	440f      	add	r7, r1
 8006a20:	f8c2 7920 	str.w	r7, [r2, #2336]	; 0x920
 8006a24:	f8c2 7900 	str.w	r7, [r2, #2304]	; 0x900
 8006a28:	6b05      	ldr	r5, [r0, #48]	; 0x30
 8006a2a:	6a87      	ldr	r7, [r0, #40]	; 0x28
 8006a2c:	443d      	add	r5, r7
 8006a2e:	f8c2 5a20 	str.w	r5, [r2, #2592]	; 0xa20
 8006a32:	f8c2 5a00 	str.w	r5, [r2, #2560]	; 0xa00
 8006a36:	6d07      	ldr	r7, [r0, #80]	; 0x50
 8006a38:	4439      	add	r1, r7
 8006a3a:	f8c2 1b20 	str.w	r1, [r2, #2848]	; 0xb20
 8006a3e:	f8c2 1b00 	str.w	r1, [r2, #2816]	; 0xb00
 8006a42:	6901      	ldr	r1, [r0, #16]
 8006a44:	f8c2 1c20 	str.w	r1, [r2, #3104]	; 0xc20
 8006a48:	f8c2 1c00 	str.w	r1, [r2, #3072]	; 0xc00
 8006a4c:	6f05      	ldr	r5, [r0, #112]	; 0x70
 8006a4e:	6e01      	ldr	r1, [r0, #96]	; 0x60
 8006a50:	6d07      	ldr	r7, [r0, #80]	; 0x50
 8006a52:	4429      	add	r1, r5
 8006a54:	440f      	add	r7, r1
 8006a56:	f8c2 7d20 	str.w	r7, [r2, #3360]	; 0xd20
 8006a5a:	f8c2 7d00 	str.w	r7, [r2, #3328]	; 0xd00
 8006a5e:	6a05      	ldr	r5, [r0, #32]
 8006a60:	6b07      	ldr	r7, [r0, #48]	; 0x30
 8006a62:	443d      	add	r5, r7
 8006a64:	f8c2 5e20 	str.w	r5, [r2, #3616]	; 0xe20
 8006a68:	f8c2 5e00 	str.w	r5, [r2, #3584]	; 0xe00
 8006a6c:	6c05      	ldr	r5, [r0, #64]	; 0x40
 8006a6e:	4429      	add	r1, r5
 8006a70:	f8c2 1f20 	str.w	r1, [r2, #3872]	; 0xf20
 8006a74:	f8c2 1f00 	str.w	r1, [r2, #3840]	; 0xf00
 8006a78:	f1bb 0f00 	cmp.w	fp, #0
 8006a7c:	f000 8231 	beq.w	8006ee2 <xmp3_FDCT32+0x9e2>
 8006a80:	6835      	ldr	r5, [r6, #0]
 8006a82:	f1cb 011f 	rsb	r1, fp, #31
 8006a86:	fa45 f001 	asr.w	r0, r5, r1
 8006a8a:	ebb0 7fe5 	cmp.w	r0, r5, asr #31
 8006a8e:	f04f 4000 	mov.w	r0, #2147483648	; 0x80000000
 8006a92:	fa20 f00b 	lsr.w	r0, r0, fp
 8006a96:	f100 30ff 	add.w	r0, r0, #4294967295
 8006a9a:	ea4f 77e5 	mov.w	r7, r5, asr #31
 8006a9e:	bf18      	it	ne
 8006aa0:	ea80 0507 	eorne.w	r5, r0, r7
 8006aa4:	fa05 f50b 	lsl.w	r5, r5, fp
 8006aa8:	6235      	str	r5, [r6, #32]
 8006aaa:	6035      	str	r5, [r6, #0]
 8006aac:	681d      	ldr	r5, [r3, #0]
 8006aae:	fa45 f601 	asr.w	r6, r5, r1
 8006ab2:	ebb6 7fe5 	cmp.w	r6, r5, asr #31
 8006ab6:	ea4f 77e5 	mov.w	r7, r5, asr #31
 8006aba:	bf18      	it	ne
 8006abc:	ea80 0507 	eorne.w	r5, r0, r7
 8006ac0:	fa05 f50b 	lsl.w	r5, r5, fp
 8006ac4:	621d      	str	r5, [r3, #32]
 8006ac6:	601d      	str	r5, [r3, #0]
 8006ac8:	f8d3 5100 	ldr.w	r5, [r3, #256]	; 0x100
 8006acc:	fa45 f601 	asr.w	r6, r5, r1
 8006ad0:	ebb6 7fe5 	cmp.w	r6, r5, asr #31
 8006ad4:	ea4f 77e5 	mov.w	r7, r5, asr #31
 8006ad8:	bf18      	it	ne
 8006ada:	ea80 0507 	eorne.w	r5, r0, r7
 8006ade:	fa05 f50b 	lsl.w	r5, r5, fp
 8006ae2:	f8c3 5120 	str.w	r5, [r3, #288]	; 0x120
 8006ae6:	f8c3 5100 	str.w	r5, [r3, #256]	; 0x100
 8006aea:	f8d3 5200 	ldr.w	r5, [r3, #512]	; 0x200
 8006aee:	fa45 f601 	asr.w	r6, r5, r1
 8006af2:	ebb6 7fe5 	cmp.w	r6, r5, asr #31
 8006af6:	ea4f 77e5 	mov.w	r7, r5, asr #31
 8006afa:	bf18      	it	ne
 8006afc:	ea80 0507 	eorne.w	r5, r0, r7
 8006b00:	fa05 f50b 	lsl.w	r5, r5, fp
 8006b04:	f8c3 5220 	str.w	r5, [r3, #544]	; 0x220
 8006b08:	f8c3 5200 	str.w	r5, [r3, #512]	; 0x200
 8006b0c:	f8d3 5300 	ldr.w	r5, [r3, #768]	; 0x300
 8006b10:	fa45 f601 	asr.w	r6, r5, r1
 8006b14:	ebb6 7fe5 	cmp.w	r6, r5, asr #31
 8006b18:	ea4f 77e5 	mov.w	r7, r5, asr #31
 8006b1c:	bf18      	it	ne
 8006b1e:	ea80 0507 	eorne.w	r5, r0, r7
 8006b22:	fa05 f50b 	lsl.w	r5, r5, fp
 8006b26:	f8c3 5320 	str.w	r5, [r3, #800]	; 0x320
 8006b2a:	f8c3 5300 	str.w	r5, [r3, #768]	; 0x300
 8006b2e:	f8d3 5400 	ldr.w	r5, [r3, #1024]	; 0x400
 8006b32:	fa45 f601 	asr.w	r6, r5, r1
 8006b36:	ebb6 7fe5 	cmp.w	r6, r5, asr #31
 8006b3a:	ea4f 77e5 	mov.w	r7, r5, asr #31
 8006b3e:	bf18      	it	ne
 8006b40:	ea80 0507 	eorne.w	r5, r0, r7
 8006b44:	fa05 f50b 	lsl.w	r5, r5, fp
 8006b48:	f8c3 5420 	str.w	r5, [r3, #1056]	; 0x420
 8006b4c:	f8c3 5400 	str.w	r5, [r3, #1024]	; 0x400
 8006b50:	f8d3 5500 	ldr.w	r5, [r3, #1280]	; 0x500
 8006b54:	fa45 f601 	asr.w	r6, r5, r1
 8006b58:	ebb6 7fe5 	cmp.w	r6, r5, asr #31
 8006b5c:	ea4f 77e5 	mov.w	r7, r5, asr #31
 8006b60:	bf18      	it	ne
 8006b62:	ea80 0507 	eorne.w	r5, r0, r7
 8006b66:	fa05 f50b 	lsl.w	r5, r5, fp
 8006b6a:	f8c3 5520 	str.w	r5, [r3, #1312]	; 0x520
 8006b6e:	f8c3 5500 	str.w	r5, [r3, #1280]	; 0x500
 8006b72:	f8d3 5600 	ldr.w	r5, [r3, #1536]	; 0x600
 8006b76:	fa45 f601 	asr.w	r6, r5, r1
 8006b7a:	ebb6 7fe5 	cmp.w	r6, r5, asr #31
 8006b7e:	ea4f 77e5 	mov.w	r7, r5, asr #31
 8006b82:	bf18      	it	ne
 8006b84:	ea80 0507 	eorne.w	r5, r0, r7
 8006b88:	fa05 f50b 	lsl.w	r5, r5, fp
 8006b8c:	f8c3 5620 	str.w	r5, [r3, #1568]	; 0x620
 8006b90:	f8c3 5600 	str.w	r5, [r3, #1536]	; 0x600
 8006b94:	f8d3 5700 	ldr.w	r5, [r3, #1792]	; 0x700
 8006b98:	fa45 f601 	asr.w	r6, r5, r1
 8006b9c:	ebb6 7fe5 	cmp.w	r6, r5, asr #31
 8006ba0:	ea4f 77e5 	mov.w	r7, r5, asr #31
 8006ba4:	bf18      	it	ne
 8006ba6:	ea80 0507 	eorne.w	r5, r0, r7
 8006baa:	fa05 f50b 	lsl.w	r5, r5, fp
 8006bae:	f8c3 5720 	str.w	r5, [r3, #1824]	; 0x720
 8006bb2:	f8c3 5700 	str.w	r5, [r3, #1792]	; 0x700
 8006bb6:	f8d3 5800 	ldr.w	r5, [r3, #2048]	; 0x800
 8006bba:	fa45 f601 	asr.w	r6, r5, r1
 8006bbe:	ebb6 7fe5 	cmp.w	r6, r5, asr #31
 8006bc2:	ea4f 77e5 	mov.w	r7, r5, asr #31
 8006bc6:	bf18      	it	ne
 8006bc8:	ea80 0507 	eorne.w	r5, r0, r7
 8006bcc:	fa05 f50b 	lsl.w	r5, r5, fp
 8006bd0:	f8c3 5820 	str.w	r5, [r3, #2080]	; 0x820
 8006bd4:	f8c3 5800 	str.w	r5, [r3, #2048]	; 0x800
 8006bd8:	f8d3 5900 	ldr.w	r5, [r3, #2304]	; 0x900
 8006bdc:	fa45 f601 	asr.w	r6, r5, r1
 8006be0:	ebb6 7fe5 	cmp.w	r6, r5, asr #31
 8006be4:	ea4f 77e5 	mov.w	r7, r5, asr #31
 8006be8:	bf18      	it	ne
 8006bea:	ea80 0507 	eorne.w	r5, r0, r7
 8006bee:	fa05 f50b 	lsl.w	r5, r5, fp
 8006bf2:	f8c3 5920 	str.w	r5, [r3, #2336]	; 0x920
 8006bf6:	f8c3 5900 	str.w	r5, [r3, #2304]	; 0x900
 8006bfa:	f8d3 5a00 	ldr.w	r5, [r3, #2560]	; 0xa00
 8006bfe:	fa45 f601 	asr.w	r6, r5, r1
 8006c02:	ebb6 7fe5 	cmp.w	r6, r5, asr #31
 8006c06:	ea4f 77e5 	mov.w	r7, r5, asr #31
 8006c0a:	bf18      	it	ne
 8006c0c:	ea80 0507 	eorne.w	r5, r0, r7
 8006c10:	fa05 f50b 	lsl.w	r5, r5, fp
 8006c14:	f8c3 5a20 	str.w	r5, [r3, #2592]	; 0xa20
 8006c18:	f8c3 5a00 	str.w	r5, [r3, #2560]	; 0xa00
 8006c1c:	f8d3 5b00 	ldr.w	r5, [r3, #2816]	; 0xb00
 8006c20:	fa45 f601 	asr.w	r6, r5, r1
 8006c24:	ebb6 7fe5 	cmp.w	r6, r5, asr #31
 8006c28:	ea4f 77e5 	mov.w	r7, r5, asr #31
 8006c2c:	bf18      	it	ne
 8006c2e:	ea80 0507 	eorne.w	r5, r0, r7
 8006c32:	fa05 f50b 	lsl.w	r5, r5, fp
 8006c36:	f8c3 5b20 	str.w	r5, [r3, #2848]	; 0xb20
 8006c3a:	f8c3 5b00 	str.w	r5, [r3, #2816]	; 0xb00
 8006c3e:	f8d3 5c00 	ldr.w	r5, [r3, #3072]	; 0xc00
 8006c42:	fa45 f601 	asr.w	r6, r5, r1
 8006c46:	ebb6 7fe5 	cmp.w	r6, r5, asr #31
 8006c4a:	ea4f 77e5 	mov.w	r7, r5, asr #31
 8006c4e:	bf18      	it	ne
 8006c50:	ea80 0507 	eorne.w	r5, r0, r7
 8006c54:	fa05 f50b 	lsl.w	r5, r5, fp
 8006c58:	f8c3 5c20 	str.w	r5, [r3, #3104]	; 0xc20
 8006c5c:	f8c3 5c00 	str.w	r5, [r3, #3072]	; 0xc00
 8006c60:	f8d3 5d00 	ldr.w	r5, [r3, #3328]	; 0xd00
 8006c64:	fa45 f601 	asr.w	r6, r5, r1
 8006c68:	ebb6 7fe5 	cmp.w	r6, r5, asr #31
 8006c6c:	ea4f 77e5 	mov.w	r7, r5, asr #31
 8006c70:	bf18      	it	ne
 8006c72:	ea80 0507 	eorne.w	r5, r0, r7
 8006c76:	fa05 f50b 	lsl.w	r5, r5, fp
 8006c7a:	f8c3 5d20 	str.w	r5, [r3, #3360]	; 0xd20
 8006c7e:	f8c3 5d00 	str.w	r5, [r3, #3328]	; 0xd00
 8006c82:	f8d3 5e00 	ldr.w	r5, [r3, #3584]	; 0xe00
 8006c86:	fa45 f601 	asr.w	r6, r5, r1
 8006c8a:	ebb6 7fe5 	cmp.w	r6, r5, asr #31
 8006c8e:	ea4f 77e5 	mov.w	r7, r5, asr #31
 8006c92:	bf18      	it	ne
 8006c94:	ea80 0507 	eorne.w	r5, r0, r7
 8006c98:	fa05 f50b 	lsl.w	r5, r5, fp
 8006c9c:	f8c3 5e20 	str.w	r5, [r3, #3616]	; 0xe20
 8006ca0:	f8c3 5e00 	str.w	r5, [r3, #3584]	; 0xe00
 8006ca4:	f8d3 5f00 	ldr.w	r5, [r3, #3840]	; 0xf00
 8006ca8:	fa45 f601 	asr.w	r6, r5, r1
 8006cac:	ebb6 7fe5 	cmp.w	r6, r5, asr #31
 8006cb0:	ea4f 77e5 	mov.w	r7, r5, asr #31
 8006cb4:	bf18      	it	ne
 8006cb6:	ea80 0507 	eorne.w	r5, r0, r7
 8006cba:	fa05 f50b 	lsl.w	r5, r5, fp
 8006cbe:	f8c3 5f20 	str.w	r5, [r3, #3872]	; 0xf20
 8006cc2:	f8c3 5f00 	str.w	r5, [r3, #3840]	; 0xf00
 8006cc6:	9b00      	ldr	r3, [sp, #0]
 8006cc8:	591b      	ldr	r3, [r3, r4]
 8006cca:	fa43 f501 	asr.w	r5, r3, r1
 8006cce:	ebb5 7fe3 	cmp.w	r5, r3, asr #31
 8006cd2:	ea4f 76e3 	mov.w	r6, r3, asr #31
 8006cd6:	9d00      	ldr	r5, [sp, #0]
 8006cd8:	bf18      	it	ne
 8006cda:	ea80 0306 	eorne.w	r3, r0, r6
 8006cde:	fa03 f30b 	lsl.w	r3, r3, fp
 8006ce2:	6213      	str	r3, [r2, #32]
 8006ce4:	512b      	str	r3, [r5, r4]
 8006ce6:	f8d2 3100 	ldr.w	r3, [r2, #256]	; 0x100
 8006cea:	fa43 f401 	asr.w	r4, r3, r1
 8006cee:	ebb4 7fe3 	cmp.w	r4, r3, asr #31
 8006cf2:	ea4f 75e3 	mov.w	r5, r3, asr #31
 8006cf6:	bf18      	it	ne
 8006cf8:	ea80 0305 	eorne.w	r3, r0, r5
 8006cfc:	fa03 f30b 	lsl.w	r3, r3, fp
 8006d00:	f8c2 3120 	str.w	r3, [r2, #288]	; 0x120
 8006d04:	f8c2 3100 	str.w	r3, [r2, #256]	; 0x100
 8006d08:	f8d2 3200 	ldr.w	r3, [r2, #512]	; 0x200
 8006d0c:	fa43 f401 	asr.w	r4, r3, r1
 8006d10:	ebb4 7fe3 	cmp.w	r4, r3, asr #31
 8006d14:	ea4f 75e3 	mov.w	r5, r3, asr #31
 8006d18:	bf18      	it	ne
 8006d1a:	ea85 0300 	eorne.w	r3, r5, r0
 8006d1e:	fa03 f30b 	lsl.w	r3, r3, fp
 8006d22:	f8c2 3220 	str.w	r3, [r2, #544]	; 0x220
 8006d26:	f8c2 3200 	str.w	r3, [r2, #512]	; 0x200
 8006d2a:	f8d2 3300 	ldr.w	r3, [r2, #768]	; 0x300
 8006d2e:	fa43 f401 	asr.w	r4, r3, r1
 8006d32:	ebb4 7fe3 	cmp.w	r4, r3, asr #31
 8006d36:	ea4f 75e3 	mov.w	r5, r3, asr #31
 8006d3a:	bf18      	it	ne
 8006d3c:	ea80 0305 	eorne.w	r3, r0, r5
 8006d40:	fa03 f30b 	lsl.w	r3, r3, fp
 8006d44:	f8c2 3320 	str.w	r3, [r2, #800]	; 0x320
 8006d48:	f8c2 3300 	str.w	r3, [r2, #768]	; 0x300
 8006d4c:	f8d2 3400 	ldr.w	r3, [r2, #1024]	; 0x400
 8006d50:	fa43 f401 	asr.w	r4, r3, r1
 8006d54:	ebb4 7fe3 	cmp.w	r4, r3, asr #31
 8006d58:	ea4f 75e3 	mov.w	r5, r3, asr #31
 8006d5c:	bf18      	it	ne
 8006d5e:	ea80 0305 	eorne.w	r3, r0, r5
 8006d62:	fa03 f30b 	lsl.w	r3, r3, fp
 8006d66:	f8c2 3420 	str.w	r3, [r2, #1056]	; 0x420
 8006d6a:	f8c2 3400 	str.w	r3, [r2, #1024]	; 0x400
 8006d6e:	f8d2 3500 	ldr.w	r3, [r2, #1280]	; 0x500
 8006d72:	fa43 f401 	asr.w	r4, r3, r1
 8006d76:	ebb4 7fe3 	cmp.w	r4, r3, asr #31
 8006d7a:	ea4f 75e3 	mov.w	r5, r3, asr #31
 8006d7e:	bf18      	it	ne
 8006d80:	ea80 0305 	eorne.w	r3, r0, r5
 8006d84:	fa03 f30b 	lsl.w	r3, r3, fp
 8006d88:	f8c2 3520 	str.w	r3, [r2, #1312]	; 0x520
 8006d8c:	f8c2 3500 	str.w	r3, [r2, #1280]	; 0x500
 8006d90:	f8d2 3600 	ldr.w	r3, [r2, #1536]	; 0x600
 8006d94:	fa43 f401 	asr.w	r4, r3, r1
 8006d98:	ebb4 7fe3 	cmp.w	r4, r3, asr #31
 8006d9c:	ea4f 75e3 	mov.w	r5, r3, asr #31
 8006da0:	bf18      	it	ne
 8006da2:	ea80 0305 	eorne.w	r3, r0, r5
 8006da6:	fa03 f30b 	lsl.w	r3, r3, fp
 8006daa:	f8c2 3620 	str.w	r3, [r2, #1568]	; 0x620
 8006dae:	f8c2 3600 	str.w	r3, [r2, #1536]	; 0x600
 8006db2:	f8d2 3700 	ldr.w	r3, [r2, #1792]	; 0x700
 8006db6:	fa43 f401 	asr.w	r4, r3, r1
 8006dba:	ebb4 7fe3 	cmp.w	r4, r3, asr #31
 8006dbe:	ea4f 75e3 	mov.w	r5, r3, asr #31
 8006dc2:	bf18      	it	ne
 8006dc4:	ea80 0305 	eorne.w	r3, r0, r5
 8006dc8:	fa03 f30b 	lsl.w	r3, r3, fp
 8006dcc:	f8c2 3720 	str.w	r3, [r2, #1824]	; 0x720
 8006dd0:	f8c2 3700 	str.w	r3, [r2, #1792]	; 0x700
 8006dd4:	f8d2 3800 	ldr.w	r3, [r2, #2048]	; 0x800
 8006dd8:	fa43 f401 	asr.w	r4, r3, r1
 8006ddc:	ebb4 7fe3 	cmp.w	r4, r3, asr #31
 8006de0:	ea4f 75e3 	mov.w	r5, r3, asr #31
 8006de4:	bf18      	it	ne
 8006de6:	ea80 0305 	eorne.w	r3, r0, r5
 8006dea:	fa03 f30b 	lsl.w	r3, r3, fp
 8006dee:	f8c2 3820 	str.w	r3, [r2, #2080]	; 0x820
 8006df2:	f8c2 3800 	str.w	r3, [r2, #2048]	; 0x800
 8006df6:	f8d2 3900 	ldr.w	r3, [r2, #2304]	; 0x900
 8006dfa:	fa43 f401 	asr.w	r4, r3, r1
 8006dfe:	ebb4 7fe3 	cmp.w	r4, r3, asr #31
 8006e02:	ea4f 75e3 	mov.w	r5, r3, asr #31
 8006e06:	bf18      	it	ne
 8006e08:	ea80 0305 	eorne.w	r3, r0, r5
 8006e0c:	fa03 f30b 	lsl.w	r3, r3, fp
 8006e10:	f8c2 3920 	str.w	r3, [r2, #2336]	; 0x920
 8006e14:	f8c2 3900 	str.w	r3, [r2, #2304]	; 0x900
 8006e18:	f8d2 3a00 	ldr.w	r3, [r2, #2560]	; 0xa00
 8006e1c:	fa43 f401 	asr.w	r4, r3, r1
 8006e20:	ebb4 7fe3 	cmp.w	r4, r3, asr #31
 8006e24:	ea4f 75e3 	mov.w	r5, r3, asr #31
 8006e28:	bf18      	it	ne
 8006e2a:	ea80 0305 	eorne.w	r3, r0, r5
 8006e2e:	fa03 f30b 	lsl.w	r3, r3, fp
 8006e32:	f8c2 3a20 	str.w	r3, [r2, #2592]	; 0xa20
 8006e36:	f8c2 3a00 	str.w	r3, [r2, #2560]	; 0xa00
 8006e3a:	f8d2 3b00 	ldr.w	r3, [r2, #2816]	; 0xb00
 8006e3e:	fa43 f401 	asr.w	r4, r3, r1
 8006e42:	ebb4 7fe3 	cmp.w	r4, r3, asr #31
 8006e46:	ea4f 75e3 	mov.w	r5, r3, asr #31
 8006e4a:	bf18      	it	ne
 8006e4c:	ea80 0305 	eorne.w	r3, r0, r5
 8006e50:	fa03 f30b 	lsl.w	r3, r3, fp
 8006e54:	f8c2 3b20 	str.w	r3, [r2, #2848]	; 0xb20
 8006e58:	f8c2 3b00 	str.w	r3, [r2, #2816]	; 0xb00
 8006e5c:	f8d2 3c00 	ldr.w	r3, [r2, #3072]	; 0xc00
 8006e60:	fa43 f401 	asr.w	r4, r3, r1
 8006e64:	ebb4 7fe3 	cmp.w	r4, r3, asr #31
 8006e68:	ea4f 75e3 	mov.w	r5, r3, asr #31
 8006e6c:	bf18      	it	ne
 8006e6e:	ea85 0300 	eorne.w	r3, r5, r0
 8006e72:	fa03 f30b 	lsl.w	r3, r3, fp
 8006e76:	f8c2 3c20 	str.w	r3, [r2, #3104]	; 0xc20
 8006e7a:	f8c2 3c00 	str.w	r3, [r2, #3072]	; 0xc00
 8006e7e:	f8d2 3d00 	ldr.w	r3, [r2, #3328]	; 0xd00
 8006e82:	fa43 f401 	asr.w	r4, r3, r1
 8006e86:	ebb4 7fe3 	cmp.w	r4, r3, asr #31
 8006e8a:	ea4f 75e3 	mov.w	r5, r3, asr #31
 8006e8e:	bf18      	it	ne
 8006e90:	ea80 0305 	eorne.w	r3, r0, r5
 8006e94:	fa03 f30b 	lsl.w	r3, r3, fp
 8006e98:	f8c2 3d20 	str.w	r3, [r2, #3360]	; 0xd20
 8006e9c:	f8c2 3d00 	str.w	r3, [r2, #3328]	; 0xd00
 8006ea0:	f8d2 3e00 	ldr.w	r3, [r2, #3584]	; 0xe00
 8006ea4:	fa43 f401 	asr.w	r4, r3, r1
 8006ea8:	ebb4 7fe3 	cmp.w	r4, r3, asr #31
 8006eac:	ea4f 75e3 	mov.w	r5, r3, asr #31
 8006eb0:	bf18      	it	ne
 8006eb2:	ea80 0305 	eorne.w	r3, r0, r5
 8006eb6:	fa03 f30b 	lsl.w	r3, r3, fp
 8006eba:	f8c2 3e20 	str.w	r3, [r2, #3616]	; 0xe20
 8006ebe:	f8c2 3e00 	str.w	r3, [r2, #3584]	; 0xe00
 8006ec2:	f8d2 3f00 	ldr.w	r3, [r2, #3840]	; 0xf00
 8006ec6:	fa43 f101 	asr.w	r1, r3, r1
 8006eca:	17dc      	asrs	r4, r3, #31
 8006ecc:	ebb1 7fe3 	cmp.w	r1, r3, asr #31
 8006ed0:	bf18      	it	ne
 8006ed2:	ea80 0304 	eorne.w	r3, r0, r4
 8006ed6:	fa03 f30b 	lsl.w	r3, r3, fp
 8006eda:	f8c2 3f20 	str.w	r3, [r2, #3872]	; 0xf20
 8006ede:	f8c2 3f00 	str.w	r3, [r2, #3840]	; 0xf00
 8006ee2:	b007      	add	sp, #28
 8006ee4:	e8bd 8ff0 	ldmia.w	sp!, {r4, r5, r6, r7, r8, r9, sl, fp, pc}
 8006ee8:	9b02      	ldr	r3, [sp, #8]
 8006eea:	9d00      	ldr	r5, [sp, #0]
 8006eec:	6804      	ldr	r4, [r0, #0]
 8006eee:	0099      	lsls	r1, r3, #2
 8006ef0:	f502 5388 	add.w	r3, r2, #4352	; 0x1100
 8006ef4:	18ee      	adds	r6, r5, r3
 8006ef6:	6234      	str	r4, [r6, #32]
 8006ef8:	50ec      	str	r4, [r5, r3]
 8006efa:	f44f 5488 	mov.w	r4, #4352	; 0x1100
 8006efe:	e4e7      	b.n	80068d0 <xmp3_FDCT32+0x3d0>
 8006f00:	f04f 0b00 	mov.w	fp, #0
 8006f04:	f7ff bb12 	b.w	800652c <xmp3_FDCT32+0x2c>

08006f08 <xmp3_Dequantize>:
 8006f08:	2800      	cmp	r0, #0
 8006f0a:	f000 819b 	beq.w	8007244 <xmp3_Dequantize+0x33c>
 8006f0e:	e92d 4ff0 	stmdb	sp!, {r4, r5, r6, r7, r8, r9, sl, fp, lr}
 8006f12:	6807      	ldr	r7, [r0, #0]
 8006f14:	b08f      	sub	sp, #60	; 0x3c
 8006f16:	4604      	mov	r4, r0
 8006f18:	2f00      	cmp	r7, #0
 8006f1a:	f000 8190 	beq.w	800723e <xmp3_Dequantize+0x336>
 8006f1e:	6843      	ldr	r3, [r0, #4]
 8006f20:	9306      	str	r3, [sp, #24]
 8006f22:	2b00      	cmp	r3, #0
 8006f24:	f000 818b 	beq.w	800723e <xmp3_Dequantize+0x336>
 8006f28:	f8d0 a008 	ldr.w	sl, [r0, #8]
 8006f2c:	f1ba 0f00 	cmp.w	sl, #0
 8006f30:	f000 8185 	beq.w	800723e <xmp3_Dequantize+0x336>
 8006f34:	68c6      	ldr	r6, [r0, #12]
 8006f36:	2e00      	cmp	r6, #0
 8006f38:	f000 8181 	beq.w	800723e <xmp3_Dequantize+0x336>
 8006f3c:	460d      	mov	r5, r1
 8006f3e:	6901      	ldr	r1, [r0, #16]
 8006f40:	2900      	cmp	r1, #0
 8006f42:	f000 817c 	beq.w	800723e <xmp3_Dequantize+0x336>
 8006f46:	f8d0 37bc 	ldr.w	r3, [r0, #1980]	; 0x7bc
 8006f4a:	f501 7246 	add.w	r2, r1, #792	; 0x318
 8006f4e:	f04f 0800 	mov.w	r8, #0
 8006f52:	f04f 0900 	mov.w	r9, #0
 8006f56:	2b00      	cmp	r3, #0
 8006f58:	e9cd 890c 	strd	r8, r9, [sp, #48]	; 0x30
 8006f5c:	9207      	str	r2, [sp, #28]
 8006f5e:	f340 8090 	ble.w	8007082 <xmp3_Dequantize+0x17a>
 8006f62:	eb05 09c5 	add.w	r9, r5, r5, lsl #3
 8006f66:	9202      	str	r2, [sp, #8]
 8006f68:	ea4f 1909 	mov.w	r9, r9, lsl #4
 8006f6c:	9a06      	ldr	r2, [sp, #24]
 8006f6e:	9109      	str	r1, [sp, #36]	; 0x24
 8006f70:	f109 0328 	add.w	r3, r9, #40	; 0x28
 8006f74:	ebc5 1b45 	rsb	fp, r5, r5, lsl #5
 8006f78:	4413      	add	r3, r2
 8006f7a:	9300      	str	r3, [sp, #0]
 8006f7c:	eb0a 038b 	add.w	r3, sl, fp, lsl #2
 8006f80:	9301      	str	r3, [sp, #4]
 8006f82:	ea4f 038b 	mov.w	r3, fp, lsl #2
 8006f86:	f506 5b90 	add.w	fp, r6, #4608	; 0x1200
 8006f8a:	9308      	str	r3, [sp, #32]
 8006f8c:	465a      	mov	r2, fp
 8006f8e:	463b      	mov	r3, r7
 8006f90:	4630      	mov	r0, r6
 8006f92:	f000 fa53 	bl	800743c <xmp3_DequantChannel>
 8006f96:	f8d4 37bc 	ldr.w	r3, [r4, #1980]	; 0x7bc
 8006f9a:	9909      	ldr	r1, [sp, #36]	; 0x24
 8006f9c:	f506 5880 	add.w	r8, r6, #4096	; 0x1000
 8006fa0:	2b01      	cmp	r3, #1
 8006fa2:	f8c8 0208 	str.w	r0, [r8, #520]	; 0x208
 8006fa6:	dd6c      	ble.n	8007082 <xmp3_Dequantize+0x17a>
 8006fa8:	9b08      	ldr	r3, [sp, #32]
 8006faa:	9a06      	ldr	r2, [sp, #24]
 8006fac:	333e      	adds	r3, #62	; 0x3e
 8006fae:	4453      	add	r3, sl
 8006fb0:	9301      	str	r3, [sp, #4]
 8006fb2:	f109 0370 	add.w	r3, r9, #112	; 0x70
 8006fb6:	4413      	add	r3, r2
 8006fb8:	9300      	str	r3, [sp, #0]
 8006fba:	465a      	mov	r2, fp
 8006fbc:	f501 734c 	add.w	r3, r1, #816	; 0x330
 8006fc0:	9302      	str	r3, [sp, #8]
 8006fc2:	3204      	adds	r2, #4
 8006fc4:	463b      	mov	r3, r7
 8006fc6:	f506 6010 	add.w	r0, r6, #2304	; 0x900
 8006fca:	f000 fa37 	bl	800743c <xmp3_DequantChannel>
 8006fce:	f8d4 37bc 	ldr.w	r3, [r4, #1980]	; 0x7bc
 8006fd2:	9909      	ldr	r1, [sp, #36]	; 0x24
 8006fd4:	f8c8 020c 	str.w	r0, [r8, #524]	; 0x20c
 8006fd8:	2b02      	cmp	r3, #2
 8006fda:	dd52      	ble.n	8007082 <xmp3_Dequantize+0x17a>
 8006fdc:	9b08      	ldr	r3, [sp, #32]
 8006fde:	9a06      	ldr	r2, [sp, #24]
 8006fe0:	337c      	adds	r3, #124	; 0x7c
 8006fe2:	4453      	add	r3, sl
 8006fe4:	9301      	str	r3, [sp, #4]
 8006fe6:	f109 03b8 	add.w	r3, r9, #184	; 0xb8
 8006fea:	4413      	add	r3, r2
 8006fec:	9300      	str	r3, [sp, #0]
 8006fee:	465a      	mov	r2, fp
 8006ff0:	f501 7352 	add.w	r3, r1, #840	; 0x348
 8006ff4:	9302      	str	r3, [sp, #8]
 8006ff6:	4658      	mov	r0, fp
 8006ff8:	463b      	mov	r3, r7
 8006ffa:	3208      	adds	r2, #8
 8006ffc:	f000 fa1e 	bl	800743c <xmp3_DequantChannel>
 8007000:	f8d4 37bc 	ldr.w	r3, [r4, #1980]	; 0x7bc
 8007004:	9909      	ldr	r1, [sp, #36]	; 0x24
 8007006:	f8c8 0210 	str.w	r0, [r8, #528]	; 0x210
 800700a:	2b03      	cmp	r3, #3
 800700c:	dd39      	ble.n	8007082 <xmp3_Dequantize+0x17a>
 800700e:	9b08      	ldr	r3, [sp, #32]
 8007010:	9a06      	ldr	r2, [sp, #24]
 8007012:	950b      	str	r5, [sp, #44]	; 0x2c
 8007014:	f103 08ba 	add.w	r8, r3, #186	; 0xba
 8007018:	f509 7980 	add.w	r9, r9, #256	; 0x100
 800701c:	eb02 0309 	add.w	r3, r2, r9
 8007020:	eb0a 0208 	add.w	r2, sl, r8
 8007024:	9208      	str	r2, [sp, #32]
 8007026:	f501 7258 	add.w	r2, r1, #864	; 0x360
 800702a:	e9cd a609 	strd	sl, r6, [sp, #36]	; 0x24
 800702e:	f10b 0914 	add.w	r9, fp, #20
 8007032:	4625      	mov	r5, r4
 8007034:	f506 5bd8 	add.w	fp, r6, #6912	; 0x1b00
 8007038:	f04f 0803 	mov.w	r8, #3
 800703c:	468a      	mov	sl, r1
 800703e:	461e      	mov	r6, r3
 8007040:	4614      	mov	r4, r2
 8007042:	9b08      	ldr	r3, [sp, #32]
 8007044:	9402      	str	r4, [sp, #8]
 8007046:	e9cd 6300 	strd	r6, r3, [sp]
 800704a:	333e      	adds	r3, #62	; 0x3e
 800704c:	f1a9 0208 	sub.w	r2, r9, #8
 8007050:	9308      	str	r3, [sp, #32]
 8007052:	4658      	mov	r0, fp
 8007054:	463b      	mov	r3, r7
 8007056:	4651      	mov	r1, sl
 8007058:	f000 f9f0 	bl	800743c <xmp3_DequantChannel>
 800705c:	f849 0b04 	str.w	r0, [r9], #4
 8007060:	f8d5 27bc 	ldr.w	r2, [r5, #1980]	; 0x7bc
 8007064:	f108 0801 	add.w	r8, r8, #1
 8007068:	4542      	cmp	r2, r8
 800706a:	f106 0648 	add.w	r6, r6, #72	; 0x48
 800706e:	f104 0418 	add.w	r4, r4, #24
 8007072:	f50b 6b10 	add.w	fp, fp, #2304	; 0x900
 8007076:	dce4      	bgt.n	8007042 <xmp3_Dequantize+0x13a>
 8007078:	4651      	mov	r1, sl
 800707a:	9e0a      	ldr	r6, [sp, #40]	; 0x28
 800707c:	f8dd a024 	ldr.w	sl, [sp, #36]	; 0x24
 8007080:	9d0b      	ldr	r5, [sp, #44]	; 0x2c
 8007082:	6a38      	ldr	r0, [r7, #32]
 8007084:	2800      	cmp	r0, #0
 8007086:	d069      	beq.n	800715c <xmp3_Dequantize+0x254>
 8007088:	f506 5480 	add.w	r4, r6, #4096	; 0x1000
 800708c:	f8d4 3208 	ldr.w	r3, [r4, #520]	; 0x208
 8007090:	2b00      	cmp	r3, #0
 8007092:	dd66      	ble.n	8007162 <xmp3_Dequantize+0x25a>
 8007094:	f8d4 320c 	ldr.w	r3, [r4, #524]	; 0x20c
 8007098:	2b00      	cmp	r3, #0
 800709a:	dd62      	ble.n	8007162 <xmp3_Dequantize+0x25a>
 800709c:	0843      	lsrs	r3, r0, #1
 800709e:	f000 80d4 	beq.w	800724a <xmp3_Dequantize+0x342>
 80070a2:	07c2      	lsls	r2, r0, #31
 80070a4:	d50b      	bpl.n	80070be <xmp3_Dequantize+0x1b6>
 80070a6:	f8d1 3330 	ldr.w	r3, [r1, #816]	; 0x330
 80070aa:	2b00      	cmp	r3, #0
 80070ac:	f040 80af 	bne.w	800720e <xmp3_Dequantize+0x306>
 80070b0:	f8d1 3344 	ldr.w	r3, [r1, #836]	; 0x344
 80070b4:	6b7a      	ldr	r2, [r7, #52]	; 0x34
 80070b6:	3301      	adds	r3, #1
 80070b8:	f932 1013 	ldrsh.w	r1, [r2, r3, lsl #1]
 80070bc:	e004      	b.n	80070c8 <xmp3_Dequantize+0x1c0>
 80070be:	e9d4 3180 	ldrd	r3, r1, [r4, #512]	; 0x200
 80070c2:	4299      	cmp	r1, r3
 80070c4:	bfb8      	it	lt
 80070c6:	4619      	movlt	r1, r3
 80070c8:	f10d 0830 	add.w	r8, sp, #48	; 0x30
 80070cc:	4630      	mov	r0, r6
 80070ce:	4642      	mov	r2, r8
 80070d0:	f004 f938 	bl	800b344 <xmp3_MidSideProc>
 80070d4:	6a38      	ldr	r0, [r7, #32]
 80070d6:	07c3      	lsls	r3, r0, #31
 80070d8:	d51d      	bpl.n	8007116 <xmp3_Dequantize+0x20e>
 80070da:	783b      	ldrb	r3, [r7, #0]
 80070dc:	f8d4 1200 	ldr.w	r1, [r4, #512]	; 0x200
 80070e0:	2b00      	cmp	r3, #0
 80070e2:	d178      	bne.n	80071d6 <xmp3_Dequantize+0x2ce>
 80070e4:	9b06      	ldr	r3, [sp, #24]
 80070e6:	f8cd 800c 	str.w	r8, [sp, #12]
 80070ea:	eb05 02c5 	add.w	r2, r5, r5, lsl #3
 80070ee:	eb03 1202 	add.w	r2, r3, r2, lsl #4
 80070f2:	ea4f 0c60 	mov.w	ip, r0, asr #1
 80070f6:	f8d2 2088 	ldr.w	r2, [r2, #136]	; 0x88
 80070fa:	ebc5 1545 	rsb	r5, r5, r5, lsl #5
 80070fe:	e9cd c201 	strd	ip, r2, [sp, #4]
 8007102:	eb0a 0385 	add.w	r3, sl, r5, lsl #2
 8007106:	9a07      	ldr	r2, [sp, #28]
 8007108:	9200      	str	r2, [sp, #0]
 800710a:	4630      	mov	r0, r6
 800710c:	333e      	adds	r3, #62	; 0x3e
 800710e:	463a      	mov	r2, r7
 8007110:	f004 f94c 	bl	800b3ac <xmp3_IntensityProcMPEG1>
 8007114:	6a38      	ldr	r0, [r7, #32]
 8007116:	b308      	cbz	r0, 800715c <xmp3_Dequantize+0x254>
 8007118:	9b0c      	ldr	r3, [sp, #48]	; 0x30
 800711a:	2b00      	cmp	r3, #0
 800711c:	f000 8081 	beq.w	8007222 <xmp3_Dequantize+0x31a>
 8007120:	f2c0 8087 	blt.w	8007232 <xmp3_Dequantize+0x32a>
 8007124:	2200      	movs	r2, #0
 8007126:	005b      	lsls	r3, r3, #1
 8007128:	4611      	mov	r1, r2
 800712a:	f102 0201 	add.w	r2, r2, #1
 800712e:	d5fa      	bpl.n	8007126 <xmp3_Dequantize+0x21e>
 8007130:	9b0d      	ldr	r3, [sp, #52]	; 0x34
 8007132:	f8c4 1208 	str.w	r1, [r4, #520]	; 0x208
 8007136:	2b00      	cmp	r3, #0
 8007138:	d079      	beq.n	800722e <xmp3_Dequantize+0x326>
 800713a:	db7d      	blt.n	8007238 <xmp3_Dequantize+0x330>
 800713c:	2200      	movs	r2, #0
 800713e:	005b      	lsls	r3, r3, #1
 8007140:	4611      	mov	r1, r2
 8007142:	f102 0201 	add.w	r2, r2, #1
 8007146:	d5fa      	bpl.n	800713e <xmp3_Dequantize+0x236>
 8007148:	e9d4 2380 	ldrd	r2, r3, [r4, #512]	; 0x200
 800714c:	4293      	cmp	r3, r2
 800714e:	bfb8      	it	lt
 8007150:	4613      	movlt	r3, r2
 8007152:	e9c4 3380 	strd	r3, r3, [r4, #512]	; 0x200
 8007156:	f8c4 120c 	str.w	r1, [r4, #524]	; 0x20c
 800715a:	2000      	movs	r0, #0
 800715c:	b00f      	add	sp, #60	; 0x3c
 800715e:	e8bd 8ff0 	ldmia.w	sp!, {r4, r5, r6, r7, r8, r9, sl, fp, pc}
 8007162:	f8d4 2200 	ldr.w	r2, [r4, #512]	; 0x200
 8007166:	2a00      	cmp	r2, #0
 8007168:	dd17      	ble.n	800719a <xmp3_Dequantize+0x292>
 800716a:	1f33      	subs	r3, r6, #4
 800716c:	f8df 80e4 	ldr.w	r8, [pc, #228]	; 8007254 <xmp3_Dequantize+0x34c>
 8007170:	eb03 0c82 	add.w	ip, r3, r2, lsl #2
 8007174:	f06f 4e40 	mvn.w	lr, #3221225472	; 0xc0000000
 8007178:	e003      	b.n	8007182 <xmp3_Dequantize+0x27a>
 800717a:	4563      	cmp	r3, ip
 800717c:	f8c3 8000 	str.w	r8, [r3]
 8007180:	d00b      	beq.n	800719a <xmp3_Dequantize+0x292>
 8007182:	f853 2f04 	ldr.w	r2, [r3, #4]!
 8007186:	f1b2 4f40 	cmp.w	r2, #3221225472	; 0xc0000000
 800718a:	ddf6      	ble.n	800717a <xmp3_Dequantize+0x272>
 800718c:	f1b2 4f80 	cmp.w	r2, #1073741824	; 0x40000000
 8007190:	bfa8      	it	ge
 8007192:	f8c3 e000 	strge.w	lr, [r3]
 8007196:	4563      	cmp	r3, ip
 8007198:	d1f3      	bne.n	8007182 <xmp3_Dequantize+0x27a>
 800719a:	f8d4 2204 	ldr.w	r2, [r4, #516]	; 0x204
 800719e:	2a00      	cmp	r2, #0
 80071a0:	f77f af7c 	ble.w	800709c <xmp3_Dequantize+0x194>
 80071a4:	f606 03fc 	addw	r3, r6, #2300	; 0x8fc
 80071a8:	f8df 80a8 	ldr.w	r8, [pc, #168]	; 8007254 <xmp3_Dequantize+0x34c>
 80071ac:	eb03 0c82 	add.w	ip, r3, r2, lsl #2
 80071b0:	f06f 4e40 	mvn.w	lr, #3221225472	; 0xc0000000
 80071b4:	e004      	b.n	80071c0 <xmp3_Dequantize+0x2b8>
 80071b6:	f8c3 8000 	str.w	r8, [r3]
 80071ba:	459c      	cmp	ip, r3
 80071bc:	f43f af6e 	beq.w	800709c <xmp3_Dequantize+0x194>
 80071c0:	f853 2f04 	ldr.w	r2, [r3, #4]!
 80071c4:	f1b2 4f40 	cmp.w	r2, #3221225472	; 0xc0000000
 80071c8:	ddf5      	ble.n	80071b6 <xmp3_Dequantize+0x2ae>
 80071ca:	f1b2 4f80 	cmp.w	r2, #1073741824	; 0x40000000
 80071ce:	bfa8      	it	ge
 80071d0:	f8c3 e000 	strge.w	lr, [r3]
 80071d4:	e7f1      	b.n	80071ba <xmp3_Dequantize+0x2b2>
 80071d6:	1042      	asrs	r2, r0, #1
 80071d8:	4630      	mov	r0, r6
 80071da:	9e06      	ldr	r6, [sp, #24]
 80071dc:	f8cd 8010 	str.w	r8, [sp, #16]
 80071e0:	eb05 03c5 	add.w	r3, r5, r5, lsl #3
 80071e4:	eb06 1303 	add.w	r3, r6, r3, lsl #4
 80071e8:	ebc5 1545 	rsb	r5, r5, r5, lsl #5
 80071ec:	f8d3 3088 	ldr.w	r3, [r3, #136]	; 0x88
 80071f0:	e9cd 2302 	strd	r2, r3, [sp, #8]
 80071f4:	9b07      	ldr	r3, [sp, #28]
 80071f6:	9300      	str	r3, [sp, #0]
 80071f8:	f10a 02f8 	add.w	r2, sl, #248	; 0xf8
 80071fc:	eb0a 0385 	add.w	r3, sl, r5, lsl #2
 8007200:	9201      	str	r2, [sp, #4]
 8007202:	333e      	adds	r3, #62	; 0x3e
 8007204:	463a      	mov	r2, r7
 8007206:	f004 fa6d 	bl	800b6e4 <xmp3_IntensityProcMPEG2>
 800720a:	6a38      	ldr	r0, [r7, #32]
 800720c:	e783      	b.n	8007116 <xmp3_Dequantize+0x20e>
 800720e:	f8d1 2340 	ldr.w	r2, [r1, #832]	; 0x340
 8007212:	6b7b      	ldr	r3, [r7, #52]	; 0x34
 8007214:	eb03 0342 	add.w	r3, r3, r2, lsl #1
 8007218:	f9b3 1030 	ldrsh.w	r1, [r3, #48]	; 0x30
 800721c:	eb01 0141 	add.w	r1, r1, r1, lsl #1
 8007220:	e752      	b.n	80070c8 <xmp3_Dequantize+0x1c0>
 8007222:	9b0d      	ldr	r3, [sp, #52]	; 0x34
 8007224:	211f      	movs	r1, #31
 8007226:	2b00      	cmp	r3, #0
 8007228:	f8c4 1208 	str.w	r1, [r4, #520]	; 0x208
 800722c:	d185      	bne.n	800713a <xmp3_Dequantize+0x232>
 800722e:	211f      	movs	r1, #31
 8007230:	e78a      	b.n	8007148 <xmp3_Dequantize+0x240>
 8007232:	f04f 31ff 	mov.w	r1, #4294967295
 8007236:	e77b      	b.n	8007130 <xmp3_Dequantize+0x228>
 8007238:	f04f 31ff 	mov.w	r1, #4294967295
 800723c:	e784      	b.n	8007148 <xmp3_Dequantize+0x240>
 800723e:	f04f 30ff 	mov.w	r0, #4294967295
 8007242:	e78b      	b.n	800715c <xmp3_Dequantize+0x254>
 8007244:	f04f 30ff 	mov.w	r0, #4294967295
 8007248:	4770      	bx	lr
 800724a:	2001      	movs	r0, #1
 800724c:	f10d 0830 	add.w	r8, sp, #48	; 0x30
 8007250:	e743      	b.n	80070da <xmp3_Dequantize+0x1d2>
 8007252:	bf00      	nop
 8007254:	c0000001 	.word	0xc0000001

08007258 <DequantBlock>:
 8007258:	e92d 4ff0 	stmdb	sp!, {r4, r5, r6, r7, r8, r9, sl, fp, lr}
 800725c:	ea4f 08a3 	mov.w	r8, r3, asr #2
 8007260:	f003 0403 	and.w	r4, r3, #3
 8007264:	4b65      	ldr	r3, [pc, #404]	; (80073fc <DequantBlock+0x1a4>)
 8007266:	eb03 1984 	add.w	r9, r3, r4, lsl #6
 800726a:	4643      	mov	r3, r8
 800726c:	2b1c      	cmp	r3, #28
 800726e:	4686      	mov	lr, r0
 8007270:	4863      	ldr	r0, [pc, #396]	; (8007400 <DequantBlock+0x1a8>)
 8007272:	bfa8      	it	ge
 8007274:	231c      	movge	r3, #28
 8007276:	f850 a024 	ldr.w	sl, [r0, r4, lsl #2]
 800727a:	f8d9 0004 	ldr.w	r0, [r9, #4]
 800727e:	3303      	adds	r3, #3
 8007280:	b089      	sub	sp, #36	; 0x24
 8007282:	ea23 73e3 	bic.w	r3, r3, r3, asr #31
 8007286:	4118      	asrs	r0, r3
 8007288:	9005      	str	r0, [sp, #20]
 800728a:	f8d9 0008 	ldr.w	r0, [r9, #8]
 800728e:	4118      	asrs	r0, r3
 8007290:	9006      	str	r0, [sp, #24]
 8007292:	f8d9 000c 	ldr.w	r0, [r9, #12]
 8007296:	f1b8 0f1f 	cmp.w	r8, #31
 800729a:	46c3      	mov	fp, r8
 800729c:	fa40 f303 	asr.w	r3, r0, r3
 80072a0:	bfa8      	it	ge
 80072a2:	f04f 0b1f 	movge.w	fp, #31
 80072a6:	9307      	str	r3, [sp, #28]
 80072a8:	2000      	movs	r0, #0
 80072aa:	465b      	mov	r3, fp
 80072ac:	9004      	str	r0, [sp, #16]
 80072ae:	46c3      	mov	fp, r8
 80072b0:	46c8      	mov	r8, r9
 80072b2:	46d1      	mov	r9, sl
 80072b4:	469a      	mov	sl, r3
 80072b6:	e00e      	b.n	80072d6 <DequantBlock+0x7e>
 80072b8:	ac08      	add	r4, sp, #32
 80072ba:	eb04 0585 	add.w	r5, r4, r5, lsl #2
 80072be:	f855 4c10 	ldr.w	r4, [r5, #-16]
 80072c2:	2b00      	cmp	r3, #0
 80072c4:	ea40 0004 	orr.w	r0, r0, r4
 80072c8:	bfb8      	it	lt
 80072ca:	4264      	neglt	r4, r4
 80072cc:	3a01      	subs	r2, #1
 80072ce:	f841 4b04 	str.w	r4, [r1], #4
 80072d2:	f000 808c 	beq.w	80073ee <DequantBlock+0x196>
 80072d6:	f85e 3b04 	ldr.w	r3, [lr], #4
 80072da:	f023 4400 	bic.w	r4, r3, #2147483648	; 0x80000000
 80072de:	f024 0403 	bic.w	r4, r4, #3
 80072e2:	f023 4500 	bic.w	r5, r3, #2147483648	; 0x80000000
 80072e6:	2c00      	cmp	r4, #0
 80072e8:	d0e6      	beq.n	80072b8 <DequantBlock+0x60>
 80072ea:	f023 4400 	bic.w	r4, r3, #2147483648	; 0x80000000
 80072ee:	f024 040f 	bic.w	r4, r4, #15
 80072f2:	b954      	cbnz	r4, 800730a <DequantBlock+0xb2>
 80072f4:	f858 4025 	ldr.w	r4, [r8, r5, lsl #2]
 80072f8:	f1bb 0f00 	cmp.w	fp, #0
 80072fc:	bfba      	itte	lt
 80072fe:	f1ca 0500 	rsblt	r5, sl, #0
 8007302:	40ac      	lsllt	r4, r5
 8007304:	fa44 f40a 	asrge.w	r4, r4, sl
 8007308:	e7db      	b.n	80072c2 <DequantBlock+0x6a>
 800730a:	f023 4400 	bic.w	r4, r3, #2147483648	; 0x80000000
 800730e:	f024 043f 	bic.w	r4, r4, #63	; 0x3f
 8007312:	b974      	cbnz	r4, 8007332 <DequantBlock+0xda>
 8007314:	4c3b      	ldr	r4, [pc, #236]	; (8007404 <DequantBlock+0x1ac>)
 8007316:	3d10      	subs	r5, #16
 8007318:	f854 5025 	ldr.w	r5, [r4, r5, lsl #2]
 800731c:	464c      	mov	r4, r9
 800731e:	fb85 6404 	smull	r6, r4, r5, r4
 8007322:	4625      	mov	r5, r4
 8007324:	f1aa 0403 	sub.w	r4, sl, #3
 8007328:	2c00      	cmp	r4, #0
 800732a:	db55      	blt.n	80073d8 <DequantBlock+0x180>
 800732c:	fa45 f404 	asr.w	r4, r5, r4
 8007330:	e7c7      	b.n	80072c2 <DequantBlock+0x6a>
 8007332:	046c      	lsls	r4, r5, #17
 8007334:	f1b4 6f00 	cmp.w	r4, #134217728	; 0x8000000
 8007338:	da5c      	bge.n	80073f4 <DequantBlock+0x19c>
 800733a:	2604      	movs	r6, #4
 800733c:	056c      	lsls	r4, r5, #21
 800733e:	9600      	str	r6, [sp, #0]
 8007340:	2506      	movs	r5, #6
 8007342:	f1b4 5f00 	cmp.w	r4, #536870912	; 0x20000000
 8007346:	bfbc      	itt	lt
 8007348:	00a4      	lsllt	r4, r4, #2
 800734a:	9500      	strlt	r5, [sp, #0]
 800734c:	f1b4 4f80 	cmp.w	r4, #1073741824	; 0x40000000
 8007350:	da03      	bge.n	800735a <DequantBlock+0x102>
 8007352:	9d00      	ldr	r5, [sp, #0]
 8007354:	3501      	adds	r5, #1
 8007356:	0064      	lsls	r4, r4, #1
 8007358:	9500      	str	r5, [sp, #0]
 800735a:	4d2b      	ldr	r5, [pc, #172]	; (8007408 <DequantBlock+0x1b0>)
 800735c:	4e2b      	ldr	r6, [pc, #172]	; (800740c <DequantBlock+0x1b4>)
 800735e:	4f2c      	ldr	r7, [pc, #176]	; (8007410 <DequantBlock+0x1b8>)
 8007360:	42ac      	cmp	r4, r5
 8007362:	4d2c      	ldr	r5, [pc, #176]	; (8007414 <DequantBlock+0x1bc>)
 8007364:	bfc8      	it	gt
 8007366:	46ac      	movgt	ip, r5
 8007368:	4d2b      	ldr	r5, [pc, #172]	; (8007418 <DequantBlock+0x1c0>)
 800736a:	bfd8      	it	le
 800736c:	46b4      	movle	ip, r6
 800736e:	4e2b      	ldr	r6, [pc, #172]	; (800741c <DequantBlock+0x1c4>)
 8007370:	bfd8      	it	le
 8007372:	462e      	movle	r6, r5
 8007374:	4d2a      	ldr	r5, [pc, #168]	; (8007420 <DequantBlock+0x1c8>)
 8007376:	bfd8      	it	le
 8007378:	462f      	movle	r7, r5
 800737a:	4d2a      	ldr	r5, [pc, #168]	; (8007424 <DequantBlock+0x1cc>)
 800737c:	9703      	str	r7, [sp, #12]
 800737e:	4f2a      	ldr	r7, [pc, #168]	; (8007428 <DequantBlock+0x1d0>)
 8007380:	bfd8      	it	le
 8007382:	462f      	movle	r7, r5
 8007384:	4d29      	ldr	r5, [pc, #164]	; (800742c <DequantBlock+0x1d4>)
 8007386:	9702      	str	r7, [sp, #8]
 8007388:	4f29      	ldr	r7, [pc, #164]	; (8007430 <DequantBlock+0x1d8>)
 800738a:	bfd8      	it	le
 800738c:	462f      	movle	r7, r5
 800738e:	9701      	str	r7, [sp, #4]
 8007390:	4625      	mov	r5, r4
 8007392:	fb86 7505 	smull	r7, r5, r6, r5
 8007396:	4465      	add	r5, ip
 8007398:	4626      	mov	r6, r4
 800739a:	fb85 c606 	smull	ip, r6, r5, r6
 800739e:	9f01      	ldr	r7, [sp, #4]
 80073a0:	4625      	mov	r5, r4
 80073a2:	443e      	add	r6, r7
 80073a4:	fb86 c505 	smull	ip, r5, r6, r5
 80073a8:	9f02      	ldr	r7, [sp, #8]
 80073aa:	443d      	add	r5, r7
 80073ac:	fb85 6404 	smull	r6, r4, r5, r4
 80073b0:	9f03      	ldr	r7, [sp, #12]
 80073b2:	4d20      	ldr	r5, [pc, #128]	; (8007434 <DequantBlock+0x1dc>)
 80073b4:	443c      	add	r4, r7
 80073b6:	9f00      	ldr	r7, [sp, #0]
 80073b8:	f855 5027 	ldr.w	r5, [r5, r7, lsl #2]
 80073bc:	fb84 6505 	smull	r6, r5, r4, r5
 80073c0:	00ed      	lsls	r5, r5, #3
 80073c2:	464c      	mov	r4, r9
 80073c4:	fb85 6404 	smull	r6, r4, r5, r4
 80073c8:	4625      	mov	r5, r4
 80073ca:	4c1b      	ldr	r4, [pc, #108]	; (8007438 <DequantBlock+0x1e0>)
 80073cc:	f854 4027 	ldr.w	r4, [r4, r7, lsl #2]
 80073d0:	ebaa 0404 	sub.w	r4, sl, r4
 80073d4:	2c00      	cmp	r4, #0
 80073d6:	daa9      	bge.n	800732c <DequantBlock+0xd4>
 80073d8:	4266      	negs	r6, r4
 80073da:	f06f 4400 	mvn.w	r4, #2147483648	; 0x80000000
 80073de:	fa44 f706 	asr.w	r7, r4, r6
 80073e2:	42af      	cmp	r7, r5
 80073e4:	f6ff af6d 	blt.w	80072c2 <DequantBlock+0x6a>
 80073e8:	fa05 f406 	lsl.w	r4, r5, r6
 80073ec:	e769      	b.n	80072c2 <DequantBlock+0x6a>
 80073ee:	b009      	add	sp, #36	; 0x24
 80073f0:	e8bd 8ff0 	ldmia.w	sp!, {r4, r5, r6, r7, r8, r9, sl, fp, pc}
 80073f4:	2600      	movs	r6, #0
 80073f6:	2502      	movs	r5, #2
 80073f8:	9600      	str	r6, [sp, #0]
 80073fa:	e7a2      	b.n	8007342 <DequantBlock+0xea>
 80073fc:	080115a0 	.word	0x080115a0
 8007400:	08011490 	.word	0x08011490
 8007404:	080114e0 	.word	0x080114e0
 8007408:	5a827999 	.word	0x5a827999
 800740c:	b02e4828 	.word	0xb02e4828
 8007410:	fef577b4 	.word	0xfef577b4
 8007414:	d333f6a4 	.word	0xd333f6a4
 8007418:	29a0bda9 	.word	0x29a0bda9
 800741c:	10852163 	.word	0x10852163
 8007420:	ff581859 	.word	0xff581859
 8007424:	236c498d 	.word	0x236c498d
 8007428:	27c2cef0 	.word	0x27c2cef0
 800742c:	5957aa1b 	.word	0x5957aa1b
 8007430:	46e9408b 	.word	0x46e9408b
 8007434:	080114c0 	.word	0x080114c0
 8007438:	080114a0 	.word	0x080114a0

0800743c <xmp3_DequantChannel>:
 800743c:	e92d 4ff0 	stmdb	sp!, {r4, r5, r6, r7, r8, r9, sl, fp, lr}
 8007440:	b091      	sub	sp, #68	; 0x44
 8007442:	e9cd 1209 	strd	r1, r2, [sp, #36]	; 0x24
 8007446:	9306      	str	r3, [sp, #24]
 8007448:	9b1a      	ldr	r3, [sp, #104]	; 0x68
 800744a:	9007      	str	r0, [sp, #28]
 800744c:	695b      	ldr	r3, [r3, #20]
 800744e:	2b02      	cmp	r3, #2
 8007450:	f000 8145 	beq.w	80076de <xmp3_DequantChannel+0x2a2>
 8007454:	230d      	movs	r3, #13
 8007456:	9303      	str	r3, [sp, #12]
 8007458:	f04f 0a16 	mov.w	sl, #22
 800745c:	9b1a      	ldr	r3, [sp, #104]	; 0x68
 800745e:	9a1a      	ldr	r2, [sp, #104]	; 0x68
 8007460:	6c1b      	ldr	r3, [r3, #64]	; 0x40
 8007462:	6892      	ldr	r2, [r2, #8]
 8007464:	920b      	str	r2, [sp, #44]	; 0x2c
 8007466:	3301      	adds	r3, #1
 8007468:	005b      	lsls	r3, r3, #1
 800746a:	9300      	str	r3, [sp, #0]
 800746c:	9b06      	ldr	r3, [sp, #24]
 800746e:	4da8      	ldr	r5, [pc, #672]	; (8007710 <xmp3_DequantChannel+0x2d4>)
 8007470:	6a1b      	ldr	r3, [r3, #32]
 8007472:	f8dd b028 	ldr.w	fp, [sp, #40]	; 0x28
 8007476:	9502      	str	r5, [sp, #8]
 8007478:	085b      	lsrs	r3, r3, #1
 800747a:	f04f 0300 	mov.w	r3, #0
 800747e:	bf08      	it	eq
 8007480:	3202      	addeq	r2, #2
 8007482:	461e      	mov	r6, r3
 8007484:	bf08      	it	eq
 8007486:	920b      	streq	r2, [sp, #44]	; 0x2c
 8007488:	e9cd 6a04 	strd	r6, sl, [sp, #16]
 800748c:	461c      	mov	r4, r3
 800748e:	9308      	str	r3, [sp, #32]
 8007490:	9b0b      	ldr	r3, [sp, #44]	; 0x2c
 8007492:	9a1b      	ldr	r2, [sp, #108]	; 0x6c
 8007494:	f8dd a068 	ldr.w	sl, [sp, #104]	; 0x68
 8007498:	f1c3 07d2 	rsb	r7, r3, #210	; 0xd2
 800749c:	9b05      	ldr	r3, [sp, #20]
 800749e:	429c      	cmp	r4, r3
 80074a0:	f102 38ff 	add.w	r8, r2, #4294967295
 80074a4:	d031      	beq.n	800750a <xmp3_DequantChannel+0xce>
 80074a6:	9b06      	ldr	r3, [sp, #24]
 80074a8:	f8da 503c 	ldr.w	r5, [sl, #60]	; 0x3c
 80074ac:	6b5b      	ldr	r3, [r3, #52]	; 0x34
 80074ae:	9701      	str	r7, [sp, #4]
 80074b0:	eb03 0244 	add.w	r2, r3, r4, lsl #1
 80074b4:	f933 3014 	ldrsh.w	r3, [r3, r4, lsl #1]
 80074b8:	f9b2 2002 	ldrsh.w	r2, [r2, #2]
 80074bc:	1ad2      	subs	r2, r2, r3
 80074be:	9b07      	ldr	r3, [sp, #28]
 80074c0:	eb03 0186 	add.w	r1, r3, r6, lsl #2
 80074c4:	f104 0901 	add.w	r9, r4, #1
 80074c8:	f818 3f01 	ldrb.w	r3, [r8, #1]!
 80074cc:	4416      	add	r6, r2
 80074ce:	4608      	mov	r0, r1
 80074d0:	b11d      	cbz	r5, 80074da <xmp3_DequantChannel+0x9e>
 80074d2:	9d02      	ldr	r5, [sp, #8]
 80074d4:	f895 c000 	ldrb.w	ip, [r5]
 80074d8:	4463      	add	r3, ip
 80074da:	9d00      	ldr	r5, [sp, #0]
 80074dc:	fb03 7305 	mla	r3, r3, r5, r7
 80074e0:	f7ff feba 	bl	8007258 <DequantBlock>
 80074e4:	2800      	cmp	r0, #0
 80074e6:	f000 80c3 	beq.w	8007670 <xmp3_DequantChannel+0x234>
 80074ea:	9b04      	ldr	r3, [sp, #16]
 80074ec:	9408      	str	r4, [sp, #32]
 80074ee:	4303      	orrs	r3, r0
 80074f0:	9304      	str	r3, [sp, #16]
 80074f2:	9b02      	ldr	r3, [sp, #8]
 80074f4:	3301      	adds	r3, #1
 80074f6:	9302      	str	r3, [sp, #8]
 80074f8:	f8db 3000 	ldr.w	r3, [fp]
 80074fc:	42b3      	cmp	r3, r6
 80074fe:	f340 80d1 	ble.w	80076a4 <xmp3_DequantChannel+0x268>
 8007502:	464c      	mov	r4, r9
 8007504:	9b05      	ldr	r3, [sp, #20]
 8007506:	429c      	cmp	r4, r3
 8007508:	d1cd      	bne.n	80074a6 <xmp3_DequantChannel+0x6a>
 800750a:	9b1c      	ldr	r3, [sp, #112]	; 0x70
 800750c:	9a08      	ldr	r2, [sp, #32]
 800750e:	615a      	str	r2, [r3, #20]
 8007510:	9a1c      	ldr	r2, [sp, #112]	; 0x70
 8007512:	f8dd b010 	ldr.w	fp, [sp, #16]
 8007516:	2300      	movs	r3, #0
 8007518:	e9c2 3302 	strd	r3, r3, [r2, #8]
 800751c:	6013      	str	r3, [r2, #0]
 800751e:	6053      	str	r3, [r2, #4]
 8007520:	6113      	str	r3, [r2, #16]
 8007522:	9b03      	ldr	r3, [sp, #12]
 8007524:	2b0b      	cmp	r3, #11
 8007526:	f300 80ad 	bgt.w	8007684 <xmp3_DequantChannel+0x248>
 800752a:	9b0b      	ldr	r3, [sp, #44]	; 0x2c
 800752c:	f1c3 03d2 	rsb	r3, r3, #210	; 0xd2
 8007530:	9301      	str	r3, [sp, #4]
 8007532:	9b03      	ldr	r3, [sp, #12]
 8007534:	9a1b      	ldr	r2, [sp, #108]	; 0x6c
 8007536:	930e      	str	r3, [sp, #56]	; 0x38
 8007538:	e9cd 330c 	strd	r3, r3, [sp, #48]	; 0x30
 800753c:	eb03 0343 	add.w	r3, r3, r3, lsl #1
 8007540:	3317      	adds	r3, #23
 8007542:	18d3      	adds	r3, r2, r3
 8007544:	9305      	str	r3, [sp, #20]
 8007546:	9b1a      	ldr	r3, [sp, #104]	; 0x68
 8007548:	9602      	str	r6, [sp, #8]
 800754a:	3328      	adds	r3, #40	; 0x28
 800754c:	930b      	str	r3, [sp, #44]	; 0x2c
 800754e:	f8cd b010 	str.w	fp, [sp, #16]
 8007552:	9b06      	ldr	r3, [sp, #24]
 8007554:	9a03      	ldr	r2, [sp, #12]
 8007556:	6b5b      	ldr	r3, [r3, #52]	; 0x34
 8007558:	9208      	str	r2, [sp, #32]
 800755a:	eb03 0342 	add.w	r3, r3, r2, lsl #1
 800755e:	3201      	adds	r2, #1
 8007560:	f9b3 1030 	ldrsh.w	r1, [r3, #48]	; 0x30
 8007564:	9203      	str	r2, [sp, #12]
 8007566:	f9b3 202e 	ldrsh.w	r2, [r3, #46]	; 0x2e
 800756a:	9b07      	ldr	r3, [sp, #28]
 800756c:	f8dd a02c 	ldr.w	sl, [sp, #44]	; 0x2c
 8007570:	9e09      	ldr	r6, [sp, #36]	; 0x24
 8007572:	f8dd 9014 	ldr.w	r9, [sp, #20]
 8007576:	eba1 0b02 	sub.w	fp, r1, r2
 800757a:	9a02      	ldr	r2, [sp, #8]
 800757c:	eb03 0482 	add.w	r4, r3, r2, lsl #2
 8007580:	ea4f 058b 	mov.w	r5, fp, lsl #2
 8007584:	f10d 0830 	add.w	r8, sp, #48	; 0x30
 8007588:	4627      	mov	r7, r4
 800758a:	9901      	ldr	r1, [sp, #4]
 800758c:	f85a 3b04 	ldr.w	r3, [sl], #4
 8007590:	f819 2b01 	ldrb.w	r2, [r9], #1
 8007594:	eb01 03c3 	add.w	r3, r1, r3, lsl #3
 8007598:	9900      	ldr	r1, [sp, #0]
 800759a:	4638      	mov	r0, r7
 800759c:	fb01 3302 	mla	r3, r1, r2, r3
 80075a0:	465a      	mov	r2, fp
 80075a2:	4631      	mov	r1, r6
 80075a4:	f7ff fe58 	bl	8007258 <DequantBlock>
 80075a8:	2800      	cmp	r0, #0
 80075aa:	f000 808f 	beq.w	80076cc <xmp3_DequantChannel+0x290>
 80075ae:	9b08      	ldr	r3, [sp, #32]
 80075b0:	f848 3b04 	str.w	r3, [r8], #4
 80075b4:	9b04      	ldr	r3, [sp, #16]
 80075b6:	4303      	orrs	r3, r0
 80075b8:	9304      	str	r3, [sp, #16]
 80075ba:	ab0f      	add	r3, sp, #60	; 0x3c
 80075bc:	4598      	cmp	r8, r3
 80075be:	442f      	add	r7, r5
 80075c0:	442e      	add	r6, r5
 80075c2:	d1e2      	bne.n	800758a <xmp3_DequantChannel+0x14e>
 80075c4:	9a02      	ldr	r2, [sp, #8]
 80075c6:	eb0b 034b 	add.w	r3, fp, fp, lsl #1
 80075ca:	441a      	add	r2, r3
 80075cc:	f1bb 0f00 	cmp.w	fp, #0
 80075d0:	9202      	str	r2, [sp, #8]
 80075d2:	ea4f 014b 	mov.w	r1, fp, lsl #1
 80075d6:	dd19      	ble.n	800760c <xmp3_DequantChannel+0x1d0>
 80075d8:	9b09      	ldr	r3, [sp, #36]	; 0x24
 80075da:	f10b 4280 	add.w	r2, fp, #1073741824	; 0x40000000
 80075de:	f101 4180 	add.w	r1, r1, #1073741824	; 0x40000000
 80075e2:	3a01      	subs	r2, #1
 80075e4:	3901      	subs	r1, #1
 80075e6:	eb03 0282 	add.w	r2, r3, r2, lsl #2
 80075ea:	eb03 0181 	add.w	r1, r3, r1, lsl #2
 80075ee:	3b04      	subs	r3, #4
 80075f0:	441d      	add	r5, r3
 80075f2:	f853 0f04 	ldr.w	r0, [r3, #4]!
 80075f6:	6020      	str	r0, [r4, #0]
 80075f8:	f852 0f04 	ldr.w	r0, [r2, #4]!
 80075fc:	6060      	str	r0, [r4, #4]
 80075fe:	f851 0f04 	ldr.w	r0, [r1, #4]!
 8007602:	60a0      	str	r0, [r4, #8]
 8007604:	429d      	cmp	r5, r3
 8007606:	f104 040c 	add.w	r4, r4, #12
 800760a:	d1f2      	bne.n	80075f2 <xmp3_DequantChannel+0x1b6>
 800760c:	9b0a      	ldr	r3, [sp, #40]	; 0x28
 800760e:	9a02      	ldr	r2, [sp, #8]
 8007610:	681b      	ldr	r3, [r3, #0]
 8007612:	4293      	cmp	r3, r2
 8007614:	dd05      	ble.n	8007622 <xmp3_DequantChannel+0x1e6>
 8007616:	9b05      	ldr	r3, [sp, #20]
 8007618:	3303      	adds	r3, #3
 800761a:	9305      	str	r3, [sp, #20]
 800761c:	9b03      	ldr	r3, [sp, #12]
 800761e:	2b0d      	cmp	r3, #13
 8007620:	d197      	bne.n	8007552 <xmp3_DequantChannel+0x116>
 8007622:	9b0a      	ldr	r3, [sp, #40]	; 0x28
 8007624:	981c      	ldr	r0, [sp, #112]	; 0x70
 8007626:	601a      	str	r2, [r3, #0]
 8007628:	9b1a      	ldr	r3, [sp, #104]	; 0x68
 800762a:	f8dd b010 	ldr.w	fp, [sp, #16]
 800762e:	699a      	ldr	r2, [r3, #24]
 8007630:	e9dd 310c 	ldrd	r3, r1, [sp, #48]	; 0x30
 8007634:	2a00      	cmp	r2, #0
 8007636:	bf14      	ite	ne
 8007638:	2202      	movne	r2, #2
 800763a:	2201      	moveq	r2, #1
 800763c:	6002      	str	r2, [r0, #0]
 800763e:	428b      	cmp	r3, r1
 8007640:	9a0e      	ldr	r2, [sp, #56]	; 0x38
 8007642:	6043      	str	r3, [r0, #4]
 8007644:	bfb8      	it	lt
 8007646:	460b      	movlt	r3, r1
 8007648:	4293      	cmp	r3, r2
 800764a:	bfb8      	it	lt
 800764c:	4613      	movlt	r3, r2
 800764e:	f1bb 0f00 	cmp.w	fp, #0
 8007652:	e9c0 1202 	strd	r1, r2, [r0, #8]
 8007656:	6103      	str	r3, [r0, #16]
 8007658:	d034      	beq.n	80076c4 <xmp3_DequantChannel+0x288>
 800765a:	db55      	blt.n	8007708 <xmp3_DequantChannel+0x2cc>
 800765c:	2300      	movs	r3, #0
 800765e:	ea5f 0b4b 	movs.w	fp, fp, lsl #1
 8007662:	4618      	mov	r0, r3
 8007664:	f103 0301 	add.w	r3, r3, #1
 8007668:	d5f9      	bpl.n	800765e <xmp3_DequantChannel+0x222>
 800766a:	b011      	add	sp, #68	; 0x44
 800766c:	e8bd 8ff0 	ldmia.w	sp!, {r4, r5, r6, r7, r8, r9, sl, fp, pc}
 8007670:	9b02      	ldr	r3, [sp, #8]
 8007672:	3301      	adds	r3, #1
 8007674:	9302      	str	r3, [sp, #8]
 8007676:	f8db 3000 	ldr.w	r3, [fp]
 800767a:	42b3      	cmp	r3, r6
 800767c:	f77f af45 	ble.w	800750a <xmp3_DequantChannel+0xce>
 8007680:	464c      	mov	r4, r9
 8007682:	e73f      	b.n	8007504 <xmp3_DequantChannel+0xc8>
 8007684:	f1bb 0f00 	cmp.w	fp, #0
 8007688:	d01c      	beq.n	80076c4 <xmp3_DequantChannel+0x288>
 800768a:	f1bb 0f00 	cmp.w	fp, #0
 800768e:	db3b      	blt.n	8007708 <xmp3_DequantChannel+0x2cc>
 8007690:	2300      	movs	r3, #0
 8007692:	ea5f 0b4b 	movs.w	fp, fp, lsl #1
 8007696:	4618      	mov	r0, r3
 8007698:	f103 0301 	add.w	r3, r3, #1
 800769c:	d5f9      	bpl.n	8007692 <xmp3_DequantChannel+0x256>
 800769e:	b011      	add	sp, #68	; 0x44
 80076a0:	e8bd 8ff0 	ldmia.w	sp!, {r4, r5, r6, r7, r8, r9, sl, fp, pc}
 80076a4:	9b1c      	ldr	r3, [sp, #112]	; 0x70
 80076a6:	9a1c      	ldr	r2, [sp, #112]	; 0x70
 80076a8:	615c      	str	r4, [r3, #20]
 80076aa:	2300      	movs	r3, #0
 80076ac:	e9c2 3302 	strd	r3, r3, [r2, #8]
 80076b0:	6013      	str	r3, [r2, #0]
 80076b2:	6053      	str	r3, [r2, #4]
 80076b4:	6113      	str	r3, [r2, #16]
 80076b6:	9b03      	ldr	r3, [sp, #12]
 80076b8:	f8dd b010 	ldr.w	fp, [sp, #16]
 80076bc:	2b0b      	cmp	r3, #11
 80076be:	f77f af38 	ble.w	8007532 <xmp3_DequantChannel+0xf6>
 80076c2:	e7e2      	b.n	800768a <xmp3_DequantChannel+0x24e>
 80076c4:	201f      	movs	r0, #31
 80076c6:	b011      	add	sp, #68	; 0x44
 80076c8:	e8bd 8ff0 	ldmia.w	sp!, {r4, r5, r6, r7, r8, r9, sl, fp, pc}
 80076cc:	f108 0804 	add.w	r8, r8, #4
 80076d0:	ab0f      	add	r3, sp, #60	; 0x3c
 80076d2:	4543      	cmp	r3, r8
 80076d4:	442f      	add	r7, r5
 80076d6:	442e      	add	r6, r5
 80076d8:	f47f af57 	bne.w	800758a <xmp3_DequantChannel+0x14e>
 80076dc:	e772      	b.n	80075c4 <xmp3_DequantChannel+0x188>
 80076de:	9b1a      	ldr	r3, [sp, #104]	; 0x68
 80076e0:	f8d3 a018 	ldr.w	sl, [r3, #24]
 80076e4:	f1ba 0f00 	cmp.w	sl, #0
 80076e8:	d00b      	beq.n	8007702 <xmp3_DequantChannel+0x2c6>
 80076ea:	9b06      	ldr	r3, [sp, #24]
 80076ec:	781b      	ldrb	r3, [r3, #0]
 80076ee:	2b00      	cmp	r3, #0
 80076f0:	f04f 0303 	mov.w	r3, #3
 80076f4:	9303      	str	r3, [sp, #12]
 80076f6:	bf0c      	ite	eq
 80076f8:	f04f 0a08 	moveq.w	sl, #8
 80076fc:	f04f 0a06 	movne.w	sl, #6
 8007700:	e6ac      	b.n	800745c <xmp3_DequantChannel+0x20>
 8007702:	f8cd a00c 	str.w	sl, [sp, #12]
 8007706:	e6a9      	b.n	800745c <xmp3_DequantChannel+0x20>
 8007708:	f04f 30ff 	mov.w	r0, #4294967295
 800770c:	e7ad      	b.n	800766a <xmp3_DequantChannel+0x22e>
 800770e:	bf00      	nop
 8007710:	080116a0 	.word	0x080116a0

08007714 <xmp3_DecodeHuffman>:
 8007714:	e92d 4ff0 	stmdb	sp!, {r4, r5, r6, r7, r8, r9, sl, fp, lr}
 8007718:	b099      	sub	sp, #100	; 0x64
 800771a:	910f      	str	r1, [sp, #60]	; 0x3c
 800771c:	9206      	str	r2, [sp, #24]
 800771e:	9301      	str	r3, [sp, #4]
 8007720:	2800      	cmp	r0, #0
 8007722:	f000 8141 	beq.w	80079a8 <xmp3_DecodeHuffman+0x294>
 8007726:	6801      	ldr	r1, [r0, #0]
 8007728:	2900      	cmp	r1, #0
 800772a:	f000 813d 	beq.w	80079a8 <xmp3_DecodeHuffman+0x294>
 800772e:	6844      	ldr	r4, [r0, #4]
 8007730:	940a      	str	r4, [sp, #40]	; 0x28
 8007732:	2c00      	cmp	r4, #0
 8007734:	f000 8138 	beq.w	80079a8 <xmp3_DecodeHuffman+0x294>
 8007738:	6883      	ldr	r3, [r0, #8]
 800773a:	2b00      	cmp	r3, #0
 800773c:	f000 8134 	beq.w	80079a8 <xmp3_DecodeHuffman+0x294>
 8007740:	68c3      	ldr	r3, [r0, #12]
 8007742:	930e      	str	r3, [sp, #56]	; 0x38
 8007744:	2b00      	cmp	r3, #0
 8007746:	f000 812f 	beq.w	80079a8 <xmp3_DecodeHuffman+0x294>
 800774a:	9b01      	ldr	r3, [sp, #4]
 800774c:	2b00      	cmp	r3, #0
 800774e:	f2c0 812b 	blt.w	80079a8 <xmp3_DecodeHuffman+0x294>
 8007752:	9b22      	ldr	r3, [sp, #136]	; 0x88
 8007754:	9822      	ldr	r0, [sp, #136]	; 0x88
 8007756:	eb03 02c3 	add.w	r2, r3, r3, lsl #3
 800775a:	9b23      	ldr	r3, [sp, #140]	; 0x8c
 800775c:	0112      	lsls	r2, r2, #4
 800775e:	eb03 03c3 	add.w	r3, r3, r3, lsl #3
 8007762:	eb02 02c3 	add.w	r2, r2, r3, lsl #3
 8007766:	9b23      	ldr	r3, [sp, #140]	; 0x8c
 8007768:	4422      	add	r2, r4
 800776a:	00db      	lsls	r3, r3, #3
 800776c:	930c      	str	r3, [sp, #48]	; 0x30
 800776e:	6b93      	ldr	r3, [r2, #56]	; 0x38
 8007770:	00c0      	lsls	r0, r0, #3
 8007772:	900b      	str	r0, [sp, #44]	; 0x2c
 8007774:	2b00      	cmp	r3, #0
 8007776:	f040 827f 	bne.w	8007c78 <xmp3_DecodeHuffman+0x564>
 800777a:	6b4a      	ldr	r2, [r1, #52]	; 0x34
 800777c:	9b0b      	ldr	r3, [sp, #44]	; 0x2c
 800777e:	9922      	ldr	r1, [sp, #136]	; 0x88
 8007780:	9823      	ldr	r0, [sp, #140]	; 0x8c
 8007782:	440b      	add	r3, r1
 8007784:	990c      	ldr	r1, [sp, #48]	; 0x30
 8007786:	011b      	lsls	r3, r3, #4
 8007788:	4401      	add	r1, r0
 800778a:	eb03 03c1 	add.w	r3, r3, r1, lsl #3
 800778e:	990a      	ldr	r1, [sp, #40]	; 0x28
 8007790:	440b      	add	r3, r1
 8007792:	e9d3 1317 	ldrd	r1, r3, [r3, #92]	; 0x5c
 8007796:	3101      	adds	r1, #1
 8007798:	440b      	add	r3, r1
 800779a:	3301      	adds	r3, #1
 800779c:	f932 0011 	ldrsh.w	r0, [r2, r1, lsl #1]
 80077a0:	f932 4013 	ldrsh.w	r4, [r2, r3, lsl #1]
 80077a4:	9a22      	ldr	r2, [sp, #136]	; 0x88
 80077a6:	9b0b      	ldr	r3, [sp, #44]	; 0x2c
 80077a8:	9923      	ldr	r1, [sp, #140]	; 0x8c
 80077aa:	9d0a      	ldr	r5, [sp, #40]	; 0x28
 80077ac:	4413      	add	r3, r2
 80077ae:	9a0c      	ldr	r2, [sp, #48]	; 0x30
 80077b0:	011b      	lsls	r3, r3, #4
 80077b2:	1851      	adds	r1, r2, r1
 80077b4:	eb03 02c1 	add.w	r2, r3, r1, lsl #3
 80077b8:	442a      	add	r2, r5
 80077ba:	eb03 03c1 	add.w	r3, r3, r1, lsl #3
 80077be:	6ad2      	ldr	r2, [r2, #44]	; 0x2c
 80077c0:	0052      	lsls	r2, r2, #1
 80077c2:	f5b2 7f10 	cmp.w	r2, #576	; 0x240
 80077c6:	bfa8      	it	ge
 80077c8:	f44f 7210 	movge.w	r2, #576	; 0x240
 80077cc:	4294      	cmp	r4, r2
 80077ce:	bfa8      	it	ge
 80077d0:	4614      	movge	r4, r2
 80077d2:	3344      	adds	r3, #68	; 0x44
 80077d4:	4290      	cmp	r0, r2
 80077d6:	bfa8      	it	ge
 80077d8:	4610      	movge	r0, r2
 80077da:	18eb      	adds	r3, r5, r3
 80077dc:	9015      	str	r0, [sp, #84]	; 0x54
 80077de:	9305      	str	r3, [sp, #20]
 80077e0:	980e      	ldr	r0, [sp, #56]	; 0x38
 80077e2:	9b23      	ldr	r3, [sp, #140]	; 0x8c
 80077e4:	9213      	str	r2, [sp, #76]	; 0x4c
 80077e6:	eb00 0383 	add.w	r3, r0, r3, lsl #2
 80077ea:	f503 5380 	add.w	r3, r3, #4096	; 0x1000
 80077ee:	9217      	str	r2, [sp, #92]	; 0x5c
 80077f0:	f8c3 2200 	str.w	r2, [r3, #512]	; 0x200
 80077f4:	9312      	str	r3, [sp, #72]	; 0x48
 80077f6:	eb00 2201 	add.w	r2, r0, r1, lsl #8
 80077fa:	2300      	movs	r3, #0
 80077fc:	9314      	str	r3, [sp, #80]	; 0x50
 80077fe:	920d      	str	r2, [sp, #52]	; 0x34
 8007800:	9b06      	ldr	r3, [sp, #24]
 8007802:	9416      	str	r4, [sp, #88]	; 0x58
 8007804:	018a      	lsls	r2, r1, #6
 8007806:	9211      	str	r2, [sp, #68]	; 0x44
 8007808:	aa14      	add	r2, sp, #80	; 0x50
 800780a:	9204      	str	r2, [sp, #16]
 800780c:	681b      	ldr	r3, [r3, #0]
 800780e:	9a0f      	ldr	r2, [sp, #60]	; 0x3c
 8007810:	9203      	str	r2, [sp, #12]
 8007812:	9a04      	ldr	r2, [sp, #16]
 8007814:	6817      	ldr	r7, [r2, #0]
 8007816:	f852 0f04 	ldr.w	r0, [r2, #4]!
 800781a:	9204      	str	r2, [sp, #16]
 800781c:	1bc0      	subs	r0, r0, r7
 800781e:	2800      	cmp	r0, #0
 8007820:	f340 814c 	ble.w	8007abc <xmp3_DecodeHuffman+0x3a8>
 8007824:	9a01      	ldr	r2, [sp, #4]
 8007826:	2a00      	cmp	r2, #0
 8007828:	f2c0 80be 	blt.w	80079a8 <xmp3_DecodeHuffman+0x294>
 800782c:	9a05      	ldr	r2, [sp, #20]
 800782e:	4ca0      	ldr	r4, [pc, #640]	; (8007ab0 <xmp3_DecodeHuffman+0x39c>)
 8007830:	6811      	ldr	r1, [r2, #0]
 8007832:	9d03      	ldr	r5, [sp, #12]
 8007834:	eb04 02c1 	add.w	r2, r4, r1, lsl #3
 8007838:	425b      	negs	r3, r3
 800783a:	f892 e004 	ldrb.w	lr, [r2, #4]
 800783e:	f013 0207 	ands.w	r2, r3, #7
 8007842:	bf1e      	ittt	ne
 8007844:	f815 6b01 	ldrbne.w	r6, [r5], #1
 8007848:	f1c2 0320 	rsbne	r3, r2, #32
 800784c:	fa06 f303 	lslne.w	r3, r6, r3
 8007850:	9e0d      	ldr	r6, [sp, #52]	; 0x34
 8007852:	bf08      	it	eq
 8007854:	4613      	moveq	r3, r2
 8007856:	eb06 0687 	add.w	r6, r6, r7, lsl #2
 800785a:	f1be 0f00 	cmp.w	lr, #0
 800785e:	f000 81f2 	beq.w	8007c46 <xmp3_DecodeHuffman+0x532>
 8007862:	4f94      	ldr	r7, [pc, #592]	; (8007ab4 <xmp3_DecodeHuffman+0x3a0>)
 8007864:	f8df 9250 	ldr.w	r9, [pc, #592]	; 8007ab8 <xmp3_DecodeHuffman+0x3a4>
 8007868:	f857 8021 	ldr.w	r8, [r7, r1, lsl #2]
 800786c:	9f01      	ldr	r7, [sp, #4]
 800786e:	f1be 0f01 	cmp.w	lr, #1
 8007872:	eba7 0b02 	sub.w	fp, r7, r2
 8007876:	eb09 0c48 	add.w	ip, r9, r8, lsl #1
 800787a:	f000 8247 	beq.w	8007d0c <xmp3_DecodeHuffman+0x5f8>
 800787e:	f1ae 0702 	sub.w	r7, lr, #2
 8007882:	2f01      	cmp	r7, #1
 8007884:	f200 8090 	bhi.w	80079a8 <xmp3_DecodeHuffman+0x294>
 8007888:	f854 1031 	ldr.w	r1, [r4, r1, lsl #3]
 800788c:	9107      	str	r1, [sp, #28]
 800788e:	1c4f      	adds	r7, r1, #1
 8007890:	f1bb 0f0f 	cmp.w	fp, #15
 8007894:	f1c1 0120 	rsb	r1, r1, #32
 8007898:	4664      	mov	r4, ip
 800789a:	f04f 0900 	mov.w	r9, #0
 800789e:	9708      	str	r7, [sp, #32]
 80078a0:	9109      	str	r1, [sp, #36]	; 0x24
 80078a2:	46f2      	mov	sl, lr
 80078a4:	dd42      	ble.n	800792c <xmp3_DecodeHuffman+0x218>
 80078a6:	786f      	ldrb	r7, [r5, #1]
 80078a8:	f815 eb02 	ldrb.w	lr, [r5], #2
 80078ac:	9502      	str	r5, [sp, #8]
 80078ae:	f1c2 0118 	rsb	r1, r2, #24
 80078b2:	fa0e f101 	lsl.w	r1, lr, r1
 80078b6:	f1c2 0e10 	rsb	lr, r2, #16
 80078ba:	fa07 f70e 	lsl.w	r7, r7, lr
 80078be:	430f      	orrs	r7, r1
 80078c0:	f1ab 0b10 	sub.w	fp, fp, #16
 80078c4:	433b      	orrs	r3, r7
 80078c6:	3210      	adds	r2, #16
 80078c8:	2a0a      	cmp	r2, #10
 80078ca:	dd2b      	ble.n	8007924 <xmp3_DecodeHuffman+0x210>
 80078cc:	8827      	ldrh	r7, [r4, #0]
 80078ce:	f007 070f 	and.w	r7, r7, #15
 80078d2:	f1c7 0120 	rsb	r1, r7, #32
 80078d6:	fa23 f101 	lsr.w	r1, r3, r1
 80078da:	3101      	adds	r1, #1
 80078dc:	f834 1011 	ldrh.w	r1, [r4, r1, lsl #1]
 80078e0:	ea5f 3e11 	movs.w	lr, r1, lsr #12
 80078e4:	d065      	beq.n	80079b2 <xmp3_DecodeHuffman+0x29e>
 80078e6:	f3c1 1703 	ubfx	r7, r1, #4, #4
 80078ea:	f3c1 2403 	ubfx	r4, r1, #8, #4
 80078ee:	2f0f      	cmp	r7, #15
 80078f0:	eba2 020e 	sub.w	r2, r2, lr
 80078f4:	fa03 f30e 	lsl.w	r3, r3, lr
 80078f8:	4621      	mov	r1, r4
 80078fa:	d03c      	beq.n	8007976 <xmp3_DecodeHuffman+0x262>
 80078fc:	2f00      	cmp	r7, #0
 80078fe:	d13d      	bne.n	800797c <xmp3_DecodeHuffman+0x268>
 8007900:	2c0f      	cmp	r4, #15
 8007902:	d045      	beq.n	8007990 <xmp3_DecodeHuffman+0x27c>
 8007904:	2900      	cmp	r1, #0
 8007906:	d159      	bne.n	80079bc <xmp3_DecodeHuffman+0x2a8>
 8007908:	454a      	cmp	r2, r9
 800790a:	db4d      	blt.n	80079a8 <xmp3_DecodeHuffman+0x294>
 800790c:	3802      	subs	r0, #2
 800790e:	4634      	mov	r4, r6
 8007910:	2800      	cmp	r0, #0
 8007912:	f844 7b08 	str.w	r7, [r4], #8
 8007916:	6071      	str	r1, [r6, #4]
 8007918:	f340 829d 	ble.w	8007e56 <xmp3_DecodeHuffman+0x742>
 800791c:	2a0a      	cmp	r2, #10
 800791e:	4626      	mov	r6, r4
 8007920:	4664      	mov	r4, ip
 8007922:	dcd3      	bgt.n	80078cc <xmp3_DecodeHuffman+0x1b8>
 8007924:	f1bb 0f0f 	cmp.w	fp, #15
 8007928:	9d02      	ldr	r5, [sp, #8]
 800792a:	dcbc      	bgt.n	80078a6 <xmp3_DecodeHuffman+0x192>
 800792c:	eb0b 0102 	add.w	r1, fp, r2
 8007930:	2900      	cmp	r1, #0
 8007932:	dd39      	ble.n	80079a8 <xmp3_DecodeHuffman+0x294>
 8007934:	f1bb 0f00 	cmp.w	fp, #0
 8007938:	dd06      	ble.n	8007948 <xmp3_DecodeHuffman+0x234>
 800793a:	f815 7b01 	ldrb.w	r7, [r5], #1
 800793e:	f1c2 0e18 	rsb	lr, r2, #24
 8007942:	fa07 f70e 	lsl.w	r7, r7, lr
 8007946:	433b      	orrs	r3, r7
 8007948:	f1bb 0f08 	cmp.w	fp, #8
 800794c:	dd05      	ble.n	800795a <xmp3_DecodeHuffman+0x246>
 800794e:	f1c2 0710 	rsb	r7, r2, #16
 8007952:	f815 2b01 	ldrb.w	r2, [r5], #1
 8007956:	40ba      	lsls	r2, r7
 8007958:	4313      	orrs	r3, r2
 800795a:	1e4a      	subs	r2, r1, #1
 800795c:	f04f 4700 	mov.w	r7, #2147483648	; 0x80000000
 8007960:	fa47 f202 	asr.w	r2, r7, r2
 8007964:	4013      	ands	r3, r2
 8007966:	f04f 090b 	mov.w	r9, #11
 800796a:	f101 020b 	add.w	r2, r1, #11
 800796e:	f04f 0b00 	mov.w	fp, #0
 8007972:	9502      	str	r5, [sp, #8]
 8007974:	e7a8      	b.n	80078c8 <xmp3_DecodeHuffman+0x1b4>
 8007976:	f1ba 0f03 	cmp.w	sl, #3
 800797a:	d021      	beq.n	80079c0 <xmp3_DecodeHuffman+0x2ac>
 800797c:	f003 4e00 	and.w	lr, r3, #2147483648	; 0x80000000
 8007980:	2c0f      	cmp	r4, #15
 8007982:	f102 32ff 	add.w	r2, r2, #4294967295
 8007986:	ea4e 0707 	orr.w	r7, lr, r7
 800798a:	ea4f 0343 	mov.w	r3, r3, lsl #1
 800798e:	d1b9      	bne.n	8007904 <xmp3_DecodeHuffman+0x1f0>
 8007990:	f1ba 0f03 	cmp.w	sl, #3
 8007994:	d052      	beq.n	8007a3c <xmp3_DecodeHuffman+0x328>
 8007996:	3a01      	subs	r2, #1
 8007998:	f003 4100 	and.w	r1, r3, #2147483648	; 0x80000000
 800799c:	454a      	cmp	r2, r9
 800799e:	ea41 0104 	orr.w	r1, r1, r4
 80079a2:	ea4f 0343 	mov.w	r3, r3, lsl #1
 80079a6:	dab1      	bge.n	800790c <xmp3_DecodeHuffman+0x1f8>
 80079a8:	f04f 30ff 	mov.w	r0, #4294967295
 80079ac:	b019      	add	sp, #100	; 0x64
 80079ae:	e8bd 8ff0 	ldmia.w	sp!, {r4, r5, r6, r7, r8, r9, sl, fp, pc}
 80079b2:	eb04 0441 	add.w	r4, r4, r1, lsl #1
 80079b6:	1bd2      	subs	r2, r2, r7
 80079b8:	40bb      	lsls	r3, r7
 80079ba:	e785      	b.n	80078c8 <xmp3_DecodeHuffman+0x1b4>
 80079bc:	460c      	mov	r4, r1
 80079be:	e7ea      	b.n	8007996 <xmp3_DecodeHuffman+0x282>
 80079c0:	9f08      	ldr	r7, [sp, #32]
 80079c2:	eb02 0e0b 	add.w	lr, r2, fp
 80079c6:	2c00      	cmp	r4, #0
 80079c8:	bf18      	it	ne
 80079ca:	3701      	addne	r7, #1
 80079cc:	4577      	cmp	r7, lr
 80079ce:	dceb      	bgt.n	80079a8 <xmp3_DecodeHuffman+0x294>
 80079d0:	42ba      	cmp	r2, r7
 80079d2:	f280 821e 	bge.w	8007e12 <xmp3_DecodeHuffman+0x6fe>
 80079d6:	ea6f 0e02 	mvn.w	lr, r2
 80079da:	4477      	add	r7, lr
 80079dc:	08fd      	lsrs	r5, r7, #3
 80079de:	f105 0801 	add.w	r8, r5, #1
 80079e2:	9510      	str	r5, [sp, #64]	; 0x40
 80079e4:	9d02      	ldr	r5, [sp, #8]
 80079e6:	f1c2 0e18 	rsb	lr, r2, #24
 80079ea:	44a8      	add	r8, r5
 80079ec:	f815 7b01 	ldrb.w	r7, [r5], #1
 80079f0:	fa07 f70e 	lsl.w	r7, r7, lr
 80079f4:	4545      	cmp	r5, r8
 80079f6:	ea43 0307 	orr.w	r3, r3, r7
 80079fa:	f1ae 0e08 	sub.w	lr, lr, #8
 80079fe:	d1f5      	bne.n	80079ec <xmp3_DecodeHuffman+0x2d8>
 8007a00:	9d10      	ldr	r5, [sp, #64]	; 0x40
 8007a02:	3208      	adds	r2, #8
 8007a04:	f1ab 0b08 	sub.w	fp, fp, #8
 8007a08:	eb02 02c5 	add.w	r2, r2, r5, lsl #3
 8007a0c:	ebc5 7545 	rsb	r5, r5, r5, lsl #29
 8007a10:	eb1b 0bc5 	adds.w	fp, fp, r5, lsl #3
 8007a14:	d508      	bpl.n	8007a28 <xmp3_DecodeHuffman+0x314>
 8007a16:	445a      	add	r2, fp
 8007a18:	1e55      	subs	r5, r2, #1
 8007a1a:	f04f 4700 	mov.w	r7, #2147483648	; 0x80000000
 8007a1e:	fa47 f505 	asr.w	r5, r7, r5
 8007a22:	402b      	ands	r3, r5
 8007a24:	f04f 0b00 	mov.w	fp, #0
 8007a28:	9f09      	ldr	r7, [sp, #36]	; 0x24
 8007a2a:	9d07      	ldr	r5, [sp, #28]
 8007a2c:	f8cd 8008 	str.w	r8, [sp, #8]
 8007a30:	fa23 f707 	lsr.w	r7, r3, r7
 8007a34:	1b52      	subs	r2, r2, r5
 8007a36:	370f      	adds	r7, #15
 8007a38:	40ab      	lsls	r3, r5
 8007a3a:	e75f      	b.n	80078fc <xmp3_DecodeHuffman+0x1e8>
 8007a3c:	9c08      	ldr	r4, [sp, #32]
 8007a3e:	eb0b 0102 	add.w	r1, fp, r2
 8007a42:	428c      	cmp	r4, r1
 8007a44:	dcb0      	bgt.n	80079a8 <xmp3_DecodeHuffman+0x294>
 8007a46:	4294      	cmp	r4, r2
 8007a48:	f340 81e6 	ble.w	8007e18 <xmp3_DecodeHuffman+0x704>
 8007a4c:	9907      	ldr	r1, [sp, #28]
 8007a4e:	9d02      	ldr	r5, [sp, #8]
 8007a50:	eba1 0802 	sub.w	r8, r1, r2
 8007a54:	ea4f 08d8 	mov.w	r8, r8, lsr #3
 8007a58:	f108 0e01 	add.w	lr, r8, #1
 8007a5c:	44ae      	add	lr, r5
 8007a5e:	f1c2 0418 	rsb	r4, r2, #24
 8007a62:	f815 1b01 	ldrb.w	r1, [r5], #1
 8007a66:	40a1      	lsls	r1, r4
 8007a68:	4575      	cmp	r5, lr
 8007a6a:	ea43 0301 	orr.w	r3, r3, r1
 8007a6e:	f1a4 0408 	sub.w	r4, r4, #8
 8007a72:	d1f6      	bne.n	8007a62 <xmp3_DecodeHuffman+0x34e>
 8007a74:	3208      	adds	r2, #8
 8007a76:	f1ab 0b08 	sub.w	fp, fp, #8
 8007a7a:	eb02 02c8 	add.w	r2, r2, r8, lsl #3
 8007a7e:	ebc8 7848 	rsb	r8, r8, r8, lsl #29
 8007a82:	eb1b 0bc8 	adds.w	fp, fp, r8, lsl #3
 8007a86:	d508      	bpl.n	8007a9a <xmp3_DecodeHuffman+0x386>
 8007a88:	445a      	add	r2, fp
 8007a8a:	1e51      	subs	r1, r2, #1
 8007a8c:	f04f 4400 	mov.w	r4, #2147483648	; 0x80000000
 8007a90:	fa44 f101 	asr.w	r1, r4, r1
 8007a94:	400b      	ands	r3, r1
 8007a96:	f04f 0b00 	mov.w	fp, #0
 8007a9a:	9909      	ldr	r1, [sp, #36]	; 0x24
 8007a9c:	9c07      	ldr	r4, [sp, #28]
 8007a9e:	f8cd e008 	str.w	lr, [sp, #8]
 8007aa2:	fa23 f101 	lsr.w	r1, r3, r1
 8007aa6:	1b12      	subs	r2, r2, r4
 8007aa8:	310f      	adds	r1, #15
 8007aaa:	40a3      	lsls	r3, r4
 8007aac:	e72a      	b.n	8007904 <xmp3_DecodeHuffman+0x1f0>
 8007aae:	bf00      	nop
 8007ab0:	080116b8 	.word	0x080116b8
 8007ab4:	080117b8 	.word	0x080117b8
 8007ab8:	08011838 	.word	0x08011838
 8007abc:	2300      	movs	r3, #0
 8007abe:	9a01      	ldr	r2, [sp, #4]
 8007ac0:	4293      	cmp	r3, r2
 8007ac2:	f73f af71 	bgt.w	80079a8 <xmp3_DecodeHuffman+0x294>
 8007ac6:	1ad2      	subs	r2, r2, r3
 8007ac8:	9201      	str	r2, [sp, #4]
 8007aca:	9a05      	ldr	r2, [sp, #20]
 8007acc:	9906      	ldr	r1, [sp, #24]
 8007ace:	3204      	adds	r2, #4
 8007ad0:	9205      	str	r2, [sp, #20]
 8007ad2:	680a      	ldr	r2, [r1, #0]
 8007ad4:	4413      	add	r3, r2
 8007ad6:	9a03      	ldr	r2, [sp, #12]
 8007ad8:	eb02 02e3 	add.w	r2, r2, r3, asr #3
 8007adc:	9203      	str	r2, [sp, #12]
 8007ade:	f003 0307 	and.w	r3, r3, #7
 8007ae2:	9a04      	ldr	r2, [sp, #16]
 8007ae4:	600b      	str	r3, [r1, #0]
 8007ae6:	a917      	add	r1, sp, #92	; 0x5c
 8007ae8:	4291      	cmp	r1, r2
 8007aea:	f47f ae92 	bne.w	8007812 <xmp3_DecodeHuffman+0xfe>
 8007aee:	9a01      	ldr	r2, [sp, #4]
 8007af0:	2a00      	cmp	r2, #0
 8007af2:	f340 8180 	ble.w	8007df6 <xmp3_DecodeHuffman+0x6e2>
 8007af6:	9922      	ldr	r1, [sp, #136]	; 0x88
 8007af8:	9a0b      	ldr	r2, [sp, #44]	; 0x2c
 8007afa:	9823      	ldr	r0, [sp, #140]	; 0x8c
 8007afc:	440a      	add	r2, r1
 8007afe:	990c      	ldr	r1, [sp, #48]	; 0x30
 8007b00:	0112      	lsls	r2, r2, #4
 8007b02:	4401      	add	r1, r0
 8007b04:	eb02 02c1 	add.w	r2, r2, r1, lsl #3
 8007b08:	990a      	ldr	r1, [sp, #40]	; 0x28
 8007b0a:	4411      	add	r1, r2
 8007b0c:	425b      	negs	r3, r3
 8007b0e:	6eca      	ldr	r2, [r1, #108]	; 0x6c
 8007b10:	49c3      	ldr	r1, [pc, #780]	; (8007e20 <xmp3_DecodeHuffman+0x70c>)
 8007b12:	f851 9022 	ldr.w	r9, [r1, r2, lsl #2]
 8007b16:	49c3      	ldr	r1, [pc, #780]	; (8007e24 <xmp3_DecodeHuffman+0x710>)
 8007b18:	f013 0307 	ands.w	r3, r3, #7
 8007b1c:	f851 0022 	ldr.w	r0, [r1, r2, lsl #2]
 8007b20:	9a03      	ldr	r2, [sp, #12]
 8007b22:	f040 80c3 	bne.w	8007cac <xmp3_DecodeHuffman+0x598>
 8007b26:	9202      	str	r2, [sp, #8]
 8007b28:	4619      	mov	r1, r3
 8007b2a:	9a13      	ldr	r2, [sp, #76]	; 0x4c
 8007b2c:	9c01      	ldr	r4, [sp, #4]
 8007b2e:	f5c2 7e0f 	rsb	lr, r2, #572	; 0x23c
 8007b32:	f10e 0e01 	add.w	lr, lr, #1
 8007b36:	f1be 0f00 	cmp.w	lr, #0
 8007b3a:	eba4 0b03 	sub.w	fp, r4, r3
 8007b3e:	f340 815a 	ble.w	8007df6 <xmp3_DecodeHuffman+0x6e2>
 8007b42:	9c0d      	ldr	r4, [sp, #52]	; 0x34
 8007b44:	f8df a2e0 	ldr.w	sl, [pc, #736]	; 8007e28 <xmp3_DecodeHuffman+0x714>
 8007b48:	f04f 0c00 	mov.w	ip, #0
 8007b4c:	eb04 0282 	add.w	r2, r4, r2, lsl #2
 8007b50:	f1c0 0820 	rsb	r8, r0, #32
 8007b54:	4667      	mov	r7, ip
 8007b56:	f1bb 0f0f 	cmp.w	fp, #15
 8007b5a:	f340 80af 	ble.w	8007cbc <xmp3_DecodeHuffman+0x5a8>
 8007b5e:	9802      	ldr	r0, [sp, #8]
 8007b60:	7844      	ldrb	r4, [r0, #1]
 8007b62:	f810 5b02 	ldrb.w	r5, [r0], #2
 8007b66:	9002      	str	r0, [sp, #8]
 8007b68:	f1c3 0018 	rsb	r0, r3, #24
 8007b6c:	fa05 f000 	lsl.w	r0, r5, r0
 8007b70:	f1c3 0510 	rsb	r5, r3, #16
 8007b74:	40ac      	lsls	r4, r5
 8007b76:	4320      	orrs	r0, r4
 8007b78:	f1ab 0b10 	sub.w	fp, fp, #16
 8007b7c:	4301      	orrs	r1, r0
 8007b7e:	3310      	adds	r3, #16
 8007b80:	f102 0010 	add.w	r0, r2, #16
 8007b84:	e003      	b.n	8007b8e <xmp3_DecodeHuffman+0x47a>
 8007b86:	2b09      	cmp	r3, #9
 8007b88:	f100 0010 	add.w	r0, r0, #16
 8007b8c:	dde3      	ble.n	8007b56 <xmp3_DecodeHuffman+0x442>
 8007b8e:	fa21 f208 	lsr.w	r2, r1, r8
 8007b92:	444a      	add	r2, r9
 8007b94:	f81a 2002 	ldrb.w	r2, [sl, r2]
 8007b98:	0914      	lsrs	r4, r2, #4
 8007b9a:	f012 0608 	ands.w	r6, r2, #8
 8007b9e:	eba3 1312 	sub.w	r3, r3, r2, lsr #4
 8007ba2:	fa01 f104 	lsl.w	r1, r1, r4
 8007ba6:	d005      	beq.n	8007bb4 <xmp3_DecodeHuffman+0x4a0>
 8007ba8:	f001 4600 	and.w	r6, r1, #2147483648	; 0x80000000
 8007bac:	3b01      	subs	r3, #1
 8007bae:	f046 0601 	orr.w	r6, r6, #1
 8007bb2:	0049      	lsls	r1, r1, #1
 8007bb4:	f012 0504 	ands.w	r5, r2, #4
 8007bb8:	d005      	beq.n	8007bc6 <xmp3_DecodeHuffman+0x4b2>
 8007bba:	f001 4500 	and.w	r5, r1, #2147483648	; 0x80000000
 8007bbe:	3b01      	subs	r3, #1
 8007bc0:	f045 0501 	orr.w	r5, r5, #1
 8007bc4:	0049      	lsls	r1, r1, #1
 8007bc6:	f012 0402 	ands.w	r4, r2, #2
 8007bca:	d005      	beq.n	8007bd8 <xmp3_DecodeHuffman+0x4c4>
 8007bcc:	f001 4400 	and.w	r4, r1, #2147483648	; 0x80000000
 8007bd0:	3b01      	subs	r3, #1
 8007bd2:	f044 0401 	orr.w	r4, r4, #1
 8007bd6:	0049      	lsls	r1, r1, #1
 8007bd8:	f012 0201 	ands.w	r2, r2, #1
 8007bdc:	d005      	beq.n	8007bea <xmp3_DecodeHuffman+0x4d6>
 8007bde:	f001 4200 	and.w	r2, r1, #2147483648	; 0x80000000
 8007be2:	3b01      	subs	r3, #1
 8007be4:	f042 0201 	orr.w	r2, r2, #1
 8007be8:	0049      	lsls	r1, r1, #1
 8007bea:	4563      	cmp	r3, ip
 8007bec:	db07      	blt.n	8007bfe <xmp3_DecodeHuffman+0x4ea>
 8007bee:	3704      	adds	r7, #4
 8007bf0:	45be      	cmp	lr, r7
 8007bf2:	e940 4202 	strd	r4, r2, [r0, #-8]
 8007bf6:	e940 6504 	strd	r6, r5, [r0, #-16]
 8007bfa:	4602      	mov	r2, r0
 8007bfc:	dcc3      	bgt.n	8007b86 <xmp3_DecodeHuffman+0x472>
 8007bfe:	9a12      	ldr	r2, [sp, #72]	; 0x48
 8007c00:	f8d2 3200 	ldr.w	r3, [r2, #512]	; 0x200
 8007c04:	443b      	add	r3, r7
 8007c06:	f5b3 7f10 	cmp.w	r3, #576	; 0x240
 8007c0a:	f8c2 3200 	str.w	r3, [r2, #512]	; 0x200
 8007c0e:	da0a      	bge.n	8007c26 <xmp3_DecodeHuffman+0x512>
 8007c10:	9811      	ldr	r0, [sp, #68]	; 0x44
 8007c12:	9a0e      	ldr	r2, [sp, #56]	; 0x38
 8007c14:	4418      	add	r0, r3
 8007c16:	f5c3 7310 	rsb	r3, r3, #576	; 0x240
 8007c1a:	eb02 0080 	add.w	r0, r2, r0, lsl #2
 8007c1e:	2100      	movs	r1, #0
 8007c20:	009a      	lsls	r2, r3, #2
 8007c22:	f005 facd 	bl	800d1c0 <memset>
 8007c26:	9906      	ldr	r1, [sp, #24]
 8007c28:	9a01      	ldr	r2, [sp, #4]
 8007c2a:	680b      	ldr	r3, [r1, #0]
 8007c2c:	9803      	ldr	r0, [sp, #12]
 8007c2e:	441a      	add	r2, r3
 8007c30:	4613      	mov	r3, r2
 8007c32:	eb00 00e3 	add.w	r0, r0, r3, asr #3
 8007c36:	9b0f      	ldr	r3, [sp, #60]	; 0x3c
 8007c38:	f002 0207 	and.w	r2, r2, #7
 8007c3c:	1ac0      	subs	r0, r0, r3
 8007c3e:	600a      	str	r2, [r1, #0]
 8007c40:	b019      	add	sp, #100	; 0x64
 8007c42:	e8bd 8ff0 	ldmia.w	sp!, {r4, r5, r6, r7, r8, r9, sl, fp, pc}
 8007c46:	9b11      	ldr	r3, [sp, #68]	; 0x44
 8007c48:	9a0e      	ldr	r2, [sp, #56]	; 0x38
 8007c4a:	18fb      	adds	r3, r7, r3
 8007c4c:	eb02 0383 	add.w	r3, r2, r3, lsl #2
 8007c50:	0759      	lsls	r1, r3, #29
 8007c52:	f100 32ff 	add.w	r2, r0, #4294967295
 8007c56:	f040 80d0 	bne.w	8007dfa <xmp3_DecodeHuffman+0x6e6>
 8007c5a:	2a13      	cmp	r2, #19
 8007c5c:	f240 80cd 	bls.w	8007dfa <xmp3_DecodeHuffman+0x6e6>
 8007c60:	0852      	lsrs	r2, r2, #1
 8007c62:	3201      	adds	r2, #1
 8007c64:	2000      	movs	r0, #0
 8007c66:	2100      	movs	r1, #0
 8007c68:	f10e 0e01 	add.w	lr, lr, #1
 8007c6c:	4596      	cmp	lr, r2
 8007c6e:	e8e3 0102 	strd	r0, r1, [r3], #8
 8007c72:	d3f9      	bcc.n	8007c68 <xmp3_DecodeHuffman+0x554>
 8007c74:	2300      	movs	r3, #0
 8007c76:	e728      	b.n	8007aca <xmp3_DecodeHuffman+0x3b6>
 8007c78:	6bd3      	ldr	r3, [r2, #60]	; 0x3c
 8007c7a:	2b02      	cmp	r3, #2
 8007c7c:	f47f ad7d 	bne.w	800777a <xmp3_DecodeHuffman+0x66>
 8007c80:	6c13      	ldr	r3, [r2, #64]	; 0x40
 8007c82:	2b00      	cmp	r3, #0
 8007c84:	f040 80d2 	bne.w	8007e2c <xmp3_DecodeHuffman+0x718>
 8007c88:	6dd2      	ldr	r2, [r2, #92]	; 0x5c
 8007c8a:	6b49      	ldr	r1, [r1, #52]	; 0x34
 8007c8c:	3201      	adds	r2, #1
 8007c8e:	f1a3 33aa 	sub.w	r3, r3, #2863311530	; 0xaaaaaaaa
 8007c92:	fb83 0302 	smull	r0, r3, r3, r2
 8007c96:	eba3 73e2 	sub.w	r3, r3, r2, asr #31
 8007c9a:	eb01 0343 	add.w	r3, r1, r3, lsl #1
 8007c9e:	f44f 7410 	mov.w	r4, #576	; 0x240
 8007ca2:	f9b3 002e 	ldrsh.w	r0, [r3, #46]	; 0x2e
 8007ca6:	eb00 0040 	add.w	r0, r0, r0, lsl #1
 8007caa:	e57b      	b.n	80077a4 <xmp3_DecodeHuffman+0x90>
 8007cac:	f812 4b01 	ldrb.w	r4, [r2], #1
 8007cb0:	9202      	str	r2, [sp, #8]
 8007cb2:	f1c3 0120 	rsb	r1, r3, #32
 8007cb6:	fa04 f101 	lsl.w	r1, r4, r1
 8007cba:	e736      	b.n	8007b2a <xmp3_DecodeHuffman+0x416>
 8007cbc:	eb03 000b 	add.w	r0, r3, fp
 8007cc0:	2800      	cmp	r0, #0
 8007cc2:	dd9c      	ble.n	8007bfe <xmp3_DecodeHuffman+0x4ea>
 8007cc4:	f1bb 0f00 	cmp.w	fp, #0
 8007cc8:	dd08      	ble.n	8007cdc <xmp3_DecodeHuffman+0x5c8>
 8007cca:	9c02      	ldr	r4, [sp, #8]
 8007ccc:	f814 6b01 	ldrb.w	r6, [r4], #1
 8007cd0:	9402      	str	r4, [sp, #8]
 8007cd2:	f1c3 0518 	rsb	r5, r3, #24
 8007cd6:	fa06 f505 	lsl.w	r5, r6, r5
 8007cda:	4329      	orrs	r1, r5
 8007cdc:	f1bb 0f08 	cmp.w	fp, #8
 8007ce0:	dd07      	ble.n	8007cf2 <xmp3_DecodeHuffman+0x5de>
 8007ce2:	9c02      	ldr	r4, [sp, #8]
 8007ce4:	f1c3 0510 	rsb	r5, r3, #16
 8007ce8:	f814 3b01 	ldrb.w	r3, [r4], #1
 8007cec:	9402      	str	r4, [sp, #8]
 8007cee:	40ab      	lsls	r3, r5
 8007cf0:	4319      	orrs	r1, r3
 8007cf2:	1e43      	subs	r3, r0, #1
 8007cf4:	f04f 4400 	mov.w	r4, #2147483648	; 0x80000000
 8007cf8:	fa44 f303 	asr.w	r3, r4, r3
 8007cfc:	4019      	ands	r1, r3
 8007cfe:	f04f 0c0a 	mov.w	ip, #10
 8007d02:	f100 030a 	add.w	r3, r0, #10
 8007d06:	f04f 0b00 	mov.w	fp, #0
 8007d0a:	e739      	b.n	8007b80 <xmp3_DecodeHuffman+0x46c>
 8007d0c:	f839 e018 	ldrh.w	lr, [r9, r8, lsl #1]
 8007d10:	f00e 0e0f 	and.w	lr, lr, #15
 8007d14:	f1ce 0e20 	rsb	lr, lr, #32
 8007d18:	f04f 0800 	mov.w	r8, #0
 8007d1c:	4631      	mov	r1, r6
 8007d1e:	f1bb 0f0f 	cmp.w	fp, #15
 8007d22:	dd43      	ble.n	8007dac <xmp3_DecodeHuffman+0x698>
 8007d24:	786e      	ldrb	r6, [r5, #1]
 8007d26:	f815 4b02 	ldrb.w	r4, [r5], #2
 8007d2a:	f1c2 0718 	rsb	r7, r2, #24
 8007d2e:	40bc      	lsls	r4, r7
 8007d30:	f1c2 0710 	rsb	r7, r2, #16
 8007d34:	40be      	lsls	r6, r7
 8007d36:	4334      	orrs	r4, r6
 8007d38:	f1ab 0b10 	sub.w	fp, fp, #16
 8007d3c:	4323      	orrs	r3, r4
 8007d3e:	3210      	adds	r2, #16
 8007d40:	f101 0408 	add.w	r4, r1, #8
 8007d44:	e001      	b.n	8007d4a <xmp3_DecodeHuffman+0x636>
 8007d46:	2a0a      	cmp	r2, #10
 8007d48:	dde9      	ble.n	8007d1e <xmp3_DecodeHuffman+0x60a>
 8007d4a:	fa23 f10e 	lsr.w	r1, r3, lr
 8007d4e:	3101      	adds	r1, #1
 8007d50:	f83c 1011 	ldrh.w	r1, [ip, r1, lsl #1]
 8007d54:	0b0e      	lsrs	r6, r1, #12
 8007d56:	40b3      	lsls	r3, r6
 8007d58:	f011 0ff0 	tst.w	r1, #240	; 0xf0
 8007d5c:	f3c1 1603 	ubfx	r6, r1, #4, #4
 8007d60:	f003 4700 	and.w	r7, r3, #2147483648	; 0x80000000
 8007d64:	eba2 3211 	sub.w	r2, r2, r1, lsr #12
 8007d68:	bf1b      	ittet	ne
 8007d6a:	4337      	orrne	r7, r6
 8007d6c:	005b      	lslne	r3, r3, #1
 8007d6e:	4637      	moveq	r7, r6
 8007d70:	f102 32ff 	addne.w	r2, r2, #4294967295
 8007d74:	f411 6f70 	tst.w	r1, #3840	; 0xf00
 8007d78:	f3c1 2603 	ubfx	r6, r1, #8, #4
 8007d7c:	f003 4100 	and.w	r1, r3, #2147483648	; 0x80000000
 8007d80:	d002      	beq.n	8007d88 <xmp3_DecodeHuffman+0x674>
 8007d82:	430e      	orrs	r6, r1
 8007d84:	005b      	lsls	r3, r3, #1
 8007d86:	3a01      	subs	r2, #1
 8007d88:	4542      	cmp	r2, r8
 8007d8a:	f1a0 0002 	sub.w	r0, r0, #2
 8007d8e:	4621      	mov	r1, r4
 8007d90:	f6ff ae0a 	blt.w	80079a8 <xmp3_DecodeHuffman+0x294>
 8007d94:	2800      	cmp	r0, #0
 8007d96:	e944 7602 	strd	r7, r6, [r4, #-8]
 8007d9a:	f104 0408 	add.w	r4, r4, #8
 8007d9e:	dcd2      	bgt.n	8007d46 <xmp3_DecodeHuffman+0x632>
 8007da0:	eba2 0308 	sub.w	r3, r2, r8
 8007da4:	9a01      	ldr	r2, [sp, #4]
 8007da6:	445b      	add	r3, fp
 8007da8:	1ad3      	subs	r3, r2, r3
 8007daa:	e059      	b.n	8007e60 <xmp3_DecodeHuffman+0x74c>
 8007dac:	eb0b 0402 	add.w	r4, fp, r2
 8007db0:	2c00      	cmp	r4, #0
 8007db2:	f77f adf9 	ble.w	80079a8 <xmp3_DecodeHuffman+0x294>
 8007db6:	f1bb 0f00 	cmp.w	fp, #0
 8007dba:	dd06      	ble.n	8007dca <xmp3_DecodeHuffman+0x6b6>
 8007dbc:	f815 7b01 	ldrb.w	r7, [r5], #1
 8007dc0:	f1c2 0618 	rsb	r6, r2, #24
 8007dc4:	fa07 f606 	lsl.w	r6, r7, r6
 8007dc8:	4333      	orrs	r3, r6
 8007dca:	f1bb 0f08 	cmp.w	fp, #8
 8007dce:	dd05      	ble.n	8007ddc <xmp3_DecodeHuffman+0x6c8>
 8007dd0:	f1c2 0610 	rsb	r6, r2, #16
 8007dd4:	f815 2b01 	ldrb.w	r2, [r5], #1
 8007dd8:	40b2      	lsls	r2, r6
 8007dda:	4313      	orrs	r3, r2
 8007ddc:	1e62      	subs	r2, r4, #1
 8007dde:	f04f 4600 	mov.w	r6, #2147483648	; 0x80000000
 8007de2:	fa46 f202 	asr.w	r2, r6, r2
 8007de6:	4013      	ands	r3, r2
 8007de8:	f04f 080b 	mov.w	r8, #11
 8007dec:	f104 020b 	add.w	r2, r4, #11
 8007df0:	f04f 0b00 	mov.w	fp, #0
 8007df4:	e7a4      	b.n	8007d40 <xmp3_DecodeHuffman+0x62c>
 8007df6:	2700      	movs	r7, #0
 8007df8:	e701      	b.n	8007bfe <xmp3_DecodeHuffman+0x4ea>
 8007dfa:	2300      	movs	r3, #0
 8007dfc:	1d32      	adds	r2, r6, #4
 8007dfe:	2100      	movs	r1, #0
 8007e00:	f846 1023 	str.w	r1, [r6, r3, lsl #2]
 8007e04:	f842 1023 	str.w	r1, [r2, r3, lsl #2]
 8007e08:	3302      	adds	r3, #2
 8007e0a:	4298      	cmp	r0, r3
 8007e0c:	dcf7      	bgt.n	8007dfe <xmp3_DecodeHuffman+0x6ea>
 8007e0e:	2300      	movs	r3, #0
 8007e10:	e65b      	b.n	8007aca <xmp3_DecodeHuffman+0x3b6>
 8007e12:	f8dd 8008 	ldr.w	r8, [sp, #8]
 8007e16:	e607      	b.n	8007a28 <xmp3_DecodeHuffman+0x314>
 8007e18:	f8dd e008 	ldr.w	lr, [sp, #8]
 8007e1c:	e63d      	b.n	8007a9a <xmp3_DecodeHuffman+0x386>
 8007e1e:	bf00      	nop
 8007e20:	08013964 	.word	0x08013964
 8007e24:	0801395c 	.word	0x0801395c
 8007e28:	0801396c 	.word	0x0801396c
 8007e2c:	780b      	ldrb	r3, [r1, #0]
 8007e2e:	b9db      	cbnz	r3, 8007e68 <xmp3_DecodeHuffman+0x754>
 8007e30:	6b4a      	ldr	r2, [r1, #52]	; 0x34
 8007e32:	9922      	ldr	r1, [sp, #136]	; 0x88
 8007e34:	4603      	mov	r3, r0
 8007e36:	440b      	add	r3, r1
 8007e38:	9823      	ldr	r0, [sp, #140]	; 0x8c
 8007e3a:	990c      	ldr	r1, [sp, #48]	; 0x30
 8007e3c:	011b      	lsls	r3, r3, #4
 8007e3e:	4401      	add	r1, r0
 8007e40:	eb03 03c1 	add.w	r3, r3, r1, lsl #3
 8007e44:	990a      	ldr	r1, [sp, #40]	; 0x28
 8007e46:	440b      	add	r3, r1
 8007e48:	f44f 7410 	mov.w	r4, #576	; 0x240
 8007e4c:	6ddb      	ldr	r3, [r3, #92]	; 0x5c
 8007e4e:	3301      	adds	r3, #1
 8007e50:	f932 0013 	ldrsh.w	r0, [r2, r3, lsl #1]
 8007e54:	e4a6      	b.n	80077a4 <xmp3_DecodeHuffman+0x90>
 8007e56:	eba2 0309 	sub.w	r3, r2, r9
 8007e5a:	9a01      	ldr	r2, [sp, #4]
 8007e5c:	445b      	add	r3, fp
 8007e5e:	1ad3      	subs	r3, r2, r3
 8007e60:	2b00      	cmp	r3, #0
 8007e62:	f6bf ae2c 	bge.w	8007abe <xmp3_DecodeHuffman+0x3aa>
 8007e66:	e59f      	b.n	80079a8 <xmp3_DecodeHuffman+0x294>
 8007e68:	6b4a      	ldr	r2, [r1, #52]	; 0x34
 8007e6a:	f9b2 0034 	ldrsh.w	r0, [r2, #52]	; 0x34
 8007e6e:	f9b2 3036 	ldrsh.w	r3, [r2, #54]	; 0x36
 8007e72:	1a1b      	subs	r3, r3, r0
 8007e74:	f9b2 000c 	ldrsh.w	r0, [r2, #12]
 8007e78:	f44f 7410 	mov.w	r4, #576	; 0x240
 8007e7c:	eb00 0043 	add.w	r0, r0, r3, lsl #1
 8007e80:	e490      	b.n	80077a4 <xmp3_DecodeHuffman+0x90>
 8007e82:	bf00      	nop

08007e84 <WinPrevious.part.0>:
 8007e84:	4b37      	ldr	r3, [pc, #220]	; (8007f64 <WinPrevious.part.0+0xe0>)
 8007e86:	6882      	ldr	r2, [r0, #8]
 8007e88:	e92d 47f0 	stmdb	sp!, {r4, r5, r6, r7, r8, r9, sl, lr}
 8007e8c:	f8d3 7138 	ldr.w	r7, [r3, #312]	; 0x138
 8007e90:	fb87 4202 	smull	r4, r2, r7, r2
 8007e94:	6984      	ldr	r4, [r0, #24]
 8007e96:	f8d3 5120 	ldr.w	r5, [r3, #288]	; 0x120
 8007e9a:	fb85 6404 	smull	r6, r4, r5, r4
 8007e9e:	4422      	add	r2, r4
 8007ea0:	600a      	str	r2, [r1, #0]
 8007ea2:	f8d3 613c 	ldr.w	r6, [r3, #316]	; 0x13c
 8007ea6:	6842      	ldr	r2, [r0, #4]
 8007ea8:	fb86 4202 	smull	r4, r2, r6, r2
 8007eac:	69c4      	ldr	r4, [r0, #28]
 8007eae:	f8d3 5124 	ldr.w	r5, [r3, #292]	; 0x124
 8007eb2:	fb85 c404 	smull	ip, r4, r5, r4
 8007eb6:	4422      	add	r2, r4
 8007eb8:	604a      	str	r2, [r1, #4]
 8007eba:	6802      	ldr	r2, [r0, #0]
 8007ebc:	f8d3 5140 	ldr.w	r5, [r3, #320]	; 0x140
 8007ec0:	fb85 4202 	smull	r4, r2, r5, r2
 8007ec4:	6a04      	ldr	r4, [r0, #32]
 8007ec6:	46a4      	mov	ip, r4
 8007ec8:	f8d3 4128 	ldr.w	r4, [r3, #296]	; 0x128
 8007ecc:	fb84 ec0c 	smull	lr, ip, r4, ip
 8007ed0:	4462      	add	r2, ip
 8007ed2:	608a      	str	r2, [r1, #8]
 8007ed4:	6802      	ldr	r2, [r0, #0]
 8007ed6:	f8d3 a144 	ldr.w	sl, [r3, #324]	; 0x144
 8007eda:	4694      	mov	ip, r2
 8007edc:	fb8a 2c0c 	smull	r2, ip, sl, ip
 8007ee0:	6a02      	ldr	r2, [r0, #32]
 8007ee2:	f8d3 412c 	ldr.w	r4, [r3, #300]	; 0x12c
 8007ee6:	fb84 e202 	smull	lr, r2, r4, r2
 8007eea:	4462      	add	r2, ip
 8007eec:	60ca      	str	r2, [r1, #12]
 8007eee:	6842      	ldr	r2, [r0, #4]
 8007ef0:	f8d3 c148 	ldr.w	ip, [r3, #328]	; 0x148
 8007ef4:	fb8c e202 	smull	lr, r2, ip, r2
 8007ef8:	f8d0 e01c 	ldr.w	lr, [r0, #28]
 8007efc:	f8d3 4130 	ldr.w	r4, [r3, #304]	; 0x130
 8007f00:	fb84 8e0e 	smull	r8, lr, r4, lr
 8007f04:	4472      	add	r2, lr
 8007f06:	610a      	str	r2, [r1, #16]
 8007f08:	6882      	ldr	r2, [r0, #8]
 8007f0a:	f8d3 e14c 	ldr.w	lr, [r3, #332]	; 0x14c
 8007f0e:	fb8e 8202 	smull	r8, r2, lr, r2
 8007f12:	f8d3 8134 	ldr.w	r8, [r3, #308]	; 0x134
 8007f16:	6983      	ldr	r3, [r0, #24]
 8007f18:	fb88 9303 	smull	r9, r3, r8, r3
 8007f1c:	441a      	add	r2, r3
 8007f1e:	614a      	str	r2, [r1, #20]
 8007f20:	6943      	ldr	r3, [r0, #20]
 8007f22:	fb87 2303 	smull	r2, r3, r7, r3
 8007f26:	618b      	str	r3, [r1, #24]
 8007f28:	6903      	ldr	r3, [r0, #16]
 8007f2a:	fb86 2303 	smull	r2, r3, r6, r3
 8007f2e:	61cb      	str	r3, [r1, #28]
 8007f30:	68c3      	ldr	r3, [r0, #12]
 8007f32:	fb85 2303 	smull	r2, r3, r5, r3
 8007f36:	620b      	str	r3, [r1, #32]
 8007f38:	68c3      	ldr	r3, [r0, #12]
 8007f3a:	fb8a 2303 	smull	r2, r3, sl, r3
 8007f3e:	624b      	str	r3, [r1, #36]	; 0x24
 8007f40:	6903      	ldr	r3, [r0, #16]
 8007f42:	fb8c 2303 	smull	r2, r3, ip, r3
 8007f46:	628b      	str	r3, [r1, #40]	; 0x28
 8007f48:	6942      	ldr	r2, [r0, #20]
 8007f4a:	fb8e 3202 	smull	r3, r2, lr, r2
 8007f4e:	2300      	movs	r3, #0
 8007f50:	e9c1 3310 	strd	r3, r3, [r1, #64]	; 0x40
 8007f54:	e9c1 330e 	strd	r3, r3, [r1, #56]	; 0x38
 8007f58:	e9c1 330c 	strd	r3, r3, [r1, #48]	; 0x30
 8007f5c:	62ca      	str	r2, [r1, #44]	; 0x2c
 8007f5e:	e8bd 87f0 	ldmia.w	sp!, {r4, r5, r6, r7, r8, r9, sl, pc}
 8007f62:	bf00      	nop
 8007f64:	080140d0 	.word	0x080140d0

08007f68 <FreqInvertRescale>:
 8007f68:	e92d 4ff0 	stmdb	sp!, {r4, r5, r6, r7, r8, r9, sl, fp, lr}
 8007f6c:	b08b      	sub	sp, #44	; 0x2c
 8007f6e:	bba3      	cbnz	r3, 8007fda <FreqInvertRescale+0x72>
 8007f70:	f012 0e01 	ands.w	lr, r2, #1
 8007f74:	d02d      	beq.n	8007fd2 <FreqInvertRescale+0x6a>
 8007f76:	f8d0 1280 	ldr.w	r1, [r0, #640]	; 0x280
 8007f7a:	f8d0 2380 	ldr.w	r2, [r0, #896]	; 0x380
 8007f7e:	f8d0 4180 	ldr.w	r4, [r0, #384]	; 0x180
 8007f82:	4249      	negs	r1, r1
 8007f84:	4252      	negs	r2, r2
 8007f86:	f8c0 1280 	str.w	r1, [r0, #640]	; 0x280
 8007f8a:	f8c0 2380 	str.w	r2, [r0, #896]	; 0x380
 8007f8e:	f8d0 1480 	ldr.w	r1, [r0, #1152]	; 0x480
 8007f92:	f8d0 2580 	ldr.w	r2, [r0, #1408]	; 0x580
 8007f96:	469e      	mov	lr, r3
 8007f98:	f8d0 3680 	ldr.w	r3, [r0, #1664]	; 0x680
 8007f9c:	4249      	negs	r1, r1
 8007f9e:	4252      	negs	r2, r2
 8007fa0:	425b      	negs	r3, r3
 8007fa2:	f8c0 1480 	str.w	r1, [r0, #1152]	; 0x480
 8007fa6:	f8c0 2580 	str.w	r2, [r0, #1408]	; 0x580
 8007faa:	f8d0 1080 	ldr.w	r1, [r0, #128]	; 0x80
 8007fae:	f8d0 2780 	ldr.w	r2, [r0, #1920]	; 0x780
 8007fb2:	f8c0 3680 	str.w	r3, [r0, #1664]	; 0x680
 8007fb6:	f8d0 3880 	ldr.w	r3, [r0, #2176]	; 0x880
 8007fba:	4264      	negs	r4, r4
 8007fbc:	4252      	negs	r2, r2
 8007fbe:	4249      	negs	r1, r1
 8007fc0:	425b      	negs	r3, r3
 8007fc2:	f8c0 4180 	str.w	r4, [r0, #384]	; 0x180
 8007fc6:	f8c0 1080 	str.w	r1, [r0, #128]	; 0x80
 8007fca:	f8c0 2780 	str.w	r2, [r0, #1920]	; 0x780
 8007fce:	f8c0 3880 	str.w	r3, [r0, #2176]	; 0x880
 8007fd2:	4670      	mov	r0, lr
 8007fd4:	b00b      	add	sp, #44	; 0x2c
 8007fd6:	e8bd 8ff0 	ldmia.w	sp!, {r4, r5, r6, r7, r8, r9, sl, fp, pc}
 8007fda:	07d2      	lsls	r2, r2, #31
 8007fdc:	d54b      	bpl.n	8008076 <FreqInvertRescale+0x10e>
 8007fde:	f04f 4700 	mov.w	r7, #2147483648	; 0x80000000
 8007fe2:	40df      	lsrs	r7, r3
 8007fe4:	f04f 0e00 	mov.w	lr, #0
 8007fe8:	3f01      	subs	r7, #1
 8007fea:	f1c3 061f 	rsb	r6, r3, #31
 8007fee:	f100 0580 	add.w	r5, r0, #128	; 0x80
 8007ff2:	f500 6810 	add.w	r8, r0, #2304	; 0x900
 8007ff6:	46f4      	mov	ip, lr
 8007ff8:	f855 2c80 	ldr.w	r2, [r5, #-128]
 8007ffc:	fa42 f906 	asr.w	r9, r2, r6
 8008000:	ea4f 7ae2 	mov.w	sl, r2, asr #31
 8008004:	ebb9 7fe2 	cmp.w	r9, r2, asr #31
 8008008:	bf18      	it	ne
 800800a:	ea8a 0207 	eorne.w	r2, sl, r7
 800800e:	409a      	lsls	r2, r3
 8008010:	4664      	mov	r4, ip
 8008012:	f845 2c80 	str.w	r2, [r5, #-128]
 8008016:	ea82 74e2 	eor.w	r4, r2, r2, asr #31
 800801a:	eba4 74e2 	sub.w	r4, r4, r2, asr #31
 800801e:	f8d0 2080 	ldr.w	r2, [r0, #128]	; 0x80
 8008022:	4252      	negs	r2, r2
 8008024:	fa42 fa06 	asr.w	sl, r2, r6
 8008028:	ea4f 7be2 	mov.w	fp, r2, asr #31
 800802c:	ebba 7fe2 	cmp.w	sl, r2, asr #31
 8008030:	bf18      	it	ne
 8008032:	ea87 020b 	eorne.w	r2, r7, fp
 8008036:	409a      	lsls	r2, r3
 8008038:	46e1      	mov	r9, ip
 800803a:	f8c0 2080 	str.w	r2, [r0, #128]	; 0x80
 800803e:	ea82 79e2 	eor.w	r9, r2, r2, asr #31
 8008042:	eba9 79e2 	sub.w	r9, r9, r2, asr #31
 8008046:	ea44 0409 	orr.w	r4, r4, r9
 800804a:	ea4e 0e04 	orr.w	lr, lr, r4
 800804e:	680c      	ldr	r4, [r1, #0]
 8008050:	17e2      	asrs	r2, r4, #31
 8008052:	fa44 f906 	asr.w	r9, r4, r6
 8008056:	407a      	eors	r2, r7
 8008058:	ebb9 7fe4 	cmp.w	r9, r4, asr #31
 800805c:	f500 7080 	add.w	r0, r0, #256	; 0x100
 8008060:	fa02 f203 	lsl.w	r2, r2, r3
 8008064:	f000 81fc 	beq.w	8008460 <FreqInvertRescale+0x4f8>
 8008068:	4540      	cmp	r0, r8
 800806a:	f841 2b04 	str.w	r2, [r1], #4
 800806e:	f505 7580 	add.w	r5, r5, #256	; 0x100
 8008072:	d1c1      	bne.n	8007ff8 <FreqInvertRescale+0x90>
 8008074:	e7ad      	b.n	8007fd2 <FreqInvertRescale+0x6a>
 8008076:	6804      	ldr	r4, [r0, #0]
 8008078:	f1c3 021f 	rsb	r2, r3, #31
 800807c:	f04f 4c00 	mov.w	ip, #2147483648	; 0x80000000
 8008080:	fa44 f502 	asr.w	r5, r4, r2
 8008084:	fa2c fc03 	lsr.w	ip, ip, r3
 8008088:	17e6      	asrs	r6, r4, #31
 800808a:	ebb5 7fe4 	cmp.w	r5, r4, asr #31
 800808e:	f10c 3cff 	add.w	ip, ip, #4294967295
 8008092:	bf18      	it	ne
 8008094:	ea8c 0406 	eorne.w	r4, ip, r6
 8008098:	409c      	lsls	r4, r3
 800809a:	6004      	str	r4, [r0, #0]
 800809c:	2600      	movs	r6, #0
 800809e:	ea84 76e4 	eor.w	r6, r4, r4, asr #31
 80080a2:	eba6 76e4 	sub.w	r6, r6, r4, asr #31
 80080a6:	f8d0 5080 	ldr.w	r5, [r0, #128]	; 0x80
 80080aa:	fa45 f402 	asr.w	r4, r5, r2
 80080ae:	ebb4 7fe5 	cmp.w	r4, r5, asr #31
 80080b2:	ea4f 77e5 	mov.w	r7, r5, asr #31
 80080b6:	bf18      	it	ne
 80080b8:	ea8c 0507 	eorne.w	r5, ip, r7
 80080bc:	409d      	lsls	r5, r3
 80080be:	f8c0 5080 	str.w	r5, [r0, #128]	; 0x80
 80080c2:	2400      	movs	r4, #0
 80080c4:	ea85 74e5 	eor.w	r4, r5, r5, asr #31
 80080c8:	eba4 74e5 	sub.w	r4, r4, r5, asr #31
 80080cc:	4334      	orrs	r4, r6
 80080ce:	9400      	str	r4, [sp, #0]
 80080d0:	680c      	ldr	r4, [r1, #0]
 80080d2:	fa44 f502 	asr.w	r5, r4, r2
 80080d6:	ebb5 7fe4 	cmp.w	r5, r4, asr #31
 80080da:	ea4f 76e4 	mov.w	r6, r4, asr #31
 80080de:	bf18      	it	ne
 80080e0:	ea86 040c 	eorne.w	r4, r6, ip
 80080e4:	409c      	lsls	r4, r3
 80080e6:	600c      	str	r4, [r1, #0]
 80080e8:	f8d0 4100 	ldr.w	r4, [r0, #256]	; 0x100
 80080ec:	fa44 f502 	asr.w	r5, r4, r2
 80080f0:	ebb5 7fe4 	cmp.w	r5, r4, asr #31
 80080f4:	ea4f 76e4 	mov.w	r6, r4, asr #31
 80080f8:	bf18      	it	ne
 80080fa:	ea8c 0406 	eorne.w	r4, ip, r6
 80080fe:	409c      	lsls	r4, r3
 8008100:	f8c0 4100 	str.w	r4, [r0, #256]	; 0x100
 8008104:	2500      	movs	r5, #0
 8008106:	ea84 75e4 	eor.w	r5, r4, r4, asr #31
 800810a:	eba5 75e4 	sub.w	r5, r5, r4, asr #31
 800810e:	f8d0 4180 	ldr.w	r4, [r0, #384]	; 0x180
 8008112:	9501      	str	r5, [sp, #4]
 8008114:	fa44 f502 	asr.w	r5, r4, r2
 8008118:	ebb5 7fe4 	cmp.w	r5, r4, asr #31
 800811c:	ea4f 76e4 	mov.w	r6, r4, asr #31
 8008120:	bf18      	it	ne
 8008122:	ea8c 0406 	eorne.w	r4, ip, r6
 8008126:	409c      	lsls	r4, r3
 8008128:	f8c0 4180 	str.w	r4, [r0, #384]	; 0x180
 800812c:	2500      	movs	r5, #0
 800812e:	ea84 75e4 	eor.w	r5, r4, r4, asr #31
 8008132:	eba5 75e4 	sub.w	r5, r5, r4, asr #31
 8008136:	684c      	ldr	r4, [r1, #4]
 8008138:	9502      	str	r5, [sp, #8]
 800813a:	fa44 f502 	asr.w	r5, r4, r2
 800813e:	ebb5 7fe4 	cmp.w	r5, r4, asr #31
 8008142:	ea4f 76e4 	mov.w	r6, r4, asr #31
 8008146:	bf18      	it	ne
 8008148:	ea8c 0406 	eorne.w	r4, ip, r6
 800814c:	409c      	lsls	r4, r3
 800814e:	604c      	str	r4, [r1, #4]
 8008150:	f8d0 4200 	ldr.w	r4, [r0, #512]	; 0x200
 8008154:	fa44 f502 	asr.w	r5, r4, r2
 8008158:	ebb5 7fe4 	cmp.w	r5, r4, asr #31
 800815c:	ea4f 76e4 	mov.w	r6, r4, asr #31
 8008160:	bf18      	it	ne
 8008162:	ea8c 0406 	eorne.w	r4, ip, r6
 8008166:	409c      	lsls	r4, r3
 8008168:	f8c0 4200 	str.w	r4, [r0, #512]	; 0x200
 800816c:	2500      	movs	r5, #0
 800816e:	ea84 75e4 	eor.w	r5, r4, r4, asr #31
 8008172:	eba5 75e4 	sub.w	r5, r5, r4, asr #31
 8008176:	f8d0 4280 	ldr.w	r4, [r0, #640]	; 0x280
 800817a:	9503      	str	r5, [sp, #12]
 800817c:	fa44 f502 	asr.w	r5, r4, r2
 8008180:	ebb5 7fe4 	cmp.w	r5, r4, asr #31
 8008184:	ea4f 76e4 	mov.w	r6, r4, asr #31
 8008188:	bf18      	it	ne
 800818a:	ea8c 0406 	eorne.w	r4, ip, r6
 800818e:	409c      	lsls	r4, r3
 8008190:	f8c0 4280 	str.w	r4, [r0, #640]	; 0x280
 8008194:	2500      	movs	r5, #0
 8008196:	ea84 75e4 	eor.w	r5, r4, r4, asr #31
 800819a:	eba5 75e4 	sub.w	r5, r5, r4, asr #31
 800819e:	688c      	ldr	r4, [r1, #8]
 80081a0:	9504      	str	r5, [sp, #16]
 80081a2:	fa44 f502 	asr.w	r5, r4, r2
 80081a6:	ebb5 7fe4 	cmp.w	r5, r4, asr #31
 80081aa:	ea4f 76e4 	mov.w	r6, r4, asr #31
 80081ae:	bf18      	it	ne
 80081b0:	ea8c 0406 	eorne.w	r4, ip, r6
 80081b4:	409c      	lsls	r4, r3
 80081b6:	608c      	str	r4, [r1, #8]
 80081b8:	f8d0 4300 	ldr.w	r4, [r0, #768]	; 0x300
 80081bc:	fa44 f502 	asr.w	r5, r4, r2
 80081c0:	ebb5 7fe4 	cmp.w	r5, r4, asr #31
 80081c4:	ea4f 76e4 	mov.w	r6, r4, asr #31
 80081c8:	bf18      	it	ne
 80081ca:	ea8c 0406 	eorne.w	r4, ip, r6
 80081ce:	409c      	lsls	r4, r3
 80081d0:	f8c0 4300 	str.w	r4, [r0, #768]	; 0x300
 80081d4:	2500      	movs	r5, #0
 80081d6:	ea84 75e4 	eor.w	r5, r4, r4, asr #31
 80081da:	eba5 75e4 	sub.w	r5, r5, r4, asr #31
 80081de:	f8d0 4380 	ldr.w	r4, [r0, #896]	; 0x380
 80081e2:	9505      	str	r5, [sp, #20]
 80081e4:	fa44 f502 	asr.w	r5, r4, r2
 80081e8:	ebb5 7fe4 	cmp.w	r5, r4, asr #31
 80081ec:	ea4f 76e4 	mov.w	r6, r4, asr #31
 80081f0:	bf18      	it	ne
 80081f2:	ea8c 0406 	eorne.w	r4, ip, r6
 80081f6:	409c      	lsls	r4, r3
 80081f8:	f8c0 4380 	str.w	r4, [r0, #896]	; 0x380
 80081fc:	2500      	movs	r5, #0
 80081fe:	ea84 75e4 	eor.w	r5, r4, r4, asr #31
 8008202:	eba5 75e4 	sub.w	r5, r5, r4, asr #31
 8008206:	68cc      	ldr	r4, [r1, #12]
 8008208:	9506      	str	r5, [sp, #24]
 800820a:	fa44 f502 	asr.w	r5, r4, r2
 800820e:	ebb5 7fe4 	cmp.w	r5, r4, asr #31
 8008212:	ea4f 76e4 	mov.w	r6, r4, asr #31
 8008216:	bf18      	it	ne
 8008218:	ea8c 0406 	eorne.w	r4, ip, r6
 800821c:	409c      	lsls	r4, r3
 800821e:	60cc      	str	r4, [r1, #12]
 8008220:	f8d0 4400 	ldr.w	r4, [r0, #1024]	; 0x400
 8008224:	fa44 f502 	asr.w	r5, r4, r2
 8008228:	ebb5 7fe4 	cmp.w	r5, r4, asr #31
 800822c:	ea4f 76e4 	mov.w	r6, r4, asr #31
 8008230:	bf18      	it	ne
 8008232:	ea8c 0406 	eorne.w	r4, ip, r6
 8008236:	409c      	lsls	r4, r3
 8008238:	f8c0 4400 	str.w	r4, [r0, #1024]	; 0x400
 800823c:	2500      	movs	r5, #0
 800823e:	ea84 75e4 	eor.w	r5, r4, r4, asr #31
 8008242:	eba5 75e4 	sub.w	r5, r5, r4, asr #31
 8008246:	f8d0 4480 	ldr.w	r4, [r0, #1152]	; 0x480
 800824a:	9507      	str	r5, [sp, #28]
 800824c:	fa44 f502 	asr.w	r5, r4, r2
 8008250:	ebb5 7fe4 	cmp.w	r5, r4, asr #31
 8008254:	ea4f 76e4 	mov.w	r6, r4, asr #31
 8008258:	bf18      	it	ne
 800825a:	ea8c 0406 	eorne.w	r4, ip, r6
 800825e:	409c      	lsls	r4, r3
 8008260:	f8c0 4480 	str.w	r4, [r0, #1152]	; 0x480
 8008264:	2500      	movs	r5, #0
 8008266:	ea84 75e4 	eor.w	r5, r4, r4, asr #31
 800826a:	eba5 75e4 	sub.w	r5, r5, r4, asr #31
 800826e:	690c      	ldr	r4, [r1, #16]
 8008270:	9508      	str	r5, [sp, #32]
 8008272:	fa44 f502 	asr.w	r5, r4, r2
 8008276:	ebb5 7fe4 	cmp.w	r5, r4, asr #31
 800827a:	ea4f 76e4 	mov.w	r6, r4, asr #31
 800827e:	bf18      	it	ne
 8008280:	ea8c 0406 	eorne.w	r4, ip, r6
 8008284:	409c      	lsls	r4, r3
 8008286:	610c      	str	r4, [r1, #16]
 8008288:	f8d0 4500 	ldr.w	r4, [r0, #1280]	; 0x500
 800828c:	fa44 f502 	asr.w	r5, r4, r2
 8008290:	17e6      	asrs	r6, r4, #31
 8008292:	ebb5 7fe4 	cmp.w	r5, r4, asr #31
 8008296:	bf18      	it	ne
 8008298:	ea8c 0406 	eorne.w	r4, ip, r6
 800829c:	409c      	lsls	r4, r3
 800829e:	f8c0 4500 	str.w	r4, [r0, #1280]	; 0x500
 80082a2:	f04f 0900 	mov.w	r9, #0
 80082a6:	ea84 79e4 	eor.w	r9, r4, r4, asr #31
 80082aa:	eba9 79e4 	sub.w	r9, r9, r4, asr #31
 80082ae:	f8d0 4580 	ldr.w	r4, [r0, #1408]	; 0x580
 80082b2:	fa44 f502 	asr.w	r5, r4, r2
 80082b6:	ebb5 7fe4 	cmp.w	r5, r4, asr #31
 80082ba:	ea4f 76e4 	mov.w	r6, r4, asr #31
 80082be:	bf18      	it	ne
 80082c0:	ea8c 0406 	eorne.w	r4, ip, r6
 80082c4:	409c      	lsls	r4, r3
 80082c6:	2500      	movs	r5, #0
 80082c8:	f8c0 4580 	str.w	r4, [r0, #1408]	; 0x580
 80082cc:	46ab      	mov	fp, r5
 80082ce:	ea84 7be4 	eor.w	fp, r4, r4, asr #31
 80082d2:	ebab 7be4 	sub.w	fp, fp, r4, asr #31
 80082d6:	694c      	ldr	r4, [r1, #20]
 80082d8:	fa44 f502 	asr.w	r5, r4, r2
 80082dc:	ebb5 7fe4 	cmp.w	r5, r4, asr #31
 80082e0:	ea4f 76e4 	mov.w	r6, r4, asr #31
 80082e4:	bf18      	it	ne
 80082e6:	ea8c 0406 	eorne.w	r4, ip, r6
 80082ea:	409c      	lsls	r4, r3
 80082ec:	614c      	str	r4, [r1, #20]
 80082ee:	f8d0 4600 	ldr.w	r4, [r0, #1536]	; 0x600
 80082f2:	fa44 f502 	asr.w	r5, r4, r2
 80082f6:	17e6      	asrs	r6, r4, #31
 80082f8:	ebb5 7fe4 	cmp.w	r5, r4, asr #31
 80082fc:	bf18      	it	ne
 80082fe:	ea8c 0406 	eorne.w	r4, ip, r6
 8008302:	409c      	lsls	r4, r3
 8008304:	f8c0 4600 	str.w	r4, [r0, #1536]	; 0x600
 8008308:	f04f 0800 	mov.w	r8, #0
 800830c:	ea84 78e4 	eor.w	r8, r4, r4, asr #31
 8008310:	eba8 78e4 	sub.w	r8, r8, r4, asr #31
 8008314:	f8d0 4680 	ldr.w	r4, [r0, #1664]	; 0x680
 8008318:	fa44 f502 	asr.w	r5, r4, r2
 800831c:	17e6      	asrs	r6, r4, #31
 800831e:	ebb5 7fe4 	cmp.w	r5, r4, asr #31
 8008322:	bf18      	it	ne
 8008324:	ea8c 0406 	eorne.w	r4, ip, r6
 8008328:	409c      	lsls	r4, r3
 800832a:	f8c0 4680 	str.w	r4, [r0, #1664]	; 0x680
 800832e:	2700      	movs	r7, #0
 8008330:	ea84 77e4 	eor.w	r7, r4, r4, asr #31
 8008334:	eba7 77e4 	sub.w	r7, r7, r4, asr #31
 8008338:	698c      	ldr	r4, [r1, #24]
 800833a:	fa44 f502 	asr.w	r5, r4, r2
 800833e:	ebb5 7fe4 	cmp.w	r5, r4, asr #31
 8008342:	ea4f 76e4 	mov.w	r6, r4, asr #31
 8008346:	bf18      	it	ne
 8008348:	ea8c 0406 	eorne.w	r4, ip, r6
 800834c:	409c      	lsls	r4, r3
 800834e:	618c      	str	r4, [r1, #24]
 8008350:	f8d0 4700 	ldr.w	r4, [r0, #1792]	; 0x700
 8008354:	fa44 f502 	asr.w	r5, r4, r2
 8008358:	17e6      	asrs	r6, r4, #31
 800835a:	ebb5 7fe4 	cmp.w	r5, r4, asr #31
 800835e:	bf18      	it	ne
 8008360:	ea8c 0406 	eorne.w	r4, ip, r6
 8008364:	409c      	lsls	r4, r3
 8008366:	f8c0 4700 	str.w	r4, [r0, #1792]	; 0x700
 800836a:	2600      	movs	r6, #0
 800836c:	ea84 76e4 	eor.w	r6, r4, r4, asr #31
 8008370:	eba6 76e4 	sub.w	r6, r6, r4, asr #31
 8008374:	f8d0 4780 	ldr.w	r4, [r0, #1920]	; 0x780
 8008378:	fa44 f502 	asr.w	r5, r4, r2
 800837c:	ebb5 7fe4 	cmp.w	r5, r4, asr #31
 8008380:	ea4f 7ee4 	mov.w	lr, r4, asr #31
 8008384:	bf18      	it	ne
 8008386:	ea8c 040e 	eorne.w	r4, ip, lr
 800838a:	409c      	lsls	r4, r3
 800838c:	f8c0 4780 	str.w	r4, [r0, #1920]	; 0x780
 8008390:	2500      	movs	r5, #0
 8008392:	ea84 75e4 	eor.w	r5, r4, r4, asr #31
 8008396:	eba5 75e4 	sub.w	r5, r5, r4, asr #31
 800839a:	69cc      	ldr	r4, [r1, #28]
 800839c:	9509      	str	r5, [sp, #36]	; 0x24
 800839e:	fa44 fe02 	asr.w	lr, r4, r2
 80083a2:	ebbe 7fe4 	cmp.w	lr, r4, asr #31
 80083a6:	ea4f 7ae4 	mov.w	sl, r4, asr #31
 80083aa:	bf18      	it	ne
 80083ac:	ea8c 040a 	eorne.w	r4, ip, sl
 80083b0:	409c      	lsls	r4, r3
 80083b2:	61cc      	str	r4, [r1, #28]
 80083b4:	f8d0 4800 	ldr.w	r4, [r0, #2048]	; 0x800
 80083b8:	fa44 fe02 	asr.w	lr, r4, r2
 80083bc:	ebbe 7fe4 	cmp.w	lr, r4, asr #31
 80083c0:	ea4f 7ae4 	mov.w	sl, r4, asr #31
 80083c4:	bf18      	it	ne
 80083c6:	ea8a 040c 	eorne.w	r4, sl, ip
 80083ca:	409c      	lsls	r4, r3
 80083cc:	f8c0 4800 	str.w	r4, [r0, #2048]	; 0x800
 80083d0:	f04f 0e00 	mov.w	lr, #0
 80083d4:	ea84 7ee4 	eor.w	lr, r4, r4, asr #31
 80083d8:	ebae 7ee4 	sub.w	lr, lr, r4, asr #31
 80083dc:	f8d0 4880 	ldr.w	r4, [r0, #2176]	; 0x880
 80083e0:	fa44 fa02 	asr.w	sl, r4, r2
 80083e4:	17e5      	asrs	r5, r4, #31
 80083e6:	ebba 7fe4 	cmp.w	sl, r4, asr #31
 80083ea:	bf18      	it	ne
 80083ec:	ea8c 0405 	eorne.w	r4, ip, r5
 80083f0:	409c      	lsls	r4, r3
 80083f2:	f8c0 4880 	str.w	r4, [r0, #2176]	; 0x880
 80083f6:	2000      	movs	r0, #0
 80083f8:	ea84 70e4 	eor.w	r0, r4, r4, asr #31
 80083fc:	eba0 70e4 	sub.w	r0, r0, r4, asr #31
 8008400:	e9dd 4500 	ldrd	r4, r5, [sp]
 8008404:	432c      	orrs	r4, r5
 8008406:	9d02      	ldr	r5, [sp, #8]
 8008408:	432c      	orrs	r4, r5
 800840a:	9d03      	ldr	r5, [sp, #12]
 800840c:	432c      	orrs	r4, r5
 800840e:	9d04      	ldr	r5, [sp, #16]
 8008410:	432c      	orrs	r4, r5
 8008412:	9d05      	ldr	r5, [sp, #20]
 8008414:	432c      	orrs	r4, r5
 8008416:	9d06      	ldr	r5, [sp, #24]
 8008418:	432c      	orrs	r4, r5
 800841a:	9d07      	ldr	r5, [sp, #28]
 800841c:	432c      	orrs	r4, r5
 800841e:	9d08      	ldr	r5, [sp, #32]
 8008420:	432c      	orrs	r4, r5
 8008422:	ea44 0909 	orr.w	r9, r4, r9
 8008426:	ea49 090b 	orr.w	r9, r9, fp
 800842a:	ea49 0808 	orr.w	r8, r9, r8
 800842e:	9d09      	ldr	r5, [sp, #36]	; 0x24
 8008430:	ea48 0707 	orr.w	r7, r8, r7
 8008434:	433e      	orrs	r6, r7
 8008436:	4335      	orrs	r5, r6
 8008438:	ea45 0e0e 	orr.w	lr, r5, lr
 800843c:	ea4e 0e00 	orr.w	lr, lr, r0
 8008440:	6a08      	ldr	r0, [r1, #32]
 8008442:	fa40 f202 	asr.w	r2, r0, r2
 8008446:	17c4      	asrs	r4, r0, #31
 8008448:	ebb2 7fe0 	cmp.w	r2, r0, asr #31
 800844c:	bf18      	it	ne
 800844e:	ea8c 0004 	eorne.w	r0, ip, r4
 8008452:	fa00 f303 	lsl.w	r3, r0, r3
 8008456:	4670      	mov	r0, lr
 8008458:	620b      	str	r3, [r1, #32]
 800845a:	b00b      	add	sp, #44	; 0x2c
 800845c:	e8bd 8ff0 	ldmia.w	sp!, {r4, r5, r6, r7, r8, r9, sl, fp, pc}
 8008460:	409c      	lsls	r4, r3
 8008462:	4540      	cmp	r0, r8
 8008464:	f841 4b04 	str.w	r4, [r1], #4
 8008468:	f505 7580 	add.w	r5, r5, #256	; 0x100
 800846c:	f47f adc4 	bne.w	8007ff8 <FreqInvertRescale+0x90>
 8008470:	e5af      	b.n	8007fd2 <FreqInvertRescale+0x6a>
 8008472:	bf00      	nop

08008474 <xmp3_IMDCT>:
 8008474:	e92d 4ff0 	stmdb	sp!, {r4, r5, r6, r7, r8, r9, sl, fp, lr}
 8008478:	b0df      	sub	sp, #380	; 0x17c
 800847a:	9136      	str	r1, [sp, #216]	; 0xd8
 800847c:	9233      	str	r2, [sp, #204]	; 0xcc
 800847e:	2800      	cmp	r0, #0
 8008480:	f002 804c 	beq.w	800a51c <xmp3_IMDCT+0x20a8>
 8008484:	6803      	ldr	r3, [r0, #0]
 8008486:	2b00      	cmp	r3, #0
 8008488:	f002 8048 	beq.w	800a51c <xmp3_IMDCT+0x20a8>
 800848c:	6844      	ldr	r4, [r0, #4]
 800848e:	9435      	str	r4, [sp, #212]	; 0xd4
 8008490:	2c00      	cmp	r4, #0
 8008492:	f002 8043 	beq.w	800a51c <xmp3_IMDCT+0x20a8>
 8008496:	68c5      	ldr	r5, [r0, #12]
 8008498:	950c      	str	r5, [sp, #48]	; 0x30
 800849a:	2d00      	cmp	r5, #0
 800849c:	f002 803e 	beq.w	800a51c <xmp3_IMDCT+0x20a8>
 80084a0:	6940      	ldr	r0, [r0, #20]
 80084a2:	900d      	str	r0, [sp, #52]	; 0x34
 80084a4:	2800      	cmp	r0, #0
 80084a6:	f002 8039 	beq.w	800a51c <xmp3_IMDCT+0x20a8>
 80084aa:	4616      	mov	r6, r2
 80084ac:	781a      	ldrb	r2, [r3, #0]
 80084ae:	48c6      	ldr	r0, [pc, #792]	; (80087c8 <xmp3_IMDCT+0x354>)
 80084b0:	2a00      	cmp	r2, #0
 80084b2:	460f      	mov	r7, r1
 80084b4:	6b5a      	ldr	r2, [r3, #52]	; 0x34
 80084b6:	eb01 03c1 	add.w	r3, r1, r1, lsl #3
 80084ba:	bf0c      	ite	eq
 80084bc:	2108      	moveq	r1, #8
 80084be:	2106      	movne	r1, #6
 80084c0:	011b      	lsls	r3, r3, #4
 80084c2:	f932 1011 	ldrsh.w	r1, [r2, r1, lsl #1]
 80084c6:	eb06 02c6 	add.w	r2, r6, r6, lsl #3
 80084ca:	eb03 03c2 	add.w	r3, r3, r2, lsl #3
 80084ce:	4423      	add	r3, r4
 80084d0:	17cc      	asrs	r4, r1, #31
 80084d2:	fb80 c101 	smull	ip, r1, r0, r1
 80084d6:	ebc4 01a1 	rsb	r1, r4, r1, asr #2
 80084da:	b209      	sxth	r1, r1
 80084dc:	9131      	str	r1, [sp, #196]	; 0xc4
 80084de:	6bd9      	ldr	r1, [r3, #60]	; 0x3c
 80084e0:	00f4      	lsls	r4, r6, #3
 80084e2:	9434      	str	r4, [sp, #208]	; 0xd0
 80084e4:	2902      	cmp	r1, #2
 80084e6:	ea4f 04c7 	mov.w	r4, r7, lsl #3
 80084ea:	9437      	str	r4, [sp, #220]	; 0xdc
 80084ec:	f001 87e7 	beq.w	800a4be <xmp3_IMDCT+0x204a>
 80084f0:	f506 6390 	add.w	r3, r6, #1152	; 0x480
 80084f4:	f240 2126 	movw	r1, #550	; 0x226
 80084f8:	f855 3023 	ldr.w	r3, [r5, r3, lsl #2]
 80084fc:	428b      	cmp	r3, r1
 80084fe:	f340 831f 	ble.w	8008b40 <xmp3_IMDCT+0x6cc>
 8008502:	0213      	lsls	r3, r2, #8
 8008504:	930e      	str	r3, [sp, #56]	; 0x38
 8008506:	eb05 2302 	add.w	r3, r5, r2, lsl #8
 800850a:	930a      	str	r3, [sp, #40]	; 0x28
 800850c:	2320      	movs	r3, #32
 800850e:	932c      	str	r3, [sp, #176]	; 0xb0
 8008510:	f240 2336 	movw	r3, #566	; 0x236
 8008514:	930f      	str	r3, [sp, #60]	; 0x3c
 8008516:	231f      	movs	r3, #31
 8008518:	990a      	ldr	r1, [sp, #40]	; 0x28
 800851a:	4aac      	ldr	r2, [pc, #688]	; (80087cc <xmp3_IMDCT+0x358>)
 800851c:	eb03 03c3 	add.w	r3, r3, r3, lsl #3
 8008520:	eb01 03c3 	add.w	r3, r1, r3, lsl #3
 8008524:	9308      	str	r3, [sp, #32]
 8008526:	460b      	mov	r3, r1
 8008528:	6811      	ldr	r1, [r2, #0]
 800852a:	9100      	str	r1, [sp, #0]
 800852c:	6851      	ldr	r1, [r2, #4]
 800852e:	9101      	str	r1, [sp, #4]
 8008530:	6891      	ldr	r1, [r2, #8]
 8008532:	9102      	str	r1, [sp, #8]
 8008534:	68d1      	ldr	r1, [r2, #12]
 8008536:	9103      	str	r1, [sp, #12]
 8008538:	6911      	ldr	r1, [r2, #16]
 800853a:	9104      	str	r1, [sp, #16]
 800853c:	6951      	ldr	r1, [r2, #20]
 800853e:	9105      	str	r1, [sp, #20]
 8008540:	6991      	ldr	r1, [r2, #24]
 8008542:	9106      	str	r1, [sp, #24]
 8008544:	69d1      	ldr	r1, [r2, #28]
 8008546:	9107      	str	r1, [sp, #28]
 8008548:	e9d2 010e 	ldrd	r0, r1, [r2, #56]	; 0x38
 800854c:	e9d2 c708 	ldrd	ip, r7, [r2, #32]
 8008550:	e9d2 650a 	ldrd	r6, r5, [r2, #40]	; 0x28
 8008554:	e9d2 4b0c 	ldrd	r4, fp, [r2, #48]	; 0x30
 8008558:	9009      	str	r0, [sp, #36]	; 0x24
 800855a:	910b      	str	r1, [sp, #44]	; 0x2c
 800855c:	e9d3 8211 	ldrd	r8, r2, [r3, #68]	; 0x44
 8008560:	9900      	ldr	r1, [sp, #0]
 8008562:	46c6      	mov	lr, r8
 8008564:	fb81 9e0e 	smull	r9, lr, r1, lr
 8008568:	9801      	ldr	r0, [sp, #4]
 800856a:	4691      	mov	r9, r2
 800856c:	fb80 a909 	smull	sl, r9, r0, r9
 8008570:	ebae 0e09 	sub.w	lr, lr, r9
 8008574:	ea4f 0e4e 	mov.w	lr, lr, lsl #1
 8008578:	9900      	ldr	r1, [sp, #0]
 800857a:	f8c3 e044 	str.w	lr, [r3, #68]	; 0x44
 800857e:	fb81 e202 	smull	lr, r2, r1, r2
 8008582:	fb80 e808 	smull	lr, r8, r0, r8
 8008586:	4442      	add	r2, r8
 8008588:	f8d3 8040 	ldr.w	r8, [r3, #64]	; 0x40
 800858c:	9902      	ldr	r1, [sp, #8]
 800858e:	0052      	lsls	r2, r2, #1
 8008590:	649a      	str	r2, [r3, #72]	; 0x48
 8008592:	46c6      	mov	lr, r8
 8008594:	6cda      	ldr	r2, [r3, #76]	; 0x4c
 8008596:	fb81 9e0e 	smull	r9, lr, r1, lr
 800859a:	9803      	ldr	r0, [sp, #12]
 800859c:	4691      	mov	r9, r2
 800859e:	fb80 a909 	smull	sl, r9, r0, r9
 80085a2:	ebae 0e09 	sub.w	lr, lr, r9
 80085a6:	ea4f 0e4e 	mov.w	lr, lr, lsl #1
 80085aa:	f8c3 e040 	str.w	lr, [r3, #64]	; 0x40
 80085ae:	fb81 e202 	smull	lr, r2, r1, r2
 80085b2:	fb80 e808 	smull	lr, r8, r0, r8
 80085b6:	4442      	add	r2, r8
 80085b8:	f8d3 803c 	ldr.w	r8, [r3, #60]	; 0x3c
 80085bc:	9904      	ldr	r1, [sp, #16]
 80085be:	0052      	lsls	r2, r2, #1
 80085c0:	64da      	str	r2, [r3, #76]	; 0x4c
 80085c2:	46c6      	mov	lr, r8
 80085c4:	6d1a      	ldr	r2, [r3, #80]	; 0x50
 80085c6:	fb81 9e0e 	smull	r9, lr, r1, lr
 80085ca:	9805      	ldr	r0, [sp, #20]
 80085cc:	4691      	mov	r9, r2
 80085ce:	fb80 a909 	smull	sl, r9, r0, r9
 80085d2:	ebae 0e09 	sub.w	lr, lr, r9
 80085d6:	ea4f 0e4e 	mov.w	lr, lr, lsl #1
 80085da:	f8c3 e03c 	str.w	lr, [r3, #60]	; 0x3c
 80085de:	fb81 e202 	smull	lr, r2, r1, r2
 80085e2:	fb80 e808 	smull	lr, r8, r0, r8
 80085e6:	4442      	add	r2, r8
 80085e8:	f8d3 8038 	ldr.w	r8, [r3, #56]	; 0x38
 80085ec:	9906      	ldr	r1, [sp, #24]
 80085ee:	0052      	lsls	r2, r2, #1
 80085f0:	651a      	str	r2, [r3, #80]	; 0x50
 80085f2:	46c6      	mov	lr, r8
 80085f4:	6d5a      	ldr	r2, [r3, #84]	; 0x54
 80085f6:	fb81 9e0e 	smull	r9, lr, r1, lr
 80085fa:	9807      	ldr	r0, [sp, #28]
 80085fc:	4691      	mov	r9, r2
 80085fe:	fb80 a909 	smull	sl, r9, r0, r9
 8008602:	ebae 0e09 	sub.w	lr, lr, r9
 8008606:	ea4f 0e4e 	mov.w	lr, lr, lsl #1
 800860a:	f8c3 e038 	str.w	lr, [r3, #56]	; 0x38
 800860e:	fb81 e202 	smull	lr, r2, r1, r2
 8008612:	fb80 e808 	smull	lr, r8, r0, r8
 8008616:	4442      	add	r2, r8
 8008618:	f8d3 8034 	ldr.w	r8, [r3, #52]	; 0x34
 800861c:	0052      	lsls	r2, r2, #1
 800861e:	655a      	str	r2, [r3, #84]	; 0x54
 8008620:	46c6      	mov	lr, r8
 8008622:	6d9a      	ldr	r2, [r3, #88]	; 0x58
 8008624:	fb8c 9e0e 	smull	r9, lr, ip, lr
 8008628:	4691      	mov	r9, r2
 800862a:	fb87 a909 	smull	sl, r9, r7, r9
 800862e:	ebae 0e09 	sub.w	lr, lr, r9
 8008632:	ea4f 0e4e 	mov.w	lr, lr, lsl #1
 8008636:	f8c3 e034 	str.w	lr, [r3, #52]	; 0x34
 800863a:	fb8c e202 	smull	lr, r2, ip, r2
 800863e:	fb87 e808 	smull	lr, r8, r7, r8
 8008642:	4442      	add	r2, r8
 8008644:	f8d3 8030 	ldr.w	r8, [r3, #48]	; 0x30
 8008648:	0052      	lsls	r2, r2, #1
 800864a:	659a      	str	r2, [r3, #88]	; 0x58
 800864c:	46c6      	mov	lr, r8
 800864e:	6dda      	ldr	r2, [r3, #92]	; 0x5c
 8008650:	fb86 9e0e 	smull	r9, lr, r6, lr
 8008654:	4691      	mov	r9, r2
 8008656:	fb85 a909 	smull	sl, r9, r5, r9
 800865a:	ebae 0e09 	sub.w	lr, lr, r9
 800865e:	ea4f 0e4e 	mov.w	lr, lr, lsl #1
 8008662:	f8c3 e030 	str.w	lr, [r3, #48]	; 0x30
 8008666:	fb86 e202 	smull	lr, r2, r6, r2
 800866a:	fb85 e808 	smull	lr, r8, r5, r8
 800866e:	4442      	add	r2, r8
 8008670:	f8d3 802c 	ldr.w	r8, [r3, #44]	; 0x2c
 8008674:	0052      	lsls	r2, r2, #1
 8008676:	65da      	str	r2, [r3, #92]	; 0x5c
 8008678:	46c6      	mov	lr, r8
 800867a:	6e1a      	ldr	r2, [r3, #96]	; 0x60
 800867c:	fb84 9e0e 	smull	r9, lr, r4, lr
 8008680:	4691      	mov	r9, r2
 8008682:	fb8b a909 	smull	sl, r9, fp, r9
 8008686:	ebae 0e09 	sub.w	lr, lr, r9
 800868a:	ea4f 0e4e 	mov.w	lr, lr, lsl #1
 800868e:	f8c3 e02c 	str.w	lr, [r3, #44]	; 0x2c
 8008692:	fb84 e202 	smull	lr, r2, r4, r2
 8008696:	fb8b e808 	smull	lr, r8, fp, r8
 800869a:	4442      	add	r2, r8
 800869c:	f8d3 8028 	ldr.w	r8, [r3, #40]	; 0x28
 80086a0:	9809      	ldr	r0, [sp, #36]	; 0x24
 80086a2:	0052      	lsls	r2, r2, #1
 80086a4:	661a      	str	r2, [r3, #96]	; 0x60
 80086a6:	46c6      	mov	lr, r8
 80086a8:	6e5a      	ldr	r2, [r3, #100]	; 0x64
 80086aa:	fb80 9e0e 	smull	r9, lr, r0, lr
 80086ae:	990b      	ldr	r1, [sp, #44]	; 0x2c
 80086b0:	4691      	mov	r9, r2
 80086b2:	fb81 a909 	smull	sl, r9, r1, r9
 80086b6:	ebae 0e09 	sub.w	lr, lr, r9
 80086ba:	ea4f 0e4e 	mov.w	lr, lr, lsl #1
 80086be:	f8c3 e028 	str.w	lr, [r3, #40]	; 0x28
 80086c2:	fb80 e202 	smull	lr, r2, r0, r2
 80086c6:	fb81 e808 	smull	lr, r8, r1, r8
 80086ca:	4442      	add	r2, r8
 80086cc:	0052      	lsls	r2, r2, #1
 80086ce:	665a      	str	r2, [r3, #100]	; 0x64
 80086d0:	9a08      	ldr	r2, [sp, #32]
 80086d2:	3348      	adds	r3, #72	; 0x48
 80086d4:	4293      	cmp	r3, r2
 80086d6:	f47f af41 	bne.w	800855c <xmp3_IMDCT+0xe8>
 80086da:	e9dd 2336 	ldrd	r2, r3, [sp, #216]	; 0xd8
 80086de:	4413      	add	r3, r2
 80086e0:	e9dd 1233 	ldrd	r1, r2, [sp, #204]	; 0xcc
 80086e4:	011b      	lsls	r3, r3, #4
 80086e6:	440a      	add	r2, r1
 80086e8:	eb03 03c2 	add.w	r3, r3, r2, lsl #3
 80086ec:	9a35      	ldr	r2, [sp, #212]	; 0xd4
 80086ee:	4413      	add	r3, r2
 80086f0:	4608      	mov	r0, r1
 80086f2:	6c1b      	ldr	r3, [r3, #64]	; 0x40
 80086f4:	9a0c      	ldr	r2, [sp, #48]	; 0x30
 80086f6:	9e0f      	ldr	r6, [sp, #60]	; 0x3c
 80086f8:	eb02 0180 	add.w	r1, r2, r0, lsl #2
 80086fc:	f501 5180 	add.w	r1, r1, #4096	; 0x1000
 8008700:	e9dd 450d 	ldrd	r4, r5, [sp, #52]	; 0x34
 8008704:	f8d1 2200 	ldr.w	r2, [r1, #512]	; 0x200
 8008708:	4296      	cmp	r6, r2
 800870a:	bfb8      	it	lt
 800870c:	4616      	movlt	r6, r2
 800870e:	2b00      	cmp	r3, #0
 8008710:	4632      	mov	r2, r6
 8008712:	f8c1 6200 	str.w	r6, [r1, #512]	; 0x200
 8008716:	f8d1 6208 	ldr.w	r6, [r1, #520]	; 0x208
 800871a:	9931      	ldr	r1, [sp, #196]	; 0xc4
 800871c:	960d      	str	r6, [sp, #52]	; 0x34
 800871e:	bf08      	it	eq
 8008720:	2100      	moveq	r1, #0
 8008722:	9131      	str	r1, [sp, #196]	; 0xc4
 8008724:	4928      	ldr	r1, [pc, #160]	; (80087c8 <xmp3_IMDCT+0x354>)
 8008726:	3211      	adds	r2, #17
 8008728:	fb81 7102 	smull	r7, r1, r1, r2
 800872c:	17d2      	asrs	r2, r2, #31
 800872e:	ebc2 02a1 	rsb	r2, r2, r1, asr #2
 8008732:	9202      	str	r2, [sp, #8]
 8008734:	eb04 0280 	add.w	r2, r4, r0, lsl #2
 8008738:	4601      	mov	r1, r0
 800873a:	f502 5080 	add.w	r0, r2, #4096	; 0x1000
 800873e:	9a34      	ldr	r2, [sp, #208]	; 0xd0
 8008740:	9038      	str	r0, [sp, #224]	; 0xe0
 8008742:	1851      	adds	r1, r2, r1
 8008744:	eb04 12c1 	add.w	r2, r4, r1, lsl #7
 8008748:	f502 5790 	add.w	r7, r2, #4608	; 0x1200
 800874c:	f8d0 2b00 	ldr.w	r2, [r0, #2816]	; 0xb00
 8008750:	9225      	str	r2, [sp, #148]	; 0x94
 8008752:	f8d0 2b08 	ldr.w	r2, [r0, #2824]	; 0xb08
 8008756:	920c      	str	r2, [sp, #48]	; 0x30
 8008758:	f8d0 2b10 	ldr.w	r2, [r0, #2832]	; 0xb10
 800875c:	982c      	ldr	r0, [sp, #176]	; 0xb0
 800875e:	972b      	str	r7, [sp, #172]	; 0xac
 8008760:	4425      	add	r5, r4
 8008762:	2800      	cmp	r0, #0
 8008764:	9532      	str	r5, [sp, #200]	; 0xc8
 8008766:	9226      	str	r2, [sp, #152]	; 0x98
 8008768:	f341 86d0 	ble.w	800a50c <xmp3_IMDCT+0x2098>
 800876c:	e9dd 4236 	ldrd	r4, r2, [sp, #216]	; 0xd8
 8008770:	4422      	add	r2, r4
 8008772:	0112      	lsls	r2, r2, #4
 8008774:	eb02 02c1 	add.w	r2, r2, r1, lsl #3
 8008778:	9935      	ldr	r1, [sp, #212]	; 0xd4
 800877a:	9503      	str	r5, [sp, #12]
 800877c:	188a      	adds	r2, r1, r2
 800877e:	2e06      	cmp	r6, #6
 8008780:	f04f 0100 	mov.w	r1, #0
 8008784:	9219      	str	r2, [sp, #100]	; 0x64
 8008786:	f1c6 0207 	rsb	r2, r6, #7
 800878a:	921a      	str	r2, [sp, #104]	; 0x68
 800878c:	bfc8      	it	gt
 800878e:	460a      	movgt	r2, r1
 8008790:	ee07 2a90 	vmov	s15, r2
 8008794:	9a0a      	ldr	r2, [sp, #40]	; 0x28
 8008796:	9101      	str	r1, [sp, #4]
 8008798:	f102 0448 	add.w	r4, r2, #72	; 0x48
 800879c:	f107 0224 	add.w	r2, r7, #36	; 0x24
 80087a0:	9205      	str	r2, [sp, #20]
 80087a2:	eb05 0280 	add.w	r2, r5, r0, lsl #2
 80087a6:	921b      	str	r2, [sp, #108]	; 0x6c
 80087a8:	910b      	str	r1, [sp, #44]	; 0x2c
 80087aa:	46a3      	mov	fp, r4
 80087ac:	9a19      	ldr	r2, [sp, #100]	; 0x64
 80087ae:	9905      	ldr	r1, [sp, #20]
 80087b0:	6bd2      	ldr	r2, [r2, #60]	; 0x3c
 80087b2:	9200      	str	r2, [sp, #0]
 80087b4:	3924      	subs	r1, #36	; 0x24
 80087b6:	910e      	str	r1, [sp, #56]	; 0x38
 80087b8:	b153      	cbz	r3, 80087d0 <xmp3_IMDCT+0x35c>
 80087ba:	9b31      	ldr	r3, [sp, #196]	; 0xc4
 80087bc:	990b      	ldr	r1, [sp, #44]	; 0x2c
 80087be:	428b      	cmp	r3, r1
 80087c0:	bfc8      	it	gt
 80087c2:	2200      	movgt	r2, #0
 80087c4:	9200      	str	r2, [sp, #0]
 80087c6:	e003      	b.n	80087d0 <xmp3_IMDCT+0x35c>
 80087c8:	38e38e39 	.word	0x38e38e39
 80087cc:	08014090 	.word	0x08014090
 80087d0:	9b0c      	ldr	r3, [sp, #48]	; 0x30
 80087d2:	9a26      	ldr	r2, [sp, #152]	; 0x98
 80087d4:	990b      	ldr	r1, [sp, #44]	; 0x2c
 80087d6:	428a      	cmp	r2, r1
 80087d8:	bfc8      	it	gt
 80087da:	2300      	movgt	r3, #0
 80087dc:	9312      	str	r3, [sp, #72]	; 0x48
 80087de:	9b0d      	ldr	r3, [sp, #52]	; 0x34
 80087e0:	2b06      	cmp	r3, #6
 80087e2:	f340 81dd 	ble.w	8008ba0 <xmp3_IMDCT+0x72c>
 80087e6:	f85b 1c04 	ldr.w	r1, [fp, #-4]
 80087ea:	f85b 6c08 	ldr.w	r6, [fp, #-8]
 80087ee:	f85b 2c0c 	ldr.w	r2, [fp, #-12]
 80087f2:	9107      	str	r1, [sp, #28]
 80087f4:	eba6 0801 	sub.w	r8, r6, r1
 80087f8:	eba2 0308 	sub.w	r3, r2, r8
 80087fc:	f85b 2c10 	ldr.w	r2, [fp, #-16]
 8008800:	f85b 5c20 	ldr.w	r5, [fp, #-32]
 8008804:	f85b 6c28 	ldr.w	r6, [fp, #-40]
 8008808:	f85b 4c30 	ldr.w	r4, [fp, #-48]
 800880c:	f85b 7c48 	ldr.w	r7, [fp, #-72]
 8008810:	eba2 0a03 	sub.w	sl, r2, r3
 8008814:	1a59      	subs	r1, r3, r1
 8008816:	f85b 3c14 	ldr.w	r3, [fp, #-20]
 800881a:	f85b 2c18 	ldr.w	r2, [fp, #-24]
 800881e:	9108      	str	r1, [sp, #32]
 8008820:	eba3 030a 	sub.w	r3, r3, sl
 8008824:	1ad2      	subs	r2, r2, r3
 8008826:	1a59      	subs	r1, r3, r1
 8008828:	f85b 3c1c 	ldr.w	r3, [fp, #-28]
 800882c:	9210      	str	r2, [sp, #64]	; 0x40
 800882e:	1a9b      	subs	r3, r3, r2
 8008830:	1a5a      	subs	r2, r3, r1
 8008832:	eba5 0903 	sub.w	r9, r5, r3
 8008836:	f85b 3c24 	ldr.w	r3, [fp, #-36]
 800883a:	9209      	str	r2, [sp, #36]	; 0x24
 800883c:	eba3 0309 	sub.w	r3, r3, r9
 8008840:	1a9a      	subs	r2, r3, r2
 8008842:	1af6      	subs	r6, r6, r3
 8008844:	f85b 3c2c 	ldr.w	r3, [fp, #-44]
 8008848:	9111      	str	r1, [sp, #68]	; 0x44
 800884a:	1b9b      	subs	r3, r3, r6
 800884c:	1a99      	subs	r1, r3, r2
 800884e:	1ae4      	subs	r4, r4, r3
 8008850:	f85b 3c34 	ldr.w	r3, [fp, #-52]
 8008854:	9206      	str	r2, [sp, #24]
 8008856:	1b1a      	subs	r2, r3, r4
 8008858:	f85b 3c38 	ldr.w	r3, [fp, #-56]
 800885c:	9113      	str	r1, [sp, #76]	; 0x4c
 800885e:	1a9b      	subs	r3, r3, r2
 8008860:	1a51      	subs	r1, r2, r1
 8008862:	f85b 2c3c 	ldr.w	r2, [fp, #-60]
 8008866:	f85b 5c40 	ldr.w	r5, [fp, #-64]
 800886a:	9114      	str	r1, [sp, #80]	; 0x50
 800886c:	1ad2      	subs	r2, r2, r3
 800886e:	1a51      	subs	r1, r2, r1
 8008870:	1aad      	subs	r5, r5, r2
 8008872:	f85b 2c44 	ldr.w	r2, [fp, #-68]
 8008876:	9104      	str	r1, [sp, #16]
 8008878:	1b52      	subs	r2, r2, r5
 800887a:	1abf      	subs	r7, r7, r2
 800887c:	1a52      	subs	r2, r2, r1
 800887e:	9910      	ldr	r1, [sp, #64]	; 0x40
 8008880:	1052      	asrs	r2, r2, #1
 8008882:	46a4      	mov	ip, r4
 8008884:	920f      	str	r2, [sp, #60]	; 0x3c
 8008886:	107c      	asrs	r4, r7, #1
 8008888:	ebc1 0267 	rsb	r2, r1, r7, asr #1
 800888c:	eba3 0e06 	sub.w	lr, r3, r6
 8008890:	9415      	str	r4, [sp, #84]	; 0x54
 8008892:	4fbd      	ldr	r7, [pc, #756]	; (8008b88 <xmp3_IMDCT+0x714>)
 8008894:	9216      	str	r2, [sp, #88]	; 0x58
 8008896:	ebae 0e08 	sub.w	lr, lr, r8
 800889a:	18f0      	adds	r0, r6, r3
 800889c:	eba9 040a 	sub.w	r4, r9, sl
 80088a0:	4661      	mov	r1, ip
 80088a2:	fb87 2101 	smull	r2, r1, r7, r1
 80088a6:	eba5 0c09 	sub.w	ip, r5, r9
 80088aa:	9117      	str	r1, [sp, #92]	; 0x5c
 80088ac:	ebac 0c0a 	sub.w	ip, ip, sl
 80088b0:	fb87 2c0c 	smull	r2, ip, r7, ip
 80088b4:	4fb5      	ldr	r7, [pc, #724]	; (8008b8c <xmp3_IMDCT+0x718>)
 80088b6:	4601      	mov	r1, r0
 80088b8:	fb87 2101 	smull	r2, r1, r7, r1
 80088bc:	9118      	str	r1, [sp, #96]	; 0x60
 80088be:	4443      	add	r3, r8
 80088c0:	49b3      	ldr	r1, [pc, #716]	; (8008b90 <xmp3_IMDCT+0x71c>)
 80088c2:	fb81 2303 	smull	r2, r3, r1, r3
 80088c6:	eba8 0606 	sub.w	r6, r8, r6
 80088ca:	fb87 2606 	smull	r2, r6, r7, r6
 80088ce:	fb81 2000 	smull	r2, r0, r1, r0
 80088d2:	f101 5170 	add.w	r1, r1, #1006632960	; 0x3c000000
 80088d6:	f501 214c 	add.w	r1, r1, #835584	; 0xcc000
 80088da:	46a0      	mov	r8, r4
 80088dc:	f201 21cb 	addw	r1, r1, #715	; 0x2cb
 80088e0:	fb81 2808 	smull	r2, r8, r1, r8
 80088e4:	4fab      	ldr	r7, [pc, #684]	; (8008b94 <xmp3_IMDCT+0x720>)
 80088e6:	eb05 020a 	add.w	r2, r5, sl
 80088ea:	fb87 a202 	smull	sl, r2, r7, r2
 80088ee:	444d      	add	r5, r9
 80088f0:	fb81 a505 	smull	sl, r5, r1, r5
 80088f4:	4621      	mov	r1, r4
 80088f6:	fb87 a101 	smull	sl, r1, r7, r1
 80088fa:	9f10      	ldr	r7, [sp, #64]	; 0x40
 80088fc:	9c15      	ldr	r4, [sp, #84]	; 0x54
 80088fe:	f8dd a04c 	ldr.w	sl, [sp, #76]	; 0x4c
 8008902:	eb04 0467 	add.w	r4, r4, r7, asr #1
 8008906:	9f18      	ldr	r7, [sp, #96]	; 0x60
 8008908:	005b      	lsls	r3, r3, #1
 800890a:	eb03 0947 	add.w	r9, r3, r7, lsl #1
 800890e:	9b17      	ldr	r3, [sp, #92]	; 0x5c
 8008910:	0040      	lsls	r0, r0, #1
 8008912:	0052      	lsls	r2, r2, #1
 8008914:	0049      	lsls	r1, r1, #1
 8008916:	eb02 0848 	add.w	r8, r2, r8, lsl #1
 800891a:	ebc1 0545 	rsb	r5, r1, r5, lsl #1
 800891e:	eb04 0243 	add.w	r2, r4, r3, lsl #1
 8008922:	eba4 0143 	sub.w	r1, r4, r3, lsl #1
 8008926:	ebc0 0646 	rsb	r6, r0, r6, lsl #1
 800892a:	9b16      	ldr	r3, [sp, #88]	; 0x58
 800892c:	eb09 0006 	add.w	r0, r9, r6
 8008930:	eb02 0409 	add.w	r4, r2, r9
 8008934:	4489      	add	r9, r1
 8008936:	9010      	str	r0, [sp, #64]	; 0x40
 8008938:	eba3 070e 	sub.w	r7, r3, lr
 800893c:	eb03 006e 	add.w	r0, r3, lr, asr #1
 8008940:	eba9 0308 	sub.w	r3, r9, r8
 8008944:	4444      	add	r4, r8
 8008946:	9342      	str	r3, [sp, #264]	; 0x108
 8008948:	198b      	adds	r3, r1, r6
 800894a:	442b      	add	r3, r5
 800894c:	943a      	str	r4, [sp, #232]	; 0xe8
 800894e:	9c10      	ldr	r4, [sp, #64]	; 0x40
 8008950:	933c      	str	r3, [sp, #240]	; 0xf0
 8008952:	4416      	add	r6, r2
 8008954:	eb00 034c 	add.w	r3, r0, ip, lsl #1
 8008958:	1b76      	subs	r6, r6, r5
 800895a:	973e      	str	r7, [sp, #248]	; 0xf8
 800895c:	1b0c      	subs	r4, r1, r4
 800895e:	eba5 0708 	sub.w	r7, r5, r8
 8008962:	933b      	str	r3, [sp, #236]	; 0xec
 8008964:	9d11      	ldr	r5, [sp, #68]	; 0x44
 8008966:	9b0f      	ldr	r3, [sp, #60]	; 0x3c
 8008968:	9910      	ldr	r1, [sp, #64]	; 0x40
 800896a:	9640      	str	r6, [sp, #256]	; 0x100
 800896c:	1be4      	subs	r4, r4, r7
 800896e:	eba0 004c 	sub.w	r0, r0, ip, lsl #1
 8008972:	943d      	str	r4, [sp, #244]	; 0xf4
 8008974:	9041      	str	r0, [sp, #260]	; 0x104
 8008976:	9c14      	ldr	r4, [sp, #80]	; 0x50
 8008978:	9806      	ldr	r0, [sp, #24]
 800897a:	9e07      	ldr	r6, [sp, #28]
 800897c:	eba3 0c05 	sub.w	ip, r3, r5
 8008980:	e9dd 3508 	ldrd	r3, r5, [sp, #32]
 8008984:	1a51      	subs	r1, r2, r1
 8008986:	4439      	add	r1, r7
 8008988:	eba4 0e00 	sub.w	lr, r4, r0
 800898c:	913f      	str	r1, [sp, #252]	; 0xfc
 800898e:	4a7e      	ldr	r2, [pc, #504]	; (8008b88 <xmp3_IMDCT+0x714>)
 8008990:	ebae 0e06 	sub.w	lr, lr, r6
 8008994:	4420      	add	r0, r4
 8008996:	1ae9      	subs	r1, r5, r3
 8008998:	fb82 3a0a 	smull	r3, sl, r2, sl
 800899c:	9f04      	ldr	r7, [sp, #16]
 800899e:	9b08      	ldr	r3, [sp, #32]
 80089a0:	1b7f      	subs	r7, r7, r5
 80089a2:	1aff      	subs	r7, r7, r3
 80089a4:	fb82 3707 	smull	r3, r7, r2, r7
 80089a8:	4d78      	ldr	r5, [pc, #480]	; (8008b8c <xmp3_IMDCT+0x718>)
 80089aa:	4681      	mov	r9, r0
 80089ac:	fb85 3909 	smull	r3, r9, r5, r9
 80089b0:	19a3      	adds	r3, r4, r6
 80089b2:	4e77      	ldr	r6, [pc, #476]	; (8008b90 <xmp3_IMDCT+0x71c>)
 80089b4:	fb86 2303 	smull	r2, r3, r6, r3
 80089b8:	e9dd 2406 	ldrd	r2, r4, [sp, #24]
 80089bc:	9310      	str	r3, [sp, #64]	; 0x40
 80089be:	1aa4      	subs	r4, r4, r2
 80089c0:	fb85 2404 	smull	r2, r4, r5, r4
 80089c4:	fb86 2000 	smull	r2, r0, r6, r0
 80089c8:	f106 5670 	add.w	r6, r6, #1006632960	; 0x3c000000
 80089cc:	f506 264c 	add.w	r6, r6, #835584	; 0xcc000
 80089d0:	4688      	mov	r8, r1
 80089d2:	f206 26cb 	addw	r6, r6, #715	; 0x2cb
 80089d6:	fb86 2808 	smull	r2, r8, r6, r8
 80089da:	9d04      	ldr	r5, [sp, #16]
 80089dc:	9a08      	ldr	r2, [sp, #32]
 80089de:	4b6d      	ldr	r3, [pc, #436]	; (8008b94 <xmp3_IMDCT+0x720>)
 80089e0:	18aa      	adds	r2, r5, r2
 80089e2:	fb83 5202 	smull	r5, r2, r3, r2
 80089e6:	9b04      	ldr	r3, [sp, #16]
 80089e8:	9d09      	ldr	r5, [sp, #36]	; 0x24
 80089ea:	195d      	adds	r5, r3, r5
 80089ec:	4633      	mov	r3, r6
 80089ee:	fb83 6505 	smull	r6, r5, r3, r5
 80089f2:	4b68      	ldr	r3, [pc, #416]	; (8008b94 <xmp3_IMDCT+0x720>)
 80089f4:	fb83 6101 	smull	r6, r1, r3, r1
 80089f8:	9b0f      	ldr	r3, [sp, #60]	; 0x3c
 80089fa:	9e11      	ldr	r6, [sp, #68]	; 0x44
 80089fc:	eb03 0666 	add.w	r6, r3, r6, asr #1
 8008a00:	9b10      	ldr	r3, [sp, #64]	; 0x40
 8008a02:	0052      	lsls	r2, r2, #1
 8008a04:	005b      	lsls	r3, r3, #1
 8008a06:	0040      	lsls	r0, r0, #1
 8008a08:	eb03 0349 	add.w	r3, r3, r9, lsl #1
 8008a0c:	ebc0 0044 	rsb	r0, r0, r4, lsl #1
 8008a10:	eb02 0848 	add.w	r8, r2, r8, lsl #1
 8008a14:	ebac 040e 	sub.w	r4, ip, lr
 8008a18:	eb06 024a 	add.w	r2, r6, sl, lsl #1
 8008a1c:	0049      	lsls	r1, r1, #1
 8008a1e:	eba6 064a 	sub.w	r6, r6, sl, lsl #1
 8008a22:	ebc1 0545 	rsb	r5, r1, r5, lsl #1
 8008a26:	9447      	str	r4, [sp, #284]	; 0x11c
 8008a28:	1819      	adds	r1, r3, r0
 8008a2a:	18d4      	adds	r4, r2, r3
 8008a2c:	4433      	add	r3, r6
 8008a2e:	eba3 0308 	sub.w	r3, r3, r8
 8008a32:	934b      	str	r3, [sp, #300]	; 0x12c
 8008a34:	1833      	adds	r3, r6, r0
 8008a36:	eb0c 096e 	add.w	r9, ip, lr, asr #1
 8008a3a:	442b      	add	r3, r5
 8008a3c:	9345      	str	r3, [sp, #276]	; 0x114
 8008a3e:	eb09 0347 	add.w	r3, r9, r7, lsl #1
 8008a42:	eba5 0c08 	sub.w	ip, r5, r8
 8008a46:	1a76      	subs	r6, r6, r1
 8008a48:	4410      	add	r0, r2
 8008a4a:	1a51      	subs	r1, r2, r1
 8008a4c:	9344      	str	r3, [sp, #272]	; 0x110
 8008a4e:	9b12      	ldr	r3, [sp, #72]	; 0x48
 8008a50:	4444      	add	r4, r8
 8008a52:	1b40      	subs	r0, r0, r5
 8008a54:	eba6 060c 	sub.w	r6, r6, ip
 8008a58:	4461      	add	r1, ip
 8008a5a:	eba9 0747 	sub.w	r7, r9, r7, lsl #1
 8008a5e:	9443      	str	r4, [sp, #268]	; 0x10c
 8008a60:	9049      	str	r0, [sp, #292]	; 0x124
 8008a62:	9646      	str	r6, [sp, #280]	; 0x118
 8008a64:	9148      	str	r1, [sp, #288]	; 0x120
 8008a66:	974a      	str	r7, [sp, #296]	; 0x128
 8008a68:	2b00      	cmp	r3, #0
 8008a6a:	f040 81fa 	bne.w	8008e62 <xmp3_IMDCT+0x9ee>
 8008a6e:	9b00      	ldr	r3, [sp, #0]
 8008a70:	2b00      	cmp	r3, #0
 8008a72:	f040 8134 	bne.w	8008cde <xmp3_IMDCT+0x86a>
 8008a76:	f8dd a00c 	ldr.w	sl, [sp, #12]
 8008a7a:	4c47      	ldr	r4, [pc, #284]	; (8008b98 <xmp3_IMDCT+0x724>)
 8008a7c:	f8df 811c 	ldr.w	r8, [pc, #284]	; 8008b9c <xmp3_IMDCT+0x728>
 8008a80:	9e0e      	ldr	r6, [sp, #56]	; 0x38
 8008a82:	f8cd b010 	str.w	fp, [sp, #16]
 8008a86:	4657      	mov	r7, sl
 8008a88:	4699      	mov	r9, r3
 8008a8a:	ad42      	add	r5, sp, #264	; 0x108
 8008a8c:	469e      	mov	lr, r3
 8008a8e:	469c      	mov	ip, r3
 8008a90:	6a6b      	ldr	r3, [r5, #36]	; 0x24
 8008a92:	f858 1904 	ldr.w	r1, [r8], #-4
 8008a96:	f855 2904 	ldr.w	r2, [r5], #-4
 8008a9a:	fb81 0303 	smull	r0, r3, r1, r3
 8008a9e:	eb03 01a2 	add.w	r1, r3, r2, asr #2
 8008aa2:	6830      	ldr	r0, [r6, #0]
 8008aa4:	f846 1b04 	str.w	r1, [r6], #4
 8008aa8:	eba3 02a2 	sub.w	r2, r3, r2, asr #2
 8008aac:	4241      	negs	r1, r0
 8008aae:	f854 3c08 	ldr.w	r3, [r4, #-8]
 8008ab2:	1a89      	subs	r1, r1, r2
 8008ab4:	fb81 b303 	smull	fp, r3, r1, r3
 8008ab8:	eb02 0383 	add.w	r3, r2, r3, lsl #2
 8008abc:	f854 2c04 	ldr.w	r2, [r4, #-4]
 8008ac0:	fb81 b202 	smull	fp, r2, r1, r2
 8008ac4:	ebc0 0282 	rsb	r2, r0, r2, lsl #2
 8008ac8:	f84a 302c 	str.w	r3, [sl, ip, lsl #2]
 8008acc:	4671      	mov	r1, lr
 8008ace:	f8c7 2880 	str.w	r2, [r7, #2176]	; 0x880
 8008ad2:	ea83 71e3 	eor.w	r1, r3, r3, asr #31
 8008ad6:	eba1 71e3 	sub.w	r1, r1, r3, asr #31
 8008ada:	4673      	mov	r3, lr
 8008adc:	ea82 73e2 	eor.w	r3, r2, r2, asr #31
 8008ae0:	eba3 73e2 	sub.w	r3, r3, r2, asr #31
 8008ae4:	f10c 0c20 	add.w	ip, ip, #32
 8008ae8:	4319      	orrs	r1, r3
 8008aea:	f5bc 7f90 	cmp.w	ip, #288	; 0x120
 8008aee:	ea49 0901 	orr.w	r9, r9, r1
 8008af2:	f104 0408 	add.w	r4, r4, #8
 8008af6:	f1a7 0780 	sub.w	r7, r7, #128	; 0x80
 8008afa:	d1c9      	bne.n	8008a90 <xmp3_IMDCT+0x61c>
 8008afc:	f8dd b010 	ldr.w	fp, [sp, #16]
 8008b00:	f8cd 9000 	str.w	r9, [sp]
 8008b04:	9b05      	ldr	r3, [sp, #20]
 8008b06:	9c03      	ldr	r4, [sp, #12]
 8008b08:	990e      	ldr	r1, [sp, #56]	; 0x38
 8008b0a:	3324      	adds	r3, #36	; 0x24
 8008b0c:	9305      	str	r3, [sp, #20]
 8008b0e:	9b0b      	ldr	r3, [sp, #44]	; 0x2c
 8008b10:	461a      	mov	r2, r3
 8008b12:	3301      	adds	r3, #1
 8008b14:	930b      	str	r3, [sp, #44]	; 0x2c
 8008b16:	4620      	mov	r0, r4
 8008b18:	ee17 3a90 	vmov	r3, s15
 8008b1c:	3404      	adds	r4, #4
 8008b1e:	9403      	str	r4, [sp, #12]
 8008b20:	f7ff fa22 	bl	8007f68 <FreqInvertRescale>
 8008b24:	9b00      	ldr	r3, [sp, #0]
 8008b26:	4318      	orrs	r0, r3
 8008b28:	9b01      	ldr	r3, [sp, #4]
 8008b2a:	4303      	orrs	r3, r0
 8008b2c:	9301      	str	r3, [sp, #4]
 8008b2e:	9b1b      	ldr	r3, [sp, #108]	; 0x6c
 8008b30:	429c      	cmp	r4, r3
 8008b32:	f10b 0b48 	add.w	fp, fp, #72	; 0x48
 8008b36:	f000 81a1 	beq.w	8008e7c <xmp3_IMDCT+0xa08>
 8008b3a:	9b19      	ldr	r3, [sp, #100]	; 0x64
 8008b3c:	6c1b      	ldr	r3, [r3, #64]	; 0x40
 8008b3e:	e635      	b.n	80087ac <xmp3_IMDCT+0x338>
 8008b40:	3307      	adds	r3, #7
 8008b42:	fb80 2003 	smull	r2, r0, r0, r3
 8008b46:	17db      	asrs	r3, r3, #31
 8008b48:	ebc3 03a0 	rsb	r3, r3, r0, asr #2
 8008b4c:	eb03 02c3 	add.w	r2, r3, r3, lsl #3
 8008b50:	0052      	lsls	r2, r2, #1
 8008b52:	3208      	adds	r2, #8
 8008b54:	920f      	str	r2, [sp, #60]	; 0x3c
 8008b56:	1c5a      	adds	r2, r3, #1
 8008b58:	922c      	str	r2, [sp, #176]	; 0xb0
 8008b5a:	4631      	mov	r1, r6
 8008b5c:	9a34      	ldr	r2, [sp, #208]	; 0xd0
 8008b5e:	440a      	add	r2, r1
 8008b60:	0211      	lsls	r1, r2, #8
 8008b62:	910e      	str	r1, [sp, #56]	; 0x38
 8008b64:	990c      	ldr	r1, [sp, #48]	; 0x30
 8008b66:	2b00      	cmp	r3, #0
 8008b68:	eb01 2102 	add.w	r1, r1, r2, lsl #8
 8008b6c:	910a      	str	r1, [sp, #40]	; 0x28
 8008b6e:	f73f acd3 	bgt.w	8008518 <xmp3_IMDCT+0xa4>
 8008b72:	e9dd 1336 	ldrd	r1, r3, [sp, #216]	; 0xd8
 8008b76:	440b      	add	r3, r1
 8008b78:	011b      	lsls	r3, r3, #4
 8008b7a:	eb03 03c2 	add.w	r3, r3, r2, lsl #3
 8008b7e:	9a35      	ldr	r2, [sp, #212]	; 0xd4
 8008b80:	9833      	ldr	r0, [sp, #204]	; 0xcc
 8008b82:	4413      	add	r3, r2
 8008b84:	6c1b      	ldr	r3, [r3, #64]	; 0x40
 8008b86:	e5b5      	b.n	80086f4 <xmp3_IMDCT+0x280>
 8008b88:	6ed9eba1 	.word	0x6ed9eba1
 8008b8c:	620dbe8b 	.word	0x620dbe8b
 8008b90:	163a1a7e 	.word	0x163a1a7e
 8008b94:	7e0e2e32 	.word	0x7e0e2e32
 8008b98:	080139e8 	.word	0x080139e8
 8008b9c:	080139dc 	.word	0x080139dc
 8008ba0:	9f05      	ldr	r7, [sp, #20]
 8008ba2:	991a      	ldr	r1, [sp, #104]	; 0x68
 8008ba4:	f857 2c04 	ldr.w	r2, [r7, #-4]
 8008ba8:	f85b 4c04 	ldr.w	r4, [fp, #-4]
 8008bac:	f85b 6c08 	ldr.w	r6, [fp, #-8]
 8008bb0:	f857 3c08 	ldr.w	r3, [r7, #-8]
 8008bb4:	f857 0c0c 	ldr.w	r0, [r7, #-12]
 8008bb8:	410a      	asrs	r2, r1
 8008bba:	f847 2c04 	str.w	r2, [r7, #-4]
 8008bbe:	f85b 2c0c 	ldr.w	r2, [fp, #-12]
 8008bc2:	410b      	asrs	r3, r1
 8008bc4:	fa44 f501 	asr.w	r5, r4, r1
 8008bc8:	410e      	asrs	r6, r1
 8008bca:	460c      	mov	r4, r1
 8008bcc:	4108      	asrs	r0, r1
 8008bce:	410a      	asrs	r2, r1
 8008bd0:	f85b 1c10 	ldr.w	r1, [fp, #-16]
 8008bd4:	f847 3c08 	str.w	r3, [r7, #-8]
 8008bd8:	f85b 3c14 	ldr.w	r3, [fp, #-20]
 8008bdc:	9507      	str	r5, [sp, #28]
 8008bde:	eba6 0805 	sub.w	r8, r6, r5
 8008be2:	eba2 0208 	sub.w	r2, r2, r8
 8008be6:	fa41 fa04 	asr.w	sl, r1, r4
 8008bea:	4123      	asrs	r3, r4
 8008bec:	ebaa 0a02 	sub.w	sl, sl, r2
 8008bf0:	eba3 060a 	sub.w	r6, r3, sl
 8008bf4:	f85b 3c18 	ldr.w	r3, [fp, #-24]
 8008bf8:	f847 0c0c 	str.w	r0, [r7, #-12]
 8008bfc:	1b55      	subs	r5, r2, r5
 8008bfe:	f857 2c10 	ldr.w	r2, [r7, #-16]
 8008c02:	9508      	str	r5, [sp, #32]
 8008c04:	4123      	asrs	r3, r4
 8008c06:	4620      	mov	r0, r4
 8008c08:	fa42 f104 	asr.w	r1, r2, r4
 8008c0c:	1b9c      	subs	r4, r3, r6
 8008c0e:	f85b 3c1c 	ldr.w	r3, [fp, #-28]
 8008c12:	f857 2c14 	ldr.w	r2, [r7, #-20]
 8008c16:	9410      	str	r4, [sp, #64]	; 0x40
 8008c18:	4103      	asrs	r3, r0
 8008c1a:	1b76      	subs	r6, r6, r5
 8008c1c:	1b1d      	subs	r5, r3, r4
 8008c1e:	f85b 3c20 	ldr.w	r3, [fp, #-32]
 8008c22:	f847 1c10 	str.w	r1, [r7, #-16]
 8008c26:	4103      	asrs	r3, r0
 8008c28:	eba3 0905 	sub.w	r9, r3, r5
 8008c2c:	f85b 3c24 	ldr.w	r3, [fp, #-36]
 8008c30:	9611      	str	r6, [sp, #68]	; 0x44
 8008c32:	4601      	mov	r1, r0
 8008c34:	4102      	asrs	r2, r0
 8008c36:	1ba8      	subs	r0, r5, r6
 8008c38:	f85b 6c28 	ldr.w	r6, [fp, #-40]
 8008c3c:	f847 2c14 	str.w	r2, [r7, #-20]
 8008c40:	460d      	mov	r5, r1
 8008c42:	410b      	asrs	r3, r1
 8008c44:	eba3 0309 	sub.w	r3, r3, r9
 8008c48:	412e      	asrs	r6, r5
 8008c4a:	9009      	str	r0, [sp, #36]	; 0x24
 8008c4c:	1af6      	subs	r6, r6, r3
 8008c4e:	1a18      	subs	r0, r3, r0
 8008c50:	f85b 3c2c 	ldr.w	r3, [fp, #-44]
 8008c54:	f85b 4c30 	ldr.w	r4, [fp, #-48]
 8008c58:	f857 1c18 	ldr.w	r1, [r7, #-24]
 8008c5c:	f857 2c1c 	ldr.w	r2, [r7, #-28]
 8008c60:	9006      	str	r0, [sp, #24]
 8008c62:	412b      	asrs	r3, r5
 8008c64:	1b9b      	subs	r3, r3, r6
 8008c66:	412c      	asrs	r4, r5
 8008c68:	4129      	asrs	r1, r5
 8008c6a:	1ae4      	subs	r4, r4, r3
 8008c6c:	1a1b      	subs	r3, r3, r0
 8008c6e:	f847 1c18 	str.w	r1, [r7, #-24]
 8008c72:	9313      	str	r3, [sp, #76]	; 0x4c
 8008c74:	f85b 3c34 	ldr.w	r3, [fp, #-52]
 8008c78:	412b      	asrs	r3, r5
 8008c7a:	1b19      	subs	r1, r3, r4
 8008c7c:	f857 3c20 	ldr.w	r3, [r7, #-32]
 8008c80:	412a      	asrs	r2, r5
 8008c82:	fa43 f005 	asr.w	r0, r3, r5
 8008c86:	f85b 3c38 	ldr.w	r3, [fp, #-56]
 8008c8a:	f847 2c1c 	str.w	r2, [r7, #-28]
 8008c8e:	9a13      	ldr	r2, [sp, #76]	; 0x4c
 8008c90:	412b      	asrs	r3, r5
 8008c92:	1a5b      	subs	r3, r3, r1
 8008c94:	1a89      	subs	r1, r1, r2
 8008c96:	f85b 2c3c 	ldr.w	r2, [fp, #-60]
 8008c9a:	9114      	str	r1, [sp, #80]	; 0x50
 8008c9c:	412a      	asrs	r2, r5
 8008c9e:	1ad1      	subs	r1, r2, r3
 8008ca0:	9a05      	ldr	r2, [sp, #20]
 8008ca2:	462f      	mov	r7, r5
 8008ca4:	f85b 5c40 	ldr.w	r5, [fp, #-64]
 8008ca8:	f842 0c20 	str.w	r0, [r2, #-32]
 8008cac:	9a14      	ldr	r2, [sp, #80]	; 0x50
 8008cae:	413d      	asrs	r5, r7
 8008cb0:	1a6d      	subs	r5, r5, r1
 8008cb2:	1a89      	subs	r1, r1, r2
 8008cb4:	9104      	str	r1, [sp, #16]
 8008cb6:	f85b 2c44 	ldr.w	r2, [fp, #-68]
 8008cba:	f85b 1c48 	ldr.w	r1, [fp, #-72]
 8008cbe:	413a      	asrs	r2, r7
 8008cc0:	fa41 f707 	asr.w	r7, r1, r7
 8008cc4:	9904      	ldr	r1, [sp, #16]
 8008cc6:	1b52      	subs	r2, r2, r5
 8008cc8:	1abf      	subs	r7, r7, r2
 8008cca:	1a52      	subs	r2, r2, r1
 8008ccc:	9905      	ldr	r1, [sp, #20]
 8008cce:	f851 0c24 	ldr.w	r0, [r1, #-36]
 8008cd2:	991a      	ldr	r1, [sp, #104]	; 0x68
 8008cd4:	4108      	asrs	r0, r1
 8008cd6:	9905      	ldr	r1, [sp, #20]
 8008cd8:	f841 0c24 	str.w	r0, [r1, #-36]
 8008cdc:	e5cf      	b.n	800887e <xmp3_IMDCT+0x40a>
 8008cde:	9b12      	ldr	r3, [sp, #72]	; 0x48
 8008ce0:	4e64      	ldr	r6, [pc, #400]	; (8008e74 <xmp3_IMDCT+0xa00>)
 8008ce2:	9f05      	ldr	r7, [sp, #20]
 8008ce4:	eb03 03c3 	add.w	r3, r3, r3, lsl #3
 8008ce8:	eb06 1303 	add.w	r3, r6, r3, lsl #4
 8008cec:	f857 0c24 	ldr.w	r0, [r7, #-36]
 8008cf0:	f8d3 208c 	ldr.w	r2, [r3, #140]	; 0x8c
 8008cf4:	6c99      	ldr	r1, [r3, #72]	; 0x48
 8008cf6:	4604      	mov	r4, r0
 8008cf8:	fb81 5404 	smull	r5, r4, r1, r4
 8008cfc:	944c      	str	r4, [sp, #304]	; 0x130
 8008cfe:	fb82 1000 	smull	r1, r0, r2, r0
 8008d02:	905d      	str	r0, [sp, #372]	; 0x174
 8008d04:	f857 0c20 	ldr.w	r0, [r7, #-32]
 8008d08:	f8d3 2088 	ldr.w	r2, [r3, #136]	; 0x88
 8008d0c:	6cd9      	ldr	r1, [r3, #76]	; 0x4c
 8008d0e:	4604      	mov	r4, r0
 8008d10:	fb81 5404 	smull	r5, r4, r1, r4
 8008d14:	944d      	str	r4, [sp, #308]	; 0x134
 8008d16:	fb82 1000 	smull	r1, r0, r2, r0
 8008d1a:	905c      	str	r0, [sp, #368]	; 0x170
 8008d1c:	f857 0c1c 	ldr.w	r0, [r7, #-28]
 8008d20:	f8d3 2084 	ldr.w	r2, [r3, #132]	; 0x84
 8008d24:	6d19      	ldr	r1, [r3, #80]	; 0x50
 8008d26:	4604      	mov	r4, r0
 8008d28:	fb81 5404 	smull	r5, r4, r1, r4
 8008d2c:	944e      	str	r4, [sp, #312]	; 0x138
 8008d2e:	fb82 1000 	smull	r1, r0, r2, r0
 8008d32:	905b      	str	r0, [sp, #364]	; 0x16c
 8008d34:	f857 0c18 	ldr.w	r0, [r7, #-24]
 8008d38:	f8d3 2080 	ldr.w	r2, [r3, #128]	; 0x80
 8008d3c:	6d59      	ldr	r1, [r3, #84]	; 0x54
 8008d3e:	4604      	mov	r4, r0
 8008d40:	fb81 5404 	smull	r5, r4, r1, r4
 8008d44:	944f      	str	r4, [sp, #316]	; 0x13c
 8008d46:	fb82 1000 	smull	r1, r0, r2, r0
 8008d4a:	905a      	str	r0, [sp, #360]	; 0x168
 8008d4c:	f857 0c14 	ldr.w	r0, [r7, #-20]
 8008d50:	6fda      	ldr	r2, [r3, #124]	; 0x7c
 8008d52:	6d99      	ldr	r1, [r3, #88]	; 0x58
 8008d54:	4604      	mov	r4, r0
 8008d56:	fb81 5404 	smull	r5, r4, r1, r4
 8008d5a:	9450      	str	r4, [sp, #320]	; 0x140
 8008d5c:	fb82 1000 	smull	r1, r0, r2, r0
 8008d60:	9059      	str	r0, [sp, #356]	; 0x164
 8008d62:	f857 0c10 	ldr.w	r0, [r7, #-16]
 8008d66:	6f9a      	ldr	r2, [r3, #120]	; 0x78
 8008d68:	6dd9      	ldr	r1, [r3, #92]	; 0x5c
 8008d6a:	4604      	mov	r4, r0
 8008d6c:	fb81 5404 	smull	r5, r4, r1, r4
 8008d70:	9451      	str	r4, [sp, #324]	; 0x144
 8008d72:	fb82 1000 	smull	r1, r0, r2, r0
 8008d76:	9058      	str	r0, [sp, #352]	; 0x160
 8008d78:	f857 0c0c 	ldr.w	r0, [r7, #-12]
 8008d7c:	6f5a      	ldr	r2, [r3, #116]	; 0x74
 8008d7e:	6e19      	ldr	r1, [r3, #96]	; 0x60
 8008d80:	4604      	mov	r4, r0
 8008d82:	fb81 5404 	smull	r5, r4, r1, r4
 8008d86:	9452      	str	r4, [sp, #328]	; 0x148
 8008d88:	fb82 1000 	smull	r1, r0, r2, r0
 8008d8c:	9057      	str	r0, [sp, #348]	; 0x15c
 8008d8e:	f857 0c08 	ldr.w	r0, [r7, #-8]
 8008d92:	6f1a      	ldr	r2, [r3, #112]	; 0x70
 8008d94:	6e59      	ldr	r1, [r3, #100]	; 0x64
 8008d96:	4604      	mov	r4, r0
 8008d98:	fb81 5404 	smull	r5, r4, r1, r4
 8008d9c:	9453      	str	r4, [sp, #332]	; 0x14c
 8008d9e:	fb82 1000 	smull	r1, r0, r2, r0
 8008da2:	9056      	str	r0, [sp, #344]	; 0x158
 8008da4:	f857 2c04 	ldr.w	r2, [r7, #-4]
 8008da8:	e9d3 011a 	ldrd	r0, r1, [r3, #104]	; 0x68
 8008dac:	4613      	mov	r3, r2
 8008dae:	fb80 4303 	smull	r4, r3, r0, r3
 8008db2:	9354      	str	r3, [sp, #336]	; 0x150
 8008db4:	fb81 3202 	smull	r3, r2, r1, r2
 8008db8:	9255      	str	r2, [sp, #340]	; 0x154
 8008dba:	a94c      	add	r1, sp, #304	; 0x130
 8008dbc:	9b00      	ldr	r3, [sp, #0]
 8008dbe:	f8df 90b8 	ldr.w	r9, [pc, #184]	; 8008e78 <xmp3_IMDCT+0xa04>
 8008dc2:	9d03      	ldr	r5, [sp, #12]
 8008dc4:	f8dd c038 	ldr.w	ip, [sp, #56]	; 0x38
 8008dc8:	f8cd b018 	str.w	fp, [sp, #24]
 8008dcc:	eb03 03c3 	add.w	r3, r3, r3, lsl #3
 8008dd0:	eb06 1603 	add.w	r6, r6, r3, lsl #4
 8008dd4:	2300      	movs	r3, #0
 8008dd6:	f1a6 0804 	sub.w	r8, r6, #4
 8008dda:	461f      	mov	r7, r3
 8008ddc:	9300      	str	r3, [sp, #0]
 8008dde:	3648      	adds	r6, #72	; 0x48
 8008de0:	f50d 7ebc 	add.w	lr, sp, #376	; 0x178
 8008de4:	4618      	mov	r0, r3
 8008de6:	ac42      	add	r4, sp, #264	; 0x108
 8008de8:	9104      	str	r1, [sp, #16]
 8008dea:	6a63      	ldr	r3, [r4, #36]	; 0x24
 8008dec:	f859 a904 	ldr.w	sl, [r9], #-4
 8008df0:	f854 2904 	ldr.w	r2, [r4], #-4
 8008df4:	fb8a b303 	smull	fp, r3, sl, r3
 8008df8:	eb03 0aa2 	add.w	sl, r3, r2, asr #2
 8008dfc:	f84c ab04 	str.w	sl, [ip], #4
 8008e00:	ebc3 0aa2 	rsb	sl, r3, r2, asr #2
 8008e04:	f858 2f04 	ldr.w	r2, [r8, #4]!
 8008e08:	fb8a 3202 	smull	r3, r2, sl, r2
 8008e0c:	9b04      	ldr	r3, [sp, #16]
 8008e0e:	f853 3020 	ldr.w	r3, [r3, r0, lsl #2]
 8008e12:	441a      	add	r2, r3
 8008e14:	0092      	lsls	r2, r2, #2
 8008e16:	f856 3d04 	ldr.w	r3, [r6, #-4]!
 8008e1a:	fb8a b303 	smull	fp, r3, sl, r3
 8008e1e:	f85e ad04 	ldr.w	sl, [lr, #-4]!
 8008e22:	9903      	ldr	r1, [sp, #12]
 8008e24:	4453      	add	r3, sl
 8008e26:	ea4f 1ac0 	mov.w	sl, r0, lsl #7
 8008e2a:	009b      	lsls	r3, r3, #2
 8008e2c:	f841 200a 	str.w	r2, [r1, sl]
 8008e30:	f8c5 3880 	str.w	r3, [r5, #2176]	; 0x880
 8008e34:	46ba      	mov	sl, r7
 8008e36:	ea82 7ae2 	eor.w	sl, r2, r2, asr #31
 8008e3a:	ebaa 7ae2 	sub.w	sl, sl, r2, asr #31
 8008e3e:	463a      	mov	r2, r7
 8008e40:	ea83 72e3 	eor.w	r2, r3, r3, asr #31
 8008e44:	eba2 72e3 	sub.w	r2, r2, r3, asr #31
 8008e48:	9b00      	ldr	r3, [sp, #0]
 8008e4a:	ea4a 0202 	orr.w	r2, sl, r2
 8008e4e:	3001      	adds	r0, #1
 8008e50:	4313      	orrs	r3, r2
 8008e52:	2809      	cmp	r0, #9
 8008e54:	9300      	str	r3, [sp, #0]
 8008e56:	f1a5 0580 	sub.w	r5, r5, #128	; 0x80
 8008e5a:	d1c6      	bne.n	8008dea <xmp3_IMDCT+0x976>
 8008e5c:	f8dd b018 	ldr.w	fp, [sp, #24]
 8008e60:	e650      	b.n	8008b04 <xmp3_IMDCT+0x690>
 8008e62:	2b02      	cmp	r3, #2
 8008e64:	f47f af3b 	bne.w	8008cde <xmp3_IMDCT+0x86a>
 8008e68:	980e      	ldr	r0, [sp, #56]	; 0x38
 8008e6a:	4e02      	ldr	r6, [pc, #8]	; (8008e74 <xmp3_IMDCT+0xa00>)
 8008e6c:	a94c      	add	r1, sp, #304	; 0x130
 8008e6e:	f7ff f809 	bl	8007e84 <WinPrevious.part.0>
 8008e72:	e7a3      	b.n	8008dbc <xmp3_IMDCT+0x948>
 8008e74:	080140d0 	.word	0x080140d0
 8008e78:	080139dc 	.word	0x080139dc
 8008e7c:	9b2c      	ldr	r3, [sp, #176]	; 0xb0
 8008e7e:	9a0a      	ldr	r2, [sp, #40]	; 0x28
 8008e80:	eb03 03c3 	add.w	r3, r3, r3, lsl #3
 8008e84:	eb02 02c3 	add.w	r2, r2, r3, lsl #3
 8008e88:	920a      	str	r2, [sp, #40]	; 0x28
 8008e8a:	9a2b      	ldr	r2, [sp, #172]	; 0xac
 8008e8c:	eb02 0383 	add.w	r3, r2, r3, lsl #2
 8008e90:	932b      	str	r3, [sp, #172]	; 0xac
 8008e92:	9a02      	ldr	r2, [sp, #8]
 8008e94:	9b2c      	ldr	r3, [sp, #176]	; 0xb0
 8008e96:	429a      	cmp	r2, r3
 8008e98:	f341 832e 	ble.w	800a4f8 <xmp3_IMDCT+0x2084>
 8008e9c:	f8df 8520 	ldr.w	r8, [pc, #1312]	; 80093c0 <xmp3_IMDCT+0xf4c>
 8008ea0:	990d      	ldr	r1, [sp, #52]	; 0x34
 8008ea2:	f8d8 0120 	ldr.w	r0, [r8, #288]	; 0x120
 8008ea6:	9015      	str	r0, [sp, #84]	; 0x54
 8008ea8:	f8d8 012c 	ldr.w	r0, [r8, #300]	; 0x12c
 8008eac:	901b      	str	r0, [sp, #108]	; 0x6c
 8008eae:	f8d8 0138 	ldr.w	r0, [r8, #312]	; 0x138
 8008eb2:	901a      	str	r0, [sp, #104]	; 0x68
 8008eb4:	f8d8 0144 	ldr.w	r0, [r8, #324]	; 0x144
 8008eb8:	9019      	str	r0, [sp, #100]	; 0x64
 8008eba:	f8d8 0124 	ldr.w	r0, [r8, #292]	; 0x124
 8008ebe:	9018      	str	r0, [sp, #96]	; 0x60
 8008ec0:	f8d8 0130 	ldr.w	r0, [r8, #304]	; 0x130
 8008ec4:	9004      	str	r0, [sp, #16]
 8008ec6:	f8d8 013c 	ldr.w	r0, [r8, #316]	; 0x13c
 8008eca:	9016      	str	r0, [sp, #88]	; 0x58
 8008ecc:	2906      	cmp	r1, #6
 8008ece:	f8d8 0148 	ldr.w	r0, [r8, #328]	; 0x148
 8008ed2:	9017      	str	r0, [sp, #92]	; 0x5c
 8008ed4:	f1c1 0107 	rsb	r1, r1, #7
 8008ed8:	f8d8 0128 	ldr.w	r0, [r8, #296]	; 0x128
 8008edc:	9127      	str	r1, [sp, #156]	; 0x9c
 8008ede:	bfc8      	it	gt
 8008ee0:	2100      	movgt	r1, #0
 8008ee2:	ee07 1a10 	vmov	s14, r1
 8008ee6:	9012      	str	r0, [sp, #72]	; 0x48
 8008ee8:	9926      	ldr	r1, [sp, #152]	; 0x98
 8008eea:	f8d8 0134 	ldr.w	r0, [r8, #308]	; 0x134
 8008eee:	9003      	str	r0, [sp, #12]
 8008ef0:	f8d8 0140 	ldr.w	r0, [r8, #320]	; 0x140
 8008ef4:	9013      	str	r0, [sp, #76]	; 0x4c
 8008ef6:	4299      	cmp	r1, r3
 8008ef8:	f8d8 014c 	ldr.w	r0, [r8, #332]	; 0x14c
 8008efc:	9014      	str	r0, [sp, #80]	; 0x50
 8008efe:	f341 82d9 	ble.w	800a4b4 <xmp3_IMDCT+0x2040>
 8008f02:	428a      	cmp	r2, r1
 8008f04:	bfa8      	it	ge
 8008f06:	460a      	movge	r2, r1
 8008f08:	9229      	str	r2, [sp, #164]	; 0xa4
 8008f0a:	9a2b      	ldr	r2, [sp, #172]	; 0xac
 8008f0c:	980a      	ldr	r0, [sp, #40]	; 0x28
 8008f0e:	9300      	str	r3, [sp, #0]
 8008f10:	f102 0c24 	add.w	ip, r2, #36	; 0x24
 8008f14:	9a32      	ldr	r2, [sp, #200]	; 0xc8
 8008f16:	f100 0a48 	add.w	sl, r0, #72	; 0x48
 8008f1a:	f8d8 008c 	ldr.w	r0, [r8, #140]	; 0x8c
 8008f1e:	9028      	str	r0, [sp, #160]	; 0xa0
 8008f20:	eb02 0783 	add.w	r7, r2, r3, lsl #2
 8008f24:	f8d8 0048 	ldr.w	r0, [r8, #72]	; 0x48
 8008f28:	902a      	str	r0, [sp, #168]	; 0xa8
 8008f2a:	46c1      	mov	r9, r8
 8008f2c:	46e6      	mov	lr, ip
 8008f2e:	46b8      	mov	r8, r7
 8008f30:	f1ae 0324 	sub.w	r3, lr, #36	; 0x24
 8008f34:	ee06 3a90 	vmov	s13, r3
 8008f38:	9b0d      	ldr	r3, [sp, #52]	; 0x34
 8008f3a:	2b06      	cmp	r3, #6
 8008f3c:	ee07 8a90 	vmov	s15, r8
 8008f40:	f300 8088 	bgt.w	8009054 <xmp3_IMDCT+0xbe0>
 8008f44:	9a27      	ldr	r2, [sp, #156]	; 0x9c
 8008f46:	f85a 3c48 	ldr.w	r3, [sl, #-72]
 8008f4a:	4113      	asrs	r3, r2
 8008f4c:	f84a 3c48 	str.w	r3, [sl, #-72]
 8008f50:	f85a 3c44 	ldr.w	r3, [sl, #-68]
 8008f54:	4113      	asrs	r3, r2
 8008f56:	f84a 3c44 	str.w	r3, [sl, #-68]
 8008f5a:	f85e 3c24 	ldr.w	r3, [lr, #-36]
 8008f5e:	4113      	asrs	r3, r2
 8008f60:	f84e 3c24 	str.w	r3, [lr, #-36]
 8008f64:	f85a 3c40 	ldr.w	r3, [sl, #-64]
 8008f68:	4113      	asrs	r3, r2
 8008f6a:	f84a 3c40 	str.w	r3, [sl, #-64]
 8008f6e:	f85a 3c3c 	ldr.w	r3, [sl, #-60]
 8008f72:	4113      	asrs	r3, r2
 8008f74:	f84a 3c3c 	str.w	r3, [sl, #-60]
 8008f78:	f85e 3c20 	ldr.w	r3, [lr, #-32]
 8008f7c:	4113      	asrs	r3, r2
 8008f7e:	f84e 3c20 	str.w	r3, [lr, #-32]
 8008f82:	f85a 3c38 	ldr.w	r3, [sl, #-56]
 8008f86:	4113      	asrs	r3, r2
 8008f88:	f84a 3c38 	str.w	r3, [sl, #-56]
 8008f8c:	f85a 3c34 	ldr.w	r3, [sl, #-52]
 8008f90:	4113      	asrs	r3, r2
 8008f92:	f84a 3c34 	str.w	r3, [sl, #-52]
 8008f96:	f85e 3c1c 	ldr.w	r3, [lr, #-28]
 8008f9a:	4113      	asrs	r3, r2
 8008f9c:	f84e 3c1c 	str.w	r3, [lr, #-28]
 8008fa0:	f85a 3c30 	ldr.w	r3, [sl, #-48]
 8008fa4:	4113      	asrs	r3, r2
 8008fa6:	f84a 3c30 	str.w	r3, [sl, #-48]
 8008faa:	f85a 3c2c 	ldr.w	r3, [sl, #-44]
 8008fae:	4113      	asrs	r3, r2
 8008fb0:	f84a 3c2c 	str.w	r3, [sl, #-44]
 8008fb4:	f85e 3c18 	ldr.w	r3, [lr, #-24]
 8008fb8:	4113      	asrs	r3, r2
 8008fba:	f84e 3c18 	str.w	r3, [lr, #-24]
 8008fbe:	f85a 3c28 	ldr.w	r3, [sl, #-40]
 8008fc2:	4113      	asrs	r3, r2
 8008fc4:	f84a 3c28 	str.w	r3, [sl, #-40]
 8008fc8:	f85a 3c24 	ldr.w	r3, [sl, #-36]
 8008fcc:	4113      	asrs	r3, r2
 8008fce:	f84a 3c24 	str.w	r3, [sl, #-36]
 8008fd2:	f85e 3c14 	ldr.w	r3, [lr, #-20]
 8008fd6:	4113      	asrs	r3, r2
 8008fd8:	f84e 3c14 	str.w	r3, [lr, #-20]
 8008fdc:	f85a 3c20 	ldr.w	r3, [sl, #-32]
 8008fe0:	4113      	asrs	r3, r2
 8008fe2:	f84a 3c20 	str.w	r3, [sl, #-32]
 8008fe6:	f85a 3c1c 	ldr.w	r3, [sl, #-28]
 8008fea:	4113      	asrs	r3, r2
 8008fec:	f84a 3c1c 	str.w	r3, [sl, #-28]
 8008ff0:	f85e 3c10 	ldr.w	r3, [lr, #-16]
 8008ff4:	4113      	asrs	r3, r2
 8008ff6:	f84e 3c10 	str.w	r3, [lr, #-16]
 8008ffa:	f85a 3c18 	ldr.w	r3, [sl, #-24]
 8008ffe:	4113      	asrs	r3, r2
 8009000:	f84a 3c18 	str.w	r3, [sl, #-24]
 8009004:	f85a 3c14 	ldr.w	r3, [sl, #-20]
 8009008:	4113      	asrs	r3, r2
 800900a:	f84a 3c14 	str.w	r3, [sl, #-20]
 800900e:	f85e 3c0c 	ldr.w	r3, [lr, #-12]
 8009012:	4113      	asrs	r3, r2
 8009014:	f84e 3c0c 	str.w	r3, [lr, #-12]
 8009018:	f85a 3c10 	ldr.w	r3, [sl, #-16]
 800901c:	4113      	asrs	r3, r2
 800901e:	f84a 3c10 	str.w	r3, [sl, #-16]
 8009022:	f85a 3c0c 	ldr.w	r3, [sl, #-12]
 8009026:	4113      	asrs	r3, r2
 8009028:	f84a 3c0c 	str.w	r3, [sl, #-12]
 800902c:	f85e 3c08 	ldr.w	r3, [lr, #-8]
 8009030:	4113      	asrs	r3, r2
 8009032:	f84e 3c08 	str.w	r3, [lr, #-8]
 8009036:	f85a 3c08 	ldr.w	r3, [sl, #-8]
 800903a:	4113      	asrs	r3, r2
 800903c:	f84a 3c08 	str.w	r3, [sl, #-8]
 8009040:	f85a 3c04 	ldr.w	r3, [sl, #-4]
 8009044:	4113      	asrs	r3, r2
 8009046:	f84a 3c04 	str.w	r3, [sl, #-4]
 800904a:	f85e 3c04 	ldr.w	r3, [lr, #-4]
 800904e:	4113      	asrs	r3, r2
 8009050:	f84e 3c04 	str.w	r3, [lr, #-4]
 8009054:	f85a 0c0c 	ldr.w	r0, [sl, #-12]
 8009058:	f85a 5c18 	ldr.w	r5, [sl, #-24]
 800905c:	f85a 2c24 	ldr.w	r2, [sl, #-36]
 8009060:	f85a 3c30 	ldr.w	r3, [sl, #-48]
 8009064:	f85a 6c48 	ldr.w	r6, [sl, #-72]
 8009068:	4fd1      	ldr	r7, [pc, #836]	; (80093b0 <xmp3_IMDCT+0xf3c>)
 800906a:	1a2c      	subs	r4, r5, r0
 800906c:	1b12      	subs	r2, r2, r4
 800906e:	eba3 0c02 	sub.w	ip, r3, r2
 8009072:	f85a 3c3c 	ldr.w	r3, [sl, #-60]
 8009076:	1a12      	subs	r2, r2, r0
 8009078:	eba3 030c 	sub.w	r3, r3, ip
 800907c:	1af5      	subs	r5, r6, r3
 800907e:	1a9b      	subs	r3, r3, r2
 8009080:	106d      	asrs	r5, r5, #1
 8009082:	105b      	asrs	r3, r3, #1
 8009084:	4639      	mov	r1, r7
 8009086:	fb87 6c0c 	smull	r6, ip, r7, ip
 800908a:	eb05 0764 	add.w	r7, r5, r4, asr #1
 800908e:	1b2c      	subs	r4, r5, r4
 8009090:	9405      	str	r4, [sp, #20]
 8009092:	eb07 054c 	add.w	r5, r7, ip, lsl #1
 8009096:	eba7 0c4c 	sub.w	ip, r7, ip, lsl #1
 800909a:	fb81 4202 	smull	r4, r2, r1, r2
 800909e:	eb03 0460 	add.w	r4, r3, r0, asr #1
 80090a2:	eb04 0642 	add.w	r6, r4, r2, lsl #1
 80090a6:	49c3      	ldr	r1, [pc, #780]	; (80093b4 <xmp3_IMDCT+0xf40>)
 80090a8:	0052      	lsls	r2, r2, #1
 80090aa:	fb81 7606 	smull	r7, r6, r1, r6
 80090ae:	1a1b      	subs	r3, r3, r0
 80090b0:	00b0      	lsls	r0, r6, #2
 80090b2:	49c1      	ldr	r1, [pc, #772]	; (80093b8 <xmp3_IMDCT+0xf44>)
 80090b4:	9006      	str	r0, [sp, #24]
 80090b6:	fb81 0303 	smull	r0, r3, r1, r3
 80090ba:	009b      	lsls	r3, r3, #2
 80090bc:	48bf      	ldr	r0, [pc, #764]	; (80093bc <xmp3_IMDCT+0xf48>)
 80090be:	9307      	str	r3, [sp, #28]
 80090c0:	1aa4      	subs	r4, r4, r2
 80090c2:	fb80 2404 	smull	r2, r4, r0, r4
 80090c6:	9b06      	ldr	r3, [sp, #24]
 80090c8:	f85a 1c08 	ldr.w	r1, [sl, #-8]
 80090cc:	f85a 2c14 	ldr.w	r2, [sl, #-20]
 80090d0:	f85a 0c2c 	ldr.w	r0, [sl, #-44]
 80090d4:	f85a 7c44 	ldr.w	r7, [sl, #-68]
 80090d8:	f8cd a028 	str.w	sl, [sp, #40]	; 0x28
 80090dc:	18eb      	adds	r3, r5, r3
 80090de:	930b      	str	r3, [sp, #44]	; 0x2c
 80090e0:	9b06      	ldr	r3, [sp, #24]
 80090e2:	1a56      	subs	r6, r2, r1
 80090e4:	1aed      	subs	r5, r5, r3
 80090e6:	f85a 2c20 	ldr.w	r2, [sl, #-32]
 80090ea:	9b05      	ldr	r3, [sp, #20]
 80090ec:	9511      	str	r5, [sp, #68]	; 0x44
 80090ee:	9d07      	ldr	r5, [sp, #28]
 80090f0:	1b92      	subs	r2, r2, r6
 80090f2:	1a80      	subs	r0, r0, r2
 80090f4:	eba2 0b01 	sub.w	fp, r2, r1
 80090f8:	442b      	add	r3, r5
 80090fa:	f85a 2c38 	ldr.w	r2, [sl, #-56]
 80090fe:	930e      	str	r3, [sp, #56]	; 0x38
 8009100:	9b05      	ldr	r3, [sp, #20]
 8009102:	1a12      	subs	r2, r2, r0
 8009104:	1b5b      	subs	r3, r3, r5
 8009106:	1abf      	subs	r7, r7, r2
 8009108:	eb0c 0584 	add.w	r5, ip, r4, lsl #2
 800910c:	eba2 020b 	sub.w	r2, r2, fp
 8009110:	ebac 0c84 	sub.w	ip, ip, r4, lsl #2
 8009114:	107f      	asrs	r7, r7, #1
 8009116:	4ca6      	ldr	r4, [pc, #664]	; (80093b0 <xmp3_IMDCT+0xf3c>)
 8009118:	9324      	str	r3, [sp, #144]	; 0x90
 800911a:	1052      	asrs	r2, r2, #1
 800911c:	950f      	str	r5, [sp, #60]	; 0x3c
 800911e:	f8cd c040 	str.w	ip, [sp, #64]	; 0x40
 8009122:	fb84 3000 	smull	r3, r0, r4, r0
 8009126:	eb07 0366 	add.w	r3, r7, r6, asr #1
 800912a:	eb03 0c40 	add.w	ip, r3, r0, lsl #1
 800912e:	1bbe      	subs	r6, r7, r6
 8009130:	f8cd c018 	str.w	ip, [sp, #24]
 8009134:	eba3 0c40 	sub.w	ip, r3, r0, lsl #1
 8009138:	9605      	str	r6, [sp, #20]
 800913a:	f8cd c01c 	str.w	ip, [sp, #28]
 800913e:	fb84 3b0b 	smull	r3, fp, r4, fp
 8009142:	eb02 0061 	add.w	r0, r2, r1, asr #1
 8009146:	eb00 034b 	add.w	r3, r0, fp, lsl #1
 800914a:	4e9a      	ldr	r6, [pc, #616]	; (80093b4 <xmp3_IMDCT+0xf40>)
 800914c:	ea4f 0b4b 	mov.w	fp, fp, lsl #1
 8009150:	fb86 4303 	smull	r4, r3, r6, r3
 8009154:	009b      	lsls	r3, r3, #2
 8009156:	4e98      	ldr	r6, [pc, #608]	; (80093b8 <xmp3_IMDCT+0xf44>)
 8009158:	9308      	str	r3, [sp, #32]
 800915a:	1a52      	subs	r2, r2, r1
 800915c:	fb86 3202 	smull	r3, r2, r6, r2
 8009160:	eba0 0b0b 	sub.w	fp, r0, fp
 8009164:	0095      	lsls	r5, r2, #2
 8009166:	4895      	ldr	r0, [pc, #596]	; (80093bc <xmp3_IMDCT+0xf48>)
 8009168:	fb80 3b0b 	smull	r3, fp, r0, fp
 800916c:	f85a 4c04 	ldr.w	r4, [sl, #-4]
 8009170:	f85a 3c10 	ldr.w	r3, [sl, #-16]
 8009174:	9907      	ldr	r1, [sp, #28]
 8009176:	f85a 2c28 	ldr.w	r2, [sl, #-40]
 800917a:	f85a 0c34 	ldr.w	r0, [sl, #-52]
 800917e:	f85a 7c40 	ldr.w	r7, [sl, #-64]
 8009182:	9521      	str	r5, [sp, #132]	; 0x84
 8009184:	1b1e      	subs	r6, r3, r4
 8009186:	f85a 3c1c 	ldr.w	r3, [sl, #-28]
 800918a:	eba1 0a8b 	sub.w	sl, r1, fp, lsl #2
 800918e:	9905      	ldr	r1, [sp, #20]
 8009190:	1b9b      	subs	r3, r3, r6
 8009192:	1b4d      	subs	r5, r1, r5
 8009194:	1ad2      	subs	r2, r2, r3
 8009196:	9906      	ldr	r1, [sp, #24]
 8009198:	9523      	str	r5, [sp, #140]	; 0x8c
 800919a:	9d08      	ldr	r5, [sp, #32]
 800919c:	1a80      	subs	r0, r0, r2
 800919e:	1b1b      	subs	r3, r3, r4
 80091a0:	1b4d      	subs	r5, r1, r5
 80091a2:	1a3f      	subs	r7, r7, r0
 80091a4:	ea4f 0c8b 	mov.w	ip, fp, lsl #2
 80091a8:	1ac0      	subs	r0, r0, r3
 80091aa:	4981      	ldr	r1, [pc, #516]	; (80093b0 <xmp3_IMDCT+0xf3c>)
 80091ac:	f8cd c088 	str.w	ip, [sp, #136]	; 0x88
 80091b0:	107f      	asrs	r7, r7, #1
 80091b2:	1040      	asrs	r0, r0, #1
 80091b4:	9509      	str	r5, [sp, #36]	; 0x24
 80091b6:	fb81 c202 	smull	ip, r2, r1, r2
 80091ba:	eb07 0c66 	add.w	ip, r7, r6, asr #1
 80091be:	eb0c 0b42 	add.w	fp, ip, r2, lsl #1
 80091c2:	1bbd      	subs	r5, r7, r6
 80091c4:	951c      	str	r5, [sp, #112]	; 0x70
 80091c6:	f8cd b074 	str.w	fp, [sp, #116]	; 0x74
 80091ca:	ebac 0c42 	sub.w	ip, ip, r2, lsl #1
 80091ce:	fb81 2303 	smull	r2, r3, r1, r3
 80091d2:	eb00 0264 	add.w	r2, r0, r4, asr #1
 80091d6:	eb02 0643 	add.w	r6, r2, r3, lsl #1
 80091da:	4976      	ldr	r1, [pc, #472]	; (80093b4 <xmp3_IMDCT+0xf40>)
 80091dc:	005b      	lsls	r3, r3, #1
 80091de:	fb81 7606 	smull	r7, r6, r1, r6
 80091e2:	1b00      	subs	r0, r0, r4
 80091e4:	00b4      	lsls	r4, r6, #2
 80091e6:	941e      	str	r4, [sp, #120]	; 0x78
 80091e8:	4e73      	ldr	r6, [pc, #460]	; (80093b8 <xmp3_IMDCT+0xf44>)
 80091ea:	fb86 4000 	smull	r4, r0, r6, r0
 80091ee:	0084      	lsls	r4, r0, #2
 80091f0:	1ad3      	subs	r3, r2, r3
 80091f2:	4872      	ldr	r0, [pc, #456]	; (80093bc <xmp3_IMDCT+0xf48>)
 80091f4:	941f      	str	r4, [sp, #124]	; 0x7c
 80091f6:	fb80 2303 	smull	r2, r3, r0, r3
 80091fa:	f85e 2c24 	ldr.w	r2, [lr, #-36]
 80091fe:	9e2a      	ldr	r6, [sp, #168]	; 0xa8
 8009200:	009b      	lsls	r3, r3, #2
 8009202:	9320      	str	r3, [sp, #128]	; 0x80
 8009204:	46f3      	mov	fp, lr
 8009206:	4613      	mov	r3, r2
 8009208:	fb86 0303 	smull	r0, r3, r6, r3
 800920c:	9e28      	ldr	r6, [sp, #160]	; 0xa0
 800920e:	934c      	str	r3, [sp, #304]	; 0x130
 8009210:	fb86 0202 	smull	r0, r2, r6, r2
 8009214:	925d      	str	r2, [sp, #372]	; 0x174
 8009216:	f85e 4c20 	ldr.w	r4, [lr, #-32]
 800921a:	f8d9 2088 	ldr.w	r2, [r9, #136]	; 0x88
 800921e:	f8d9 004c 	ldr.w	r0, [r9, #76]	; 0x4c
 8009222:	4626      	mov	r6, r4
 8009224:	fb80 7606 	smull	r7, r6, r0, r6
 8009228:	964d      	str	r6, [sp, #308]	; 0x134
 800922a:	fb82 0404 	smull	r0, r4, r2, r4
 800922e:	945c      	str	r4, [sp, #368]	; 0x170
 8009230:	f85e 4c1c 	ldr.w	r4, [lr, #-28]
 8009234:	f8d9 2084 	ldr.w	r2, [r9, #132]	; 0x84
 8009238:	f8d9 0050 	ldr.w	r0, [r9, #80]	; 0x50
 800923c:	4626      	mov	r6, r4
 800923e:	fb80 7606 	smull	r7, r6, r0, r6
 8009242:	964e      	str	r6, [sp, #312]	; 0x138
 8009244:	fb82 0404 	smull	r0, r4, r2, r4
 8009248:	945b      	str	r4, [sp, #364]	; 0x16c
 800924a:	f85e 4c18 	ldr.w	r4, [lr, #-24]
 800924e:	f8d9 2080 	ldr.w	r2, [r9, #128]	; 0x80
 8009252:	f8d9 0054 	ldr.w	r0, [r9, #84]	; 0x54
 8009256:	4626      	mov	r6, r4
 8009258:	fb80 7606 	smull	r7, r6, r0, r6
 800925c:	964f      	str	r6, [sp, #316]	; 0x13c
 800925e:	fb82 0404 	smull	r0, r4, r2, r4
 8009262:	945a      	str	r4, [sp, #360]	; 0x168
 8009264:	f85e 4c14 	ldr.w	r4, [lr, #-20]
 8009268:	f8d9 207c 	ldr.w	r2, [r9, #124]	; 0x7c
 800926c:	f8d9 0058 	ldr.w	r0, [r9, #88]	; 0x58
 8009270:	4626      	mov	r6, r4
 8009272:	fb80 7606 	smull	r7, r6, r0, r6
 8009276:	9650      	str	r6, [sp, #320]	; 0x140
 8009278:	fb82 0404 	smull	r0, r4, r2, r4
 800927c:	9459      	str	r4, [sp, #356]	; 0x164
 800927e:	f85e 4c10 	ldr.w	r4, [lr, #-16]
 8009282:	f8d9 2078 	ldr.w	r2, [r9, #120]	; 0x78
 8009286:	f8d9 005c 	ldr.w	r0, [r9, #92]	; 0x5c
 800928a:	4626      	mov	r6, r4
 800928c:	fb80 7606 	smull	r7, r6, r0, r6
 8009290:	9651      	str	r6, [sp, #324]	; 0x144
 8009292:	fb82 0404 	smull	r0, r4, r2, r4
 8009296:	9458      	str	r4, [sp, #352]	; 0x160
 8009298:	f85e 4c0c 	ldr.w	r4, [lr, #-12]
 800929c:	f8d9 2074 	ldr.w	r2, [r9, #116]	; 0x74
 80092a0:	f8d9 0060 	ldr.w	r0, [r9, #96]	; 0x60
 80092a4:	4626      	mov	r6, r4
 80092a6:	fb80 7606 	smull	r7, r6, r0, r6
 80092aa:	9652      	str	r6, [sp, #328]	; 0x148
 80092ac:	fb82 0404 	smull	r0, r4, r2, r4
 80092b0:	9457      	str	r4, [sp, #348]	; 0x15c
 80092b2:	f85e 4c08 	ldr.w	r4, [lr, #-8]
 80092b6:	f8d9 2070 	ldr.w	r2, [r9, #112]	; 0x70
 80092ba:	f8d9 0064 	ldr.w	r0, [r9, #100]	; 0x64
 80092be:	4626      	mov	r6, r4
 80092c0:	fb80 7606 	smull	r7, r6, r0, r6
 80092c4:	9653      	str	r6, [sp, #332]	; 0x14c
 80092c6:	fb82 0404 	smull	r0, r4, r2, r4
 80092ca:	9456      	str	r4, [sp, #344]	; 0x158
 80092cc:	f85e 4c04 	ldr.w	r4, [lr, #-4]
 80092d0:	f8d9 206c 	ldr.w	r2, [r9, #108]	; 0x6c
 80092d4:	f8d9 0068 	ldr.w	r0, [r9, #104]	; 0x68
 80092d8:	4626      	mov	r6, r4
 80092da:	fb80 7606 	smull	r7, r6, r0, r6
 80092de:	9654      	str	r6, [sp, #336]	; 0x150
 80092e0:	fb82 0404 	smull	r0, r4, r2, r4
 80092e4:	2200      	movs	r2, #0
 80092e6:	9455      	str	r4, [sp, #340]	; 0x154
 80092e8:	009b      	lsls	r3, r3, #2
 80092ea:	4610      	mov	r0, r2
 80092ec:	ea83 70e3 	eor.w	r0, r3, r3, asr #31
 80092f0:	eba0 70e3 	sub.w	r0, r0, r3, asr #31
 80092f4:	f848 3b04 	str.w	r3, [r8], #4
 80092f8:	9b4f      	ldr	r3, [sp, #316]	; 0x13c
 80092fa:	4614      	mov	r4, r2
 80092fc:	009b      	lsls	r3, r3, #2
 80092fe:	ea83 74e3 	eor.w	r4, r3, r3, asr #31
 8009302:	eba4 74e3 	sub.w	r4, r4, r3, asr #31
 8009306:	4320      	orrs	r0, r4
 8009308:	9f15      	ldr	r7, [sp, #84]	; 0x54
 800930a:	9c10      	ldr	r4, [sp, #64]	; 0x40
 800930c:	f8c8 317c 	str.w	r3, [r8, #380]	; 0x17c
 8009310:	fb87 3404 	smull	r3, r4, r7, r4
 8009314:	9b52      	ldr	r3, [sp, #328]	; 0x148
 8009316:	eb04 0383 	add.w	r3, r4, r3, lsl #2
 800931a:	4614      	mov	r4, r2
 800931c:	ea83 74e3 	eor.w	r4, r3, r3, asr #31
 8009320:	eba4 74e3 	sub.w	r4, r4, r3, asr #31
 8009324:	4320      	orrs	r0, r4
 8009326:	991b      	ldr	r1, [sp, #108]	; 0x6c
 8009328:	9c11      	ldr	r4, [sp, #68]	; 0x44
 800932a:	f8c8 32fc 	str.w	r3, [r8, #764]	; 0x2fc
 800932e:	fb81 3404 	smull	r3, r4, r1, r4
 8009332:	9b55      	ldr	r3, [sp, #340]	; 0x154
 8009334:	eb04 0383 	add.w	r3, r4, r3, lsl #2
 8009338:	4614      	mov	r4, r2
 800933a:	ea83 74e3 	eor.w	r4, r3, r3, asr #31
 800933e:	eba4 74e3 	sub.w	r4, r4, r3, asr #31
 8009342:	f8c8 347c 	str.w	r3, [r8, #1148]	; 0x47c
 8009346:	9e1a      	ldr	r6, [sp, #104]	; 0x68
 8009348:	9b0f      	ldr	r3, [sp, #60]	; 0x3c
 800934a:	4320      	orrs	r0, r4
 800934c:	fb86 4303 	smull	r4, r3, r6, r3
 8009350:	4654      	mov	r4, sl
 8009352:	fb87 6404 	smull	r6, r4, r7, r4
 8009356:	441c      	add	r4, r3
 8009358:	9b58      	ldr	r3, [sp, #352]	; 0x160
 800935a:	eb04 0383 	add.w	r3, r4, r3, lsl #2
 800935e:	4614      	mov	r4, r2
 8009360:	ea83 74e3 	eor.w	r4, r3, r3, asr #31
 8009364:	eba4 74e3 	sub.w	r4, r4, r3, asr #31
 8009368:	f8c8 35fc 	str.w	r3, [r8, #1532]	; 0x5fc
 800936c:	9f19      	ldr	r7, [sp, #100]	; 0x64
 800936e:	9b0b      	ldr	r3, [sp, #44]	; 0x2c
 8009370:	4320      	orrs	r0, r4
 8009372:	fb87 4303 	smull	r4, r3, r7, r3
 8009376:	9c09      	ldr	r4, [sp, #36]	; 0x24
 8009378:	fb81 6404 	smull	r6, r4, r1, r4
 800937c:	441c      	add	r4, r3
 800937e:	9b5b      	ldr	r3, [sp, #364]	; 0x16c
 8009380:	eb04 0383 	add.w	r3, r4, r3, lsl #2
 8009384:	4614      	mov	r4, r2
 8009386:	ea83 74e3 	eor.w	r4, r3, r3, asr #31
 800938a:	eba4 74e3 	sub.w	r4, r4, r3, asr #31
 800938e:	f8c8 377c 	str.w	r3, [r8, #1916]	; 0x77c
 8009392:	9b4d      	ldr	r3, [sp, #308]	; 0x134
 8009394:	4320      	orrs	r0, r4
 8009396:	009b      	lsls	r3, r3, #2
 8009398:	4614      	mov	r4, r2
 800939a:	ea83 74e3 	eor.w	r4, r3, r3, asr #31
 800939e:	eba4 74e3 	sub.w	r4, r4, r3, asr #31
 80093a2:	f8c8 307c 	str.w	r3, [r8, #124]	; 0x7c
 80093a6:	9b50      	ldr	r3, [sp, #320]	; 0x140
 80093a8:	4320      	orrs	r0, r4
 80093aa:	009b      	lsls	r3, r3, #2
 80093ac:	4614      	mov	r4, r2
 80093ae:	e009      	b.n	80093c4 <xmp3_IMDCT+0xf50>
 80093b0:	6ed9eba1 	.word	0x6ed9eba1
 80093b4:	7ba3751d 	.word	0x7ba3751d
 80093b8:	5a82799a 	.word	0x5a82799a
 80093bc:	2120fb83 	.word	0x2120fb83
 80093c0:	080140d0 	.word	0x080140d0
 80093c4:	ea83 74e3 	eor.w	r4, r3, r3, asr #31
 80093c8:	eba4 74e3 	sub.w	r4, r4, r3, asr #31
 80093cc:	9924      	ldr	r1, [sp, #144]	; 0x90
 80093ce:	9f18      	ldr	r7, [sp, #96]	; 0x60
 80093d0:	f8c8 31fc 	str.w	r3, [r8, #508]	; 0x1fc
 80093d4:	4320      	orrs	r0, r4
 80093d6:	460c      	mov	r4, r1
 80093d8:	fb87 3404 	smull	r3, r4, r7, r4
 80093dc:	9b53      	ldr	r3, [sp, #332]	; 0x14c
 80093de:	eb04 0383 	add.w	r3, r4, r3, lsl #2
 80093e2:	4614      	mov	r4, r2
 80093e4:	ea83 74e3 	eor.w	r4, r3, r3, asr #31
 80093e8:	eba4 74e3 	sub.w	r4, r4, r3, asr #31
 80093ec:	9e04      	ldr	r6, [sp, #16]
 80093ee:	f8c8 337c 	str.w	r3, [r8, #892]	; 0x37c
 80093f2:	4304      	orrs	r4, r0
 80093f4:	460d      	mov	r5, r1
 80093f6:	fb86 3505 	smull	r3, r5, r6, r5
 80093fa:	9856      	ldr	r0, [sp, #344]	; 0x158
 80093fc:	eb05 0580 	add.w	r5, r5, r0, lsl #2
 8009400:	4610      	mov	r0, r2
 8009402:	ea85 70e5 	eor.w	r0, r5, r5, asr #31
 8009406:	eba0 70e5 	sub.w	r0, r0, r5, asr #31
 800940a:	9b0e      	ldr	r3, [sp, #56]	; 0x38
 800940c:	9916      	ldr	r1, [sp, #88]	; 0x58
 800940e:	f8c8 54fc 	str.w	r5, [r8, #1276]	; 0x4fc
 8009412:	4304      	orrs	r4, r0
 8009414:	fb81 0303 	smull	r0, r3, r1, r3
 8009418:	9923      	ldr	r1, [sp, #140]	; 0x8c
 800941a:	4608      	mov	r0, r1
 800941c:	fb87 5000 	smull	r5, r0, r7, r0
 8009420:	4418      	add	r0, r3
 8009422:	9b59      	ldr	r3, [sp, #356]	; 0x164
 8009424:	eb00 0383 	add.w	r3, r0, r3, lsl #2
 8009428:	4610      	mov	r0, r2
 800942a:	ea83 70e3 	eor.w	r0, r3, r3, asr #31
 800942e:	eba0 70e3 	sub.w	r0, r0, r3, asr #31
 8009432:	9d0e      	ldr	r5, [sp, #56]	; 0x38
 8009434:	9f17      	ldr	r7, [sp, #92]	; 0x5c
 8009436:	f8c8 367c 	str.w	r3, [r8, #1660]	; 0x67c
 800943a:	4320      	orrs	r0, r4
 800943c:	fb87 3505 	smull	r3, r5, r7, r5
 8009440:	460c      	mov	r4, r1
 8009442:	fb86 3404 	smull	r3, r4, r6, r4
 8009446:	192b      	adds	r3, r5, r4
 8009448:	9c5c      	ldr	r4, [sp, #368]	; 0x170
 800944a:	eb03 0384 	add.w	r3, r3, r4, lsl #2
 800944e:	4614      	mov	r4, r2
 8009450:	ea83 74e3 	eor.w	r4, r3, r3, asr #31
 8009454:	eba4 74e3 	sub.w	r4, r4, r3, asr #31
 8009458:	f8c8 37fc 	str.w	r3, [r8, #2044]	; 0x7fc
 800945c:	9b4e      	ldr	r3, [sp, #312]	; 0x138
 800945e:	4320      	orrs	r0, r4
 8009460:	009b      	lsls	r3, r3, #2
 8009462:	4614      	mov	r4, r2
 8009464:	ea83 74e3 	eor.w	r4, r3, r3, asr #31
 8009468:	eba4 74e3 	sub.w	r4, r4, r3, asr #31
 800946c:	f8c8 30fc 	str.w	r3, [r8, #252]	; 0xfc
 8009470:	9b51      	ldr	r3, [sp, #324]	; 0x144
 8009472:	4320      	orrs	r0, r4
 8009474:	009b      	lsls	r3, r3, #2
 8009476:	4614      	mov	r4, r2
 8009478:	ea83 74e3 	eor.w	r4, r3, r3, asr #31
 800947c:	eba4 74e3 	sub.w	r4, r4, r3, asr #31
 8009480:	e9dd 6711 	ldrd	r6, r7, [sp, #68]	; 0x44
 8009484:	4320      	orrs	r0, r4
 8009486:	f8c8 327c 	str.w	r3, [r8, #636]	; 0x27c
 800948a:	fb87 3606 	smull	r3, r6, r7, r6
 800948e:	9b54      	ldr	r3, [sp, #336]	; 0x150
 8009490:	4614      	mov	r4, r2
 8009492:	eb06 0383 	add.w	r3, r6, r3, lsl #2
 8009496:	ea83 74e3 	eor.w	r4, r3, r3, asr #31
 800949a:	eba4 74e3 	sub.w	r4, r4, r3, asr #31
 800949e:	4320      	orrs	r0, r4
 80094a0:	9e03      	ldr	r6, [sp, #12]
 80094a2:	9c10      	ldr	r4, [sp, #64]	; 0x40
 80094a4:	f8c8 33fc 	str.w	r3, [r8, #1020]	; 0x3fc
 80094a8:	fb86 3404 	smull	r3, r4, r6, r4
 80094ac:	9b57      	ldr	r3, [sp, #348]	; 0x15c
 80094ae:	eb04 0383 	add.w	r3, r4, r3, lsl #2
 80094b2:	4614      	mov	r4, r2
 80094b4:	ea83 74e3 	eor.w	r4, r3, r3, asr #31
 80094b8:	eba4 74e3 	sub.w	r4, r4, r3, asr #31
 80094bc:	f8c8 357c 	str.w	r3, [r8, #1404]	; 0x57c
 80094c0:	9913      	ldr	r1, [sp, #76]	; 0x4c
 80094c2:	9b0b      	ldr	r3, [sp, #44]	; 0x2c
 80094c4:	4304      	orrs	r4, r0
 80094c6:	fb81 0303 	smull	r0, r3, r1, r3
 80094ca:	9d09      	ldr	r5, [sp, #36]	; 0x24
 80094cc:	fb87 0505 	smull	r0, r5, r7, r5
 80094d0:	985a      	ldr	r0, [sp, #360]	; 0x168
 80094d2:	442b      	add	r3, r5
 80094d4:	eb03 0380 	add.w	r3, r3, r0, lsl #2
 80094d8:	4610      	mov	r0, r2
 80094da:	ea83 70e3 	eor.w	r0, r3, r3, asr #31
 80094de:	eba0 70e3 	sub.w	r0, r0, r3, asr #31
 80094e2:	4304      	orrs	r4, r0
 80094e4:	9d0f      	ldr	r5, [sp, #60]	; 0x3c
 80094e6:	9814      	ldr	r0, [sp, #80]	; 0x50
 80094e8:	f8c8 36fc 	str.w	r3, [r8, #1788]	; 0x6fc
 80094ec:	fb80 3505 	smull	r3, r5, r0, r5
 80094f0:	fb86 3a0a 	smull	r3, sl, r6, sl
 80094f4:	9b5d      	ldr	r3, [sp, #372]	; 0x174
 80094f6:	44aa      	add	sl, r5
 80094f8:	eb0a 0583 	add.w	r5, sl, r3, lsl #2
 80094fc:	ea85 72e5 	eor.w	r2, r5, r5, asr #31
 8009500:	eba2 72e5 	sub.w	r2, r2, r5, asr #31
 8009504:	9808      	ldr	r0, [sp, #32]
 8009506:	9b06      	ldr	r3, [sp, #24]
 8009508:	f8c8 587c 	str.w	r5, [r8, #2172]	; 0x87c
 800950c:	4314      	orrs	r4, r2
 800950e:	e9dd 621d 	ldrd	r6, r2, [sp, #116]	; 0x74
 8009512:	4403      	add	r3, r0
 8009514:	109b      	asrs	r3, r3, #2
 8009516:	9d1f      	ldr	r5, [sp, #124]	; 0x7c
 8009518:	f84e 3c24 	str.w	r3, [lr, #-36]
 800951c:	18b3      	adds	r3, r6, r2
 800951e:	1ab6      	subs	r6, r6, r2
 8009520:	9a1c      	ldr	r2, [sp, #112]	; 0x70
 8009522:	9905      	ldr	r1, [sp, #20]
 8009524:	9821      	ldr	r0, [sp, #132]	; 0x84
 8009526:	109b      	asrs	r3, r3, #2
 8009528:	f84e 3c18 	str.w	r3, [lr, #-24]
 800952c:	1953      	adds	r3, r2, r5
 800952e:	109b      	asrs	r3, r3, #2
 8009530:	180f      	adds	r7, r1, r0
 8009532:	f84e 3c14 	str.w	r3, [lr, #-20]
 8009536:	9b20      	ldr	r3, [sp, #128]	; 0x80
 8009538:	9907      	ldr	r1, [sp, #28]
 800953a:	9822      	ldr	r0, [sp, #136]	; 0x88
 800953c:	10bf      	asrs	r7, r7, #2
 800953e:	f84e 7c20 	str.w	r7, [lr, #-32]
 8009542:	1b57      	subs	r7, r2, r5
 8009544:	eb0c 0503 	add.w	r5, ip, r3
 8009548:	10ad      	asrs	r5, r5, #2
 800954a:	f84e 5c10 	str.w	r5, [lr, #-16]
 800954e:	1808      	adds	r0, r1, r0
 8009550:	9d00      	ldr	r5, [sp, #0]
 8009552:	ebac 0303 	sub.w	r3, ip, r3
 8009556:	1080      	asrs	r0, r0, #2
 8009558:	10bf      	asrs	r7, r7, #2
 800955a:	109b      	asrs	r3, r3, #2
 800955c:	10b6      	asrs	r6, r6, #2
 800955e:	f84e 0c1c 	str.w	r0, [lr, #-28]
 8009562:	f84e 7c08 	str.w	r7, [lr, #-8]
 8009566:	f84e 3c0c 	str.w	r3, [lr, #-12]
 800956a:	f84e 6c04 	str.w	r6, [lr, #-4]
 800956e:	ee17 3a10 	vmov	r3, s14
 8009572:	462a      	mov	r2, r5
 8009574:	ee16 1a90 	vmov	r1, s13
 8009578:	3501      	adds	r5, #1
 800957a:	ee17 0a90 	vmov	r0, s15
 800957e:	9500      	str	r5, [sp, #0]
 8009580:	f7fe fcf2 	bl	8007f68 <FreqInvertRescale>
 8009584:	9b01      	ldr	r3, [sp, #4]
 8009586:	9f0a      	ldr	r7, [sp, #40]	; 0x28
 8009588:	4320      	orrs	r0, r4
 800958a:	4303      	orrs	r3, r0
 800958c:	9301      	str	r3, [sp, #4]
 800958e:	9b29      	ldr	r3, [sp, #164]	; 0xa4
 8009590:	429d      	cmp	r5, r3
 8009592:	f107 0a48 	add.w	sl, r7, #72	; 0x48
 8009596:	f10b 0e24 	add.w	lr, fp, #36	; 0x24
 800959a:	f6ff acc9 	blt.w	8008f30 <xmp3_IMDCT+0xabc>
 800959e:	9b02      	ldr	r3, [sp, #8]
 80095a0:	9a00      	ldr	r2, [sp, #0]
 80095a2:	4293      	cmp	r3, r2
 80095a4:	46c8      	mov	r8, r9
 80095a6:	f340 836d 	ble.w	8009c84 <xmp3_IMDCT+0x1810>
 80095aa:	9b0a      	ldr	r3, [sp, #40]	; 0x28
 80095ac:	9a00      	ldr	r2, [sp, #0]
 80095ae:	f103 0948 	add.w	r9, r3, #72	; 0x48
 80095b2:	9b0c      	ldr	r3, [sp, #48]	; 0x30
 80095b4:	eb03 03c3 	add.w	r3, r3, r3, lsl #3
 80095b8:	f10b 0a24 	add.w	sl, fp, #36	; 0x24
 80095bc:	eb08 1b03 	add.w	fp, r8, r3, lsl #4
 80095c0:	9b32      	ldr	r3, [sp, #200]	; 0xc8
 80095c2:	eb03 0382 	add.w	r3, r3, r2, lsl #2
 80095c6:	4657      	mov	r7, sl
 80095c8:	9305      	str	r3, [sp, #20]
 80095ca:	f04f 0800 	mov.w	r8, #0
 80095ce:	46da      	mov	sl, fp
 80095d0:	e1c2      	b.n	8009958 <xmp3_IMDCT+0x14e4>
 80095d2:	f857 4c24 	ldr.w	r4, [r7, #-36]
 80095d6:	f8da 208c 	ldr.w	r2, [sl, #140]	; 0x8c
 80095da:	f8da 1048 	ldr.w	r1, [sl, #72]	; 0x48
 80095de:	4623      	mov	r3, r4
 80095e0:	fb81 5303 	smull	r5, r3, r1, r3
 80095e4:	934c      	str	r3, [sp, #304]	; 0x130
 80095e6:	fb82 1404 	smull	r1, r4, r2, r4
 80095ea:	945d      	str	r4, [sp, #372]	; 0x174
 80095ec:	f857 4c20 	ldr.w	r4, [r7, #-32]
 80095f0:	f8da 2088 	ldr.w	r2, [sl, #136]	; 0x88
 80095f4:	f8da 104c 	ldr.w	r1, [sl, #76]	; 0x4c
 80095f8:	4625      	mov	r5, r4
 80095fa:	fb81 6505 	smull	r6, r5, r1, r5
 80095fe:	954d      	str	r5, [sp, #308]	; 0x134
 8009600:	fb82 1404 	smull	r1, r4, r2, r4
 8009604:	945c      	str	r4, [sp, #368]	; 0x170
 8009606:	f857 4c1c 	ldr.w	r4, [r7, #-28]
 800960a:	f8da 2084 	ldr.w	r2, [sl, #132]	; 0x84
 800960e:	f8da 1050 	ldr.w	r1, [sl, #80]	; 0x50
 8009612:	4625      	mov	r5, r4
 8009614:	fb81 6505 	smull	r6, r5, r1, r5
 8009618:	954e      	str	r5, [sp, #312]	; 0x138
 800961a:	fb82 1404 	smull	r1, r4, r2, r4
 800961e:	945b      	str	r4, [sp, #364]	; 0x16c
 8009620:	f857 4c18 	ldr.w	r4, [r7, #-24]
 8009624:	f8da 2080 	ldr.w	r2, [sl, #128]	; 0x80
 8009628:	f8da 1054 	ldr.w	r1, [sl, #84]	; 0x54
 800962c:	4625      	mov	r5, r4
 800962e:	fb81 6505 	smull	r6, r5, r1, r5
 8009632:	954f      	str	r5, [sp, #316]	; 0x13c
 8009634:	fb82 1404 	smull	r1, r4, r2, r4
 8009638:	945a      	str	r4, [sp, #360]	; 0x168
 800963a:	f857 4c14 	ldr.w	r4, [r7, #-20]
 800963e:	f8da 207c 	ldr.w	r2, [sl, #124]	; 0x7c
 8009642:	f8da 1058 	ldr.w	r1, [sl, #88]	; 0x58
 8009646:	4625      	mov	r5, r4
 8009648:	fb81 6505 	smull	r6, r5, r1, r5
 800964c:	9550      	str	r5, [sp, #320]	; 0x140
 800964e:	fb82 1404 	smull	r1, r4, r2, r4
 8009652:	9459      	str	r4, [sp, #356]	; 0x164
 8009654:	f857 4c10 	ldr.w	r4, [r7, #-16]
 8009658:	f8da 2078 	ldr.w	r2, [sl, #120]	; 0x78
 800965c:	f8da 105c 	ldr.w	r1, [sl, #92]	; 0x5c
 8009660:	4625      	mov	r5, r4
 8009662:	fb81 6505 	smull	r6, r5, r1, r5
 8009666:	9551      	str	r5, [sp, #324]	; 0x144
 8009668:	fb82 1404 	smull	r1, r4, r2, r4
 800966c:	9458      	str	r4, [sp, #352]	; 0x160
 800966e:	f857 4c0c 	ldr.w	r4, [r7, #-12]
 8009672:	f8da 2074 	ldr.w	r2, [sl, #116]	; 0x74
 8009676:	f8da 1060 	ldr.w	r1, [sl, #96]	; 0x60
 800967a:	4625      	mov	r5, r4
 800967c:	fb81 6505 	smull	r6, r5, r1, r5
 8009680:	9552      	str	r5, [sp, #328]	; 0x148
 8009682:	fb82 1404 	smull	r1, r4, r2, r4
 8009686:	9457      	str	r4, [sp, #348]	; 0x15c
 8009688:	f857 4c08 	ldr.w	r4, [r7, #-8]
 800968c:	f8da 2070 	ldr.w	r2, [sl, #112]	; 0x70
 8009690:	f8da 1064 	ldr.w	r1, [sl, #100]	; 0x64
 8009694:	4625      	mov	r5, r4
 8009696:	fb81 6505 	smull	r6, r5, r1, r5
 800969a:	9553      	str	r5, [sp, #332]	; 0x14c
 800969c:	fb82 1404 	smull	r1, r4, r2, r4
 80096a0:	9456      	str	r4, [sp, #344]	; 0x158
 80096a2:	f857 4c04 	ldr.w	r4, [r7, #-4]
 80096a6:	e9da 121a 	ldrd	r1, r2, [sl, #104]	; 0x68
 80096aa:	4625      	mov	r5, r4
 80096ac:	fb81 6505 	smull	r6, r5, r1, r5
 80096b0:	9554      	str	r5, [sp, #336]	; 0x150
 80096b2:	fb82 1404 	smull	r1, r4, r2, r4
 80096b6:	9455      	str	r4, [sp, #340]	; 0x154
 80096b8:	009b      	lsls	r3, r3, #2
 80096ba:	4642      	mov	r2, r8
 80096bc:	ea83 72e3 	eor.w	r2, r3, r3, asr #31
 80096c0:	eba2 72e3 	sub.w	r2, r2, r3, asr #31
 80096c4:	9d05      	ldr	r5, [sp, #20]
 80096c6:	f845 3b04 	str.w	r3, [r5], #4
 80096ca:	9b4f      	ldr	r3, [sp, #316]	; 0x13c
 80096cc:	9505      	str	r5, [sp, #20]
 80096ce:	009b      	lsls	r3, r3, #2
 80096d0:	4641      	mov	r1, r8
 80096d2:	ea83 71e3 	eor.w	r1, r3, r3, asr #31
 80096d6:	eba1 71e3 	sub.w	r1, r1, r3, asr #31
 80096da:	430a      	orrs	r2, r1
 80096dc:	9815      	ldr	r0, [sp, #84]	; 0x54
 80096de:	9906      	ldr	r1, [sp, #24]
 80096e0:	f8c5 317c 	str.w	r3, [r5, #380]	; 0x17c
 80096e4:	fb80 3101 	smull	r3, r1, r0, r1
 80096e8:	9b52      	ldr	r3, [sp, #328]	; 0x148
 80096ea:	eb01 0383 	add.w	r3, r1, r3, lsl #2
 80096ee:	4641      	mov	r1, r8
 80096f0:	ea83 71e3 	eor.w	r1, r3, r3, asr #31
 80096f4:	eba1 71e3 	sub.w	r1, r1, r3, asr #31
 80096f8:	430a      	orrs	r2, r1
 80096fa:	9e1b      	ldr	r6, [sp, #108]	; 0x6c
 80096fc:	9908      	ldr	r1, [sp, #32]
 80096fe:	f8c5 32fc 	str.w	r3, [r5, #764]	; 0x2fc
 8009702:	fb86 3101 	smull	r3, r1, r6, r1
 8009706:	9b55      	ldr	r3, [sp, #340]	; 0x154
 8009708:	eb01 0383 	add.w	r3, r1, r3, lsl #2
 800970c:	4641      	mov	r1, r8
 800970e:	ea83 71e3 	eor.w	r1, r3, r3, asr #31
 8009712:	eba1 71e3 	sub.w	r1, r1, r3, asr #31
 8009716:	f8c5 347c 	str.w	r3, [r5, #1148]	; 0x47c
 800971a:	9c1a      	ldr	r4, [sp, #104]	; 0x68
 800971c:	9b0b      	ldr	r3, [sp, #44]	; 0x2c
 800971e:	430a      	orrs	r2, r1
 8009720:	fb84 1303 	smull	r1, r3, r4, r3
 8009724:	9909      	ldr	r1, [sp, #36]	; 0x24
 8009726:	fb80 4101 	smull	r4, r1, r0, r1
 800972a:	440b      	add	r3, r1
 800972c:	9958      	ldr	r1, [sp, #352]	; 0x160
 800972e:	eb03 0181 	add.w	r1, r3, r1, lsl #2
 8009732:	4643      	mov	r3, r8
 8009734:	ea81 73e1 	eor.w	r3, r1, r1, asr #31
 8009738:	eba3 73e1 	sub.w	r3, r3, r1, asr #31
 800973c:	431a      	orrs	r2, r3
 800973e:	9819      	ldr	r0, [sp, #100]	; 0x64
 8009740:	9b07      	ldr	r3, [sp, #28]
 8009742:	f8c5 15fc 	str.w	r1, [r5, #1532]	; 0x5fc
 8009746:	fb80 1303 	smull	r1, r3, r0, r3
 800974a:	990a      	ldr	r1, [sp, #40]	; 0x28
 800974c:	fb86 4101 	smull	r4, r1, r6, r1
 8009750:	4419      	add	r1, r3
 8009752:	9b5b      	ldr	r3, [sp, #364]	; 0x16c
 8009754:	eb01 0383 	add.w	r3, r1, r3, lsl #2
 8009758:	4641      	mov	r1, r8
 800975a:	ea83 71e3 	eor.w	r1, r3, r3, asr #31
 800975e:	eba1 71e3 	sub.w	r1, r1, r3, asr #31
 8009762:	f8c5 377c 	str.w	r3, [r5, #1916]	; 0x77c
 8009766:	9b4d      	ldr	r3, [sp, #308]	; 0x134
 8009768:	4311      	orrs	r1, r2
 800976a:	009b      	lsls	r3, r3, #2
 800976c:	4642      	mov	r2, r8
 800976e:	ea83 72e3 	eor.w	r2, r3, r3, asr #31
 8009772:	eba2 72e3 	sub.w	r2, r2, r3, asr #31
 8009776:	67eb      	str	r3, [r5, #124]	; 0x7c
 8009778:	9b50      	ldr	r3, [sp, #320]	; 0x140
 800977a:	4311      	orrs	r1, r2
 800977c:	009b      	lsls	r3, r3, #2
 800977e:	4642      	mov	r2, r8
 8009780:	ea83 72e3 	eor.w	r2, r3, r3, asr #31
 8009784:	eba2 72e3 	sub.w	r2, r2, r3, asr #31
 8009788:	f8dd c074 	ldr.w	ip, [sp, #116]	; 0x74
 800978c:	9818      	ldr	r0, [sp, #96]	; 0x60
 800978e:	f8c5 31fc 	str.w	r3, [r5, #508]	; 0x1fc
 8009792:	4311      	orrs	r1, r2
 8009794:	4662      	mov	r2, ip
 8009796:	fb80 3202 	smull	r3, r2, r0, r2
 800979a:	9b53      	ldr	r3, [sp, #332]	; 0x14c
 800979c:	eb02 0383 	add.w	r3, r2, r3, lsl #2
 80097a0:	4642      	mov	r2, r8
 80097a2:	ea83 72e3 	eor.w	r2, r3, r3, asr #31
 80097a6:	eba2 72e3 	sub.w	r2, r2, r3, asr #31
 80097aa:	4311      	orrs	r1, r2
 80097ac:	9c04      	ldr	r4, [sp, #16]
 80097ae:	f8c5 337c 	str.w	r3, [r5, #892]	; 0x37c
 80097b2:	4662      	mov	r2, ip
 80097b4:	fb84 3202 	smull	r3, r2, r4, r2
 80097b8:	9b56      	ldr	r3, [sp, #344]	; 0x158
 80097ba:	eb02 0283 	add.w	r2, r2, r3, lsl #2
 80097be:	4643      	mov	r3, r8
 80097c0:	ea82 73e2 	eor.w	r3, r2, r2, asr #31
 80097c4:	eba3 73e2 	sub.w	r3, r3, r2, asr #31
 80097c8:	f8dd e070 	ldr.w	lr, [sp, #112]	; 0x70
 80097cc:	9e16      	ldr	r6, [sp, #88]	; 0x58
 80097ce:	f8c5 24fc 	str.w	r2, [r5, #1276]	; 0x4fc
 80097d2:	4319      	orrs	r1, r3
 80097d4:	4673      	mov	r3, lr
 80097d6:	fb86 2303 	smull	r2, r3, r6, r3
 80097da:	f8dd c080 	ldr.w	ip, [sp, #128]	; 0x80
 80097de:	4662      	mov	r2, ip
 80097e0:	fb80 4202 	smull	r4, r2, r0, r2
 80097e4:	4413      	add	r3, r2
 80097e6:	9a59      	ldr	r2, [sp, #356]	; 0x164
 80097e8:	4644      	mov	r4, r8
 80097ea:	eb03 0282 	add.w	r2, r3, r2, lsl #2
 80097ee:	ea82 74e2 	eor.w	r4, r2, r2, asr #31
 80097f2:	eba4 74e2 	sub.w	r4, r4, r2, asr #31
 80097f6:	f8c5 267c 	str.w	r2, [r5, #1660]	; 0x67c
 80097fa:	9817      	ldr	r0, [sp, #92]	; 0x5c
 80097fc:	430c      	orrs	r4, r1
 80097fe:	462e      	mov	r6, r5
 8009800:	4672      	mov	r2, lr
 8009802:	fb80 3202 	smull	r3, r2, r0, r2
 8009806:	9804      	ldr	r0, [sp, #16]
 8009808:	4665      	mov	r5, ip
 800980a:	fb80 3505 	smull	r3, r5, r0, r5
 800980e:	9b5c      	ldr	r3, [sp, #368]	; 0x170
 8009810:	4415      	add	r5, r2
 8009812:	eb05 0383 	add.w	r3, r5, r3, lsl #2
 8009816:	4642      	mov	r2, r8
 8009818:	ea83 72e3 	eor.w	r2, r3, r3, asr #31
 800981c:	eba2 72e3 	sub.w	r2, r2, r3, asr #31
 8009820:	f8c6 37fc 	str.w	r3, [r6, #2044]	; 0x7fc
 8009824:	9b4e      	ldr	r3, [sp, #312]	; 0x138
 8009826:	ea44 0102 	orr.w	r1, r4, r2
 800982a:	4635      	mov	r5, r6
 800982c:	009b      	lsls	r3, r3, #2
 800982e:	4642      	mov	r2, r8
 8009830:	ea83 72e3 	eor.w	r2, r3, r3, asr #31
 8009834:	eba2 72e3 	sub.w	r2, r2, r3, asr #31
 8009838:	f8c6 30fc 	str.w	r3, [r6, #252]	; 0xfc
 800983c:	9b51      	ldr	r3, [sp, #324]	; 0x144
 800983e:	430a      	orrs	r2, r1
 8009840:	009b      	lsls	r3, r3, #2
 8009842:	4641      	mov	r1, r8
 8009844:	ea83 71e3 	eor.w	r1, r3, r3, asr #31
 8009848:	eba1 71e3 	sub.w	r1, r1, r3, asr #31
 800984c:	f8dd e020 	ldr.w	lr, [sp, #32]
 8009850:	9812      	ldr	r0, [sp, #72]	; 0x48
 8009852:	f8c6 327c 	str.w	r3, [r6, #636]	; 0x27c
 8009856:	430a      	orrs	r2, r1
 8009858:	fb80 3e0e 	smull	r3, lr, r0, lr
 800985c:	9b54      	ldr	r3, [sp, #336]	; 0x150
 800985e:	4641      	mov	r1, r8
 8009860:	eb0e 0383 	add.w	r3, lr, r3, lsl #2
 8009864:	ea83 71e3 	eor.w	r1, r3, r3, asr #31
 8009868:	eba1 71e3 	sub.w	r1, r1, r3, asr #31
 800986c:	f8c6 33fc 	str.w	r3, [r6, #1020]	; 0x3fc
 8009870:	9c06      	ldr	r4, [sp, #24]
 8009872:	9e03      	ldr	r6, [sp, #12]
 8009874:	430a      	orrs	r2, r1
 8009876:	fb86 3404 	smull	r3, r4, r6, r4
 800987a:	9b57      	ldr	r3, [sp, #348]	; 0x15c
 800987c:	4646      	mov	r6, r8
 800987e:	eb04 0483 	add.w	r4, r4, r3, lsl #2
 8009882:	ea84 76e4 	eor.w	r6, r4, r4, asr #31
 8009886:	eba6 76e4 	sub.w	r6, r6, r4, asr #31
 800988a:	f8c5 457c 	str.w	r4, [r5, #1404]	; 0x57c
 800988e:	9b07      	ldr	r3, [sp, #28]
 8009890:	9c13      	ldr	r4, [sp, #76]	; 0x4c
 8009892:	4332      	orrs	r2, r6
 8009894:	fb84 1303 	smull	r1, r3, r4, r3
 8009898:	f8dd e028 	ldr.w	lr, [sp, #40]	; 0x28
 800989c:	fb80 1e0e 	smull	r1, lr, r0, lr
 80098a0:	449e      	add	lr, r3
 80098a2:	9b5a      	ldr	r3, [sp, #360]	; 0x168
 80098a4:	4646      	mov	r6, r8
 80098a6:	eb0e 0383 	add.w	r3, lr, r3, lsl #2
 80098aa:	ea83 76e3 	eor.w	r6, r3, r3, asr #31
 80098ae:	eba6 76e3 	sub.w	r6, r6, r3, asr #31
 80098b2:	f8c5 36fc 	str.w	r3, [r5, #1788]	; 0x6fc
 80098b6:	9c14      	ldr	r4, [sp, #80]	; 0x50
 80098b8:	9b0b      	ldr	r3, [sp, #44]	; 0x2c
 80098ba:	4332      	orrs	r2, r6
 80098bc:	fb84 1303 	smull	r1, r3, r4, r3
 80098c0:	9e09      	ldr	r6, [sp, #36]	; 0x24
 80098c2:	9803      	ldr	r0, [sp, #12]
 80098c4:	fb80 1606 	smull	r1, r6, r0, r6
 80098c8:	995d      	ldr	r1, [sp, #372]	; 0x174
 80098ca:	441e      	add	r6, r3
 80098cc:	eb06 0181 	add.w	r1, r6, r1, lsl #2
 80098d0:	4646      	mov	r6, r8
 80098d2:	ea81 76e1 	eor.w	r6, r1, r1, asr #31
 80098d6:	eba6 76e1 	sub.w	r6, r6, r1, asr #31
 80098da:	9b21      	ldr	r3, [sp, #132]	; 0x84
 80098dc:	f8c5 187c 	str.w	r1, [r5, #2172]	; 0x87c
 80098e0:	109b      	asrs	r3, r3, #2
 80098e2:	f847 3c24 	str.w	r3, [r7, #-36]
 80098e6:	9b1e      	ldr	r3, [sp, #120]	; 0x78
 80098e8:	109b      	asrs	r3, r3, #2
 80098ea:	f847 3c20 	str.w	r3, [r7, #-32]
 80098ee:	9b1f      	ldr	r3, [sp, #124]	; 0x7c
 80098f0:	109b      	asrs	r3, r3, #2
 80098f2:	f847 3c1c 	str.w	r3, [r7, #-28]
 80098f6:	9b10      	ldr	r3, [sp, #64]	; 0x40
 80098f8:	109b      	asrs	r3, r3, #2
 80098fa:	f847 3c18 	str.w	r3, [r7, #-24]
 80098fe:	9b22      	ldr	r3, [sp, #136]	; 0x88
 8009900:	109b      	asrs	r3, r3, #2
 8009902:	f847 3c14 	str.w	r3, [r7, #-20]
 8009906:	9b11      	ldr	r3, [sp, #68]	; 0x44
 8009908:	109b      	asrs	r3, r3, #2
 800990a:	f847 3c10 	str.w	r3, [r7, #-16]
 800990e:	9b0e      	ldr	r3, [sp, #56]	; 0x38
 8009910:	4316      	orrs	r6, r2
 8009912:	ea4f 04ab 	mov.w	r4, fp, asr #2
 8009916:	109a      	asrs	r2, r3, #2
 8009918:	9b0f      	ldr	r3, [sp, #60]	; 0x3c
 800991a:	f847 4c0c 	str.w	r4, [r7, #-12]
 800991e:	9c00      	ldr	r4, [sp, #0]
 8009920:	f847 2c08 	str.w	r2, [r7, #-8]
 8009924:	109d      	asrs	r5, r3, #2
 8009926:	f847 5c04 	str.w	r5, [r7, #-4]
 800992a:	ee17 3a10 	vmov	r3, s14
 800992e:	4622      	mov	r2, r4
 8009930:	ee17 1a90 	vmov	r1, s15
 8009934:	3401      	adds	r4, #1
 8009936:	ee16 0a90 	vmov	r0, s13
 800993a:	9400      	str	r4, [sp, #0]
 800993c:	f7fe fb14 	bl	8007f68 <FreqInvertRescale>
 8009940:	9b01      	ldr	r3, [sp, #4]
 8009942:	4330      	orrs	r0, r6
 8009944:	4303      	orrs	r3, r0
 8009946:	9301      	str	r3, [sp, #4]
 8009948:	9b02      	ldr	r3, [sp, #8]
 800994a:	42a3      	cmp	r3, r4
 800994c:	f109 0948 	add.w	r9, r9, #72	; 0x48
 8009950:	f107 0724 	add.w	r7, r7, #36	; 0x24
 8009954:	f340 8196 	ble.w	8009c84 <xmp3_IMDCT+0x1810>
 8009958:	f1a7 0324 	sub.w	r3, r7, #36	; 0x24
 800995c:	ee07 3a90 	vmov	s15, r3
 8009960:	9b05      	ldr	r3, [sp, #20]
 8009962:	ee06 3a90 	vmov	s13, r3
 8009966:	9b0d      	ldr	r3, [sp, #52]	; 0x34
 8009968:	2b06      	cmp	r3, #6
 800996a:	f300 8088 	bgt.w	8009a7e <xmp3_IMDCT+0x160a>
 800996e:	9a27      	ldr	r2, [sp, #156]	; 0x9c
 8009970:	f859 3c48 	ldr.w	r3, [r9, #-72]
 8009974:	4113      	asrs	r3, r2
 8009976:	f849 3c48 	str.w	r3, [r9, #-72]
 800997a:	f859 3c44 	ldr.w	r3, [r9, #-68]
 800997e:	4113      	asrs	r3, r2
 8009980:	f849 3c44 	str.w	r3, [r9, #-68]
 8009984:	f857 3c24 	ldr.w	r3, [r7, #-36]
 8009988:	4113      	asrs	r3, r2
 800998a:	f847 3c24 	str.w	r3, [r7, #-36]
 800998e:	f859 3c40 	ldr.w	r3, [r9, #-64]
 8009992:	4113      	asrs	r3, r2
 8009994:	f849 3c40 	str.w	r3, [r9, #-64]
 8009998:	f859 3c3c 	ldr.w	r3, [r9, #-60]
 800999c:	4113      	asrs	r3, r2
 800999e:	f849 3c3c 	str.w	r3, [r9, #-60]
 80099a2:	f857 3c20 	ldr.w	r3, [r7, #-32]
 80099a6:	4113      	asrs	r3, r2
 80099a8:	f847 3c20 	str.w	r3, [r7, #-32]
 80099ac:	f859 3c38 	ldr.w	r3, [r9, #-56]
 80099b0:	4113      	asrs	r3, r2
 80099b2:	f849 3c38 	str.w	r3, [r9, #-56]
 80099b6:	f859 3c34 	ldr.w	r3, [r9, #-52]
 80099ba:	4113      	asrs	r3, r2
 80099bc:	f849 3c34 	str.w	r3, [r9, #-52]
 80099c0:	f857 3c1c 	ldr.w	r3, [r7, #-28]
 80099c4:	4113      	asrs	r3, r2
 80099c6:	f847 3c1c 	str.w	r3, [r7, #-28]
 80099ca:	f859 3c30 	ldr.w	r3, [r9, #-48]
 80099ce:	4113      	asrs	r3, r2
 80099d0:	f849 3c30 	str.w	r3, [r9, #-48]
 80099d4:	f859 3c2c 	ldr.w	r3, [r9, #-44]
 80099d8:	4113      	asrs	r3, r2
 80099da:	f849 3c2c 	str.w	r3, [r9, #-44]
 80099de:	f857 3c18 	ldr.w	r3, [r7, #-24]
 80099e2:	4113      	asrs	r3, r2
 80099e4:	f847 3c18 	str.w	r3, [r7, #-24]
 80099e8:	f859 3c28 	ldr.w	r3, [r9, #-40]
 80099ec:	4113      	asrs	r3, r2
 80099ee:	f849 3c28 	str.w	r3, [r9, #-40]
 80099f2:	f859 3c24 	ldr.w	r3, [r9, #-36]
 80099f6:	4113      	asrs	r3, r2
 80099f8:	f849 3c24 	str.w	r3, [r9, #-36]
 80099fc:	f857 3c14 	ldr.w	r3, [r7, #-20]
 8009a00:	4113      	asrs	r3, r2
 8009a02:	f847 3c14 	str.w	r3, [r7, #-20]
 8009a06:	f859 3c20 	ldr.w	r3, [r9, #-32]
 8009a0a:	4113      	asrs	r3, r2
 8009a0c:	f849 3c20 	str.w	r3, [r9, #-32]
 8009a10:	f859 3c1c 	ldr.w	r3, [r9, #-28]
 8009a14:	4113      	asrs	r3, r2
 8009a16:	f849 3c1c 	str.w	r3, [r9, #-28]
 8009a1a:	f857 3c10 	ldr.w	r3, [r7, #-16]
 8009a1e:	4113      	asrs	r3, r2
 8009a20:	f847 3c10 	str.w	r3, [r7, #-16]
 8009a24:	f859 3c18 	ldr.w	r3, [r9, #-24]
 8009a28:	4113      	asrs	r3, r2
 8009a2a:	f849 3c18 	str.w	r3, [r9, #-24]
 8009a2e:	f859 3c14 	ldr.w	r3, [r9, #-20]
 8009a32:	4113      	asrs	r3, r2
 8009a34:	f849 3c14 	str.w	r3, [r9, #-20]
 8009a38:	f857 3c0c 	ldr.w	r3, [r7, #-12]
 8009a3c:	4113      	asrs	r3, r2
 8009a3e:	f847 3c0c 	str.w	r3, [r7, #-12]
 8009a42:	f859 3c10 	ldr.w	r3, [r9, #-16]
 8009a46:	4113      	asrs	r3, r2
 8009a48:	f849 3c10 	str.w	r3, [r9, #-16]
 8009a4c:	f859 3c0c 	ldr.w	r3, [r9, #-12]
 8009a50:	4113      	asrs	r3, r2
 8009a52:	f849 3c0c 	str.w	r3, [r9, #-12]
 8009a56:	f857 3c08 	ldr.w	r3, [r7, #-8]
 8009a5a:	4113      	asrs	r3, r2
 8009a5c:	f847 3c08 	str.w	r3, [r7, #-8]
 8009a60:	f859 3c08 	ldr.w	r3, [r9, #-8]
 8009a64:	4113      	asrs	r3, r2
 8009a66:	f849 3c08 	str.w	r3, [r9, #-8]
 8009a6a:	f859 3c04 	ldr.w	r3, [r9, #-4]
 8009a6e:	4113      	asrs	r3, r2
 8009a70:	f849 3c04 	str.w	r3, [r9, #-4]
 8009a74:	f857 3c04 	ldr.w	r3, [r7, #-4]
 8009a78:	4113      	asrs	r3, r2
 8009a7a:	f847 3c04 	str.w	r3, [r7, #-4]
 8009a7e:	f859 2c0c 	ldr.w	r2, [r9, #-12]
 8009a82:	f859 6c18 	ldr.w	r6, [r9, #-24]
 8009a86:	f859 1c24 	ldr.w	r1, [r9, #-36]
 8009a8a:	f859 5c30 	ldr.w	r5, [r9, #-48]
 8009a8e:	f859 3c3c 	ldr.w	r3, [r9, #-60]
 8009a92:	4878      	ldr	r0, [pc, #480]	; (8009c74 <xmp3_IMDCT+0x1800>)
 8009a94:	1ab4      	subs	r4, r6, r2
 8009a96:	1b09      	subs	r1, r1, r4
 8009a98:	1a6d      	subs	r5, r5, r1
 8009a9a:	f859 6c48 	ldr.w	r6, [r9, #-72]
 8009a9e:	1b5b      	subs	r3, r3, r5
 8009aa0:	1a89      	subs	r1, r1, r2
 8009aa2:	1af6      	subs	r6, r6, r3
 8009aa4:	1a5b      	subs	r3, r3, r1
 8009aa6:	1076      	asrs	r6, r6, #1
 8009aa8:	105b      	asrs	r3, r3, #1
 8009aaa:	fb80 c505 	smull	ip, r5, r0, r5
 8009aae:	eb06 0c64 	add.w	ip, r6, r4, asr #1
 8009ab2:	eb0c 0e45 	add.w	lr, ip, r5, lsl #1
 8009ab6:	ebac 0545 	sub.w	r5, ip, r5, lsl #1
 8009aba:	1b36      	subs	r6, r6, r4
 8009abc:	9509      	str	r5, [sp, #36]	; 0x24
 8009abe:	fb80 4101 	smull	r4, r1, r0, r1
 8009ac2:	eb03 0462 	add.w	r4, r3, r2, asr #1
 8009ac6:	eb04 0541 	add.w	r5, r4, r1, lsl #1
 8009aca:	486b      	ldr	r0, [pc, #428]	; (8009c78 <xmp3_IMDCT+0x1804>)
 8009acc:	0049      	lsls	r1, r1, #1
 8009ace:	46ac      	mov	ip, r5
 8009ad0:	fb80 5c0c 	smull	r5, ip, r0, ip
 8009ad4:	1a9a      	subs	r2, r3, r2
 8009ad6:	ea4f 038c 	mov.w	r3, ip, lsl #2
 8009ada:	4d68      	ldr	r5, [pc, #416]	; (8009c7c <xmp3_IMDCT+0x1808>)
 8009adc:	9306      	str	r3, [sp, #24]
 8009ade:	fb85 3202 	smull	r3, r2, r5, r2
 8009ae2:	1a64      	subs	r4, r4, r1
 8009ae4:	0092      	lsls	r2, r2, #2
 8009ae6:	4966      	ldr	r1, [pc, #408]	; (8009c80 <xmp3_IMDCT+0x180c>)
 8009ae8:	fb81 3404 	smull	r3, r4, r1, r4
 8009aec:	f859 3c14 	ldr.w	r3, [r9, #-20]
 8009af0:	f859 1c08 	ldr.w	r1, [r9, #-8]
 8009af4:	f859 5c08 	ldr.w	r5, [r9, #-8]
 8009af8:	eba3 0c01 	sub.w	ip, r3, r1
 8009afc:	f859 3c20 	ldr.w	r3, [r9, #-32]
 8009b00:	f859 1c2c 	ldr.w	r1, [r9, #-44]
 8009b04:	eba3 030c 	sub.w	r3, r3, ip
 8009b08:	eba3 0b05 	sub.w	fp, r3, r5
 8009b0c:	1ac9      	subs	r1, r1, r3
 8009b0e:	f859 3c38 	ldr.w	r3, [r9, #-56]
 8009b12:	f859 5c44 	ldr.w	r5, [r9, #-68]
 8009b16:	1a5b      	subs	r3, r3, r1
 8009b18:	1aed      	subs	r5, r5, r3
 8009b1a:	eba3 030b 	sub.w	r3, r3, fp
 8009b1e:	105b      	asrs	r3, r3, #1
 8009b20:	930a      	str	r3, [sp, #40]	; 0x28
 8009b22:	9b06      	ldr	r3, [sp, #24]
 8009b24:	4473      	add	r3, lr
 8009b26:	9307      	str	r3, [sp, #28]
 8009b28:	9b06      	ldr	r3, [sp, #24]
 8009b2a:	ebae 0303 	sub.w	r3, lr, r3
 8009b2e:	9308      	str	r3, [sp, #32]
 8009b30:	18b3      	adds	r3, r6, r2
 8009b32:	931c      	str	r3, [sp, #112]	; 0x70
 8009b34:	1ab3      	subs	r3, r6, r2
 8009b36:	9e09      	ldr	r6, [sp, #36]	; 0x24
 8009b38:	931d      	str	r3, [sp, #116]	; 0x74
 8009b3a:	eb06 0384 	add.w	r3, r6, r4, lsl #2
 8009b3e:	930b      	str	r3, [sp, #44]	; 0x2c
 8009b40:	eba6 0384 	sub.w	r3, r6, r4, lsl #2
 8009b44:	106d      	asrs	r5, r5, #1
 8009b46:	4c4b      	ldr	r4, [pc, #300]	; (8009c74 <xmp3_IMDCT+0x1800>)
 8009b48:	9306      	str	r3, [sp, #24]
 8009b4a:	fb84 2101 	smull	r2, r1, r4, r1
 8009b4e:	eb05 026c 	add.w	r2, r5, ip, asr #1
 8009b52:	eb02 0e41 	add.w	lr, r2, r1, lsl #1
 8009b56:	eba2 0141 	sub.w	r1, r2, r1, lsl #1
 8009b5a:	eba5 050c 	sub.w	r5, r5, ip
 8009b5e:	9109      	str	r1, [sp, #36]	; 0x24
 8009b60:	fb84 2b0b 	smull	r2, fp, r4, fp
 8009b64:	f859 3c08 	ldr.w	r3, [r9, #-8]
 8009b68:	990a      	ldr	r1, [sp, #40]	; 0x28
 8009b6a:	eb01 0663 	add.w	r6, r1, r3, asr #1
 8009b6e:	eb06 024b 	add.w	r2, r6, fp, lsl #1
 8009b72:	4614      	mov	r4, r2
 8009b74:	ea4f 0b4b 	mov.w	fp, fp, lsl #1
 8009b78:	fb80 2404 	smull	r2, r4, r0, r4
 8009b7c:	00a2      	lsls	r2, r4, #2
 8009b7e:	1acb      	subs	r3, r1, r3
 8009b80:	4c3e      	ldr	r4, [pc, #248]	; (8009c7c <xmp3_IMDCT+0x1808>)
 8009b82:	4611      	mov	r1, r2
 8009b84:	fb84 2303 	smull	r2, r3, r4, r3
 8009b88:	009b      	lsls	r3, r3, #2
 8009b8a:	4a3d      	ldr	r2, [pc, #244]	; (8009c80 <xmp3_IMDCT+0x180c>)
 8009b8c:	930e      	str	r3, [sp, #56]	; 0x38
 8009b8e:	eba6 060b 	sub.w	r6, r6, fp
 8009b92:	fb82 3606 	smull	r3, r6, r2, r6
 8009b96:	f859 2c04 	ldr.w	r2, [r9, #-4]
 8009b9a:	f859 3c10 	ldr.w	r3, [r9, #-16]
 8009b9e:	f859 4c28 	ldr.w	r4, [r9, #-40]
 8009ba2:	910a      	str	r1, [sp, #40]	; 0x28
 8009ba4:	1a9b      	subs	r3, r3, r2
 8009ba6:	f859 2c1c 	ldr.w	r2, [r9, #-28]
 8009baa:	930f      	str	r3, [sp, #60]	; 0x3c
 8009bac:	1ad2      	subs	r2, r2, r3
 8009bae:	f859 3c04 	ldr.w	r3, [r9, #-4]
 8009bb2:	1aa4      	subs	r4, r4, r2
 8009bb4:	eba2 0b03 	sub.w	fp, r2, r3
 8009bb8:	f859 2c34 	ldr.w	r2, [r9, #-52]
 8009bbc:	f859 3c40 	ldr.w	r3, [r9, #-64]
 8009bc0:	1b12      	subs	r2, r2, r4
 8009bc2:	eba3 0c02 	sub.w	ip, r3, r2
 8009bc6:	9b0a      	ldr	r3, [sp, #40]	; 0x28
 8009bc8:	4471      	add	r1, lr
 8009bca:	9121      	str	r1, [sp, #132]	; 0x84
 8009bcc:	ebae 0103 	sub.w	r1, lr, r3
 8009bd0:	9b0e      	ldr	r3, [sp, #56]	; 0x38
 8009bd2:	910a      	str	r1, [sp, #40]	; 0x28
 8009bd4:	18e9      	adds	r1, r5, r3
 8009bd6:	911e      	str	r1, [sp, #120]	; 0x78
 8009bd8:	9909      	ldr	r1, [sp, #36]	; 0x24
 8009bda:	1aeb      	subs	r3, r5, r3
 8009bdc:	9320      	str	r3, [sp, #128]	; 0x80
 8009bde:	eb01 0386 	add.w	r3, r1, r6, lsl #2
 8009be2:	eba2 020b 	sub.w	r2, r2, fp
 8009be6:	931f      	str	r3, [sp, #124]	; 0x7c
 8009be8:	eba1 0386 	sub.w	r3, r1, r6, lsl #2
 8009bec:	4d21      	ldr	r5, [pc, #132]	; (8009c74 <xmp3_IMDCT+0x1800>)
 8009bee:	9309      	str	r3, [sp, #36]	; 0x24
 8009bf0:	ea4f 0c6c 	mov.w	ip, ip, asr #1
 8009bf4:	1052      	asrs	r2, r2, #1
 8009bf6:	fb85 1404 	smull	r1, r4, r5, r4
 8009bfa:	9b0f      	ldr	r3, [sp, #60]	; 0x3c
 8009bfc:	eb0c 0163 	add.w	r1, ip, r3, asr #1
 8009c00:	ebac 0c03 	sub.w	ip, ip, r3
 8009c04:	eb01 0344 	add.w	r3, r1, r4, lsl #1
 8009c08:	eba1 0444 	sub.w	r4, r1, r4, lsl #1
 8009c0c:	fb85 1b0b 	smull	r1, fp, r5, fp
 8009c10:	f859 1c04 	ldr.w	r1, [r9, #-4]
 8009c14:	eb02 0161 	add.w	r1, r2, r1, asr #1
 8009c18:	eb01 054b 	add.w	r5, r1, fp, lsl #1
 8009c1c:	ea4f 0b4b 	mov.w	fp, fp, lsl #1
 8009c20:	fb80 6505 	smull	r6, r5, r0, r5
 8009c24:	f859 6c04 	ldr.w	r6, [r9, #-4]
 8009c28:	4814      	ldr	r0, [pc, #80]	; (8009c7c <xmp3_IMDCT+0x1808>)
 8009c2a:	1b92      	subs	r2, r2, r6
 8009c2c:	00ad      	lsls	r5, r5, #2
 8009c2e:	fb80 6202 	smull	r6, r2, r0, r2
 8009c32:	4813      	ldr	r0, [pc, #76]	; (8009c80 <xmp3_IMDCT+0x180c>)
 8009c34:	eba1 0b0b 	sub.w	fp, r1, fp
 8009c38:	0092      	lsls	r2, r2, #2
 8009c3a:	fb80 1b0b 	smull	r1, fp, r0, fp
 8009c3e:	18e9      	adds	r1, r5, r3
 8009c40:	1b5b      	subs	r3, r3, r5
 8009c42:	930f      	str	r3, [sp, #60]	; 0x3c
 8009c44:	eb02 030c 	add.w	r3, r2, ip
 8009c48:	9322      	str	r3, [sp, #136]	; 0x88
 8009c4a:	ebac 0302 	sub.w	r3, ip, r2
 8009c4e:	930e      	str	r3, [sp, #56]	; 0x38
 8009c50:	eb04 038b 	add.w	r3, r4, fp, lsl #2
 8009c54:	9311      	str	r3, [sp, #68]	; 0x44
 8009c56:	9b0c      	ldr	r3, [sp, #48]	; 0x30
 8009c58:	9110      	str	r1, [sp, #64]	; 0x40
 8009c5a:	2b02      	cmp	r3, #2
 8009c5c:	eba4 0b8b 	sub.w	fp, r4, fp, lsl #2
 8009c60:	f47f acb7 	bne.w	80095d2 <xmp3_IMDCT+0x115e>
 8009c64:	ee17 0a90 	vmov	r0, s15
 8009c68:	a94c      	add	r1, sp, #304	; 0x130
 8009c6a:	f7fe f90b 	bl	8007e84 <WinPrevious.part.0>
 8009c6e:	9b4c      	ldr	r3, [sp, #304]	; 0x130
 8009c70:	e522      	b.n	80096b8 <xmp3_IMDCT+0x1244>
 8009c72:	bf00      	nop
 8009c74:	6ed9eba1 	.word	0x6ed9eba1
 8009c78:	7ba3751d 	.word	0x7ba3751d
 8009c7c:	5a82799a 	.word	0x5a82799a
 8009c80:	2120fb83 	.word	0x2120fb83
 8009c84:	9a2c      	ldr	r2, [sp, #176]	; 0xb0
 8009c86:	9b02      	ldr	r3, [sp, #8]
 8009c88:	9902      	ldr	r1, [sp, #8]
 8009c8a:	1a9b      	subs	r3, r3, r2
 8009c8c:	9a2b      	ldr	r2, [sp, #172]	; 0xac
 8009c8e:	eb03 03c3 	add.w	r3, r3, r3, lsl #3
 8009c92:	eb02 0383 	add.w	r3, r2, r3, lsl #2
 8009c96:	9a25      	ldr	r2, [sp, #148]	; 0x94
 8009c98:	932b      	str	r3, [sp, #172]	; 0xac
 8009c9a:	428a      	cmp	r2, r1
 8009c9c:	f340 8432 	ble.w	800a504 <xmp3_IMDCT+0x2090>
 8009ca0:	9b26      	ldr	r3, [sp, #152]	; 0x98
 8009ca2:	428b      	cmp	r3, r1
 8009ca4:	f340 8402 	ble.w	800a4ac <xmp3_IMDCT+0x2038>
 8009ca8:	4293      	cmp	r3, r2
 8009caa:	bfa8      	it	ge
 8009cac:	4613      	movge	r3, r2
 8009cae:	931d      	str	r3, [sp, #116]	; 0x74
 8009cb0:	9b32      	ldr	r3, [sp, #200]	; 0xc8
 8009cb2:	f8df 8870 	ldr.w	r8, [pc, #2160]	; 800a524 <xmp3_IMDCT+0x20b0>
 8009cb6:	9a2b      	ldr	r2, [sp, #172]	; 0xac
 8009cb8:	eb03 0381 	add.w	r3, r3, r1, lsl #2
 8009cbc:	f1a3 0e04 	sub.w	lr, r3, #4
 8009cc0:	f8d8 3048 	ldr.w	r3, [r8, #72]	; 0x48
 8009cc4:	931e      	str	r3, [sp, #120]	; 0x78
 8009cc6:	f8d8 308c 	ldr.w	r3, [r8, #140]	; 0x8c
 8009cca:	931f      	str	r3, [sp, #124]	; 0x7c
 8009ccc:	f8d8 304c 	ldr.w	r3, [r8, #76]	; 0x4c
 8009cd0:	9320      	str	r3, [sp, #128]	; 0x80
 8009cd2:	f8d8 3088 	ldr.w	r3, [r8, #136]	; 0x88
 8009cd6:	9321      	str	r3, [sp, #132]	; 0x84
 8009cd8:	f8d8 3050 	ldr.w	r3, [r8, #80]	; 0x50
 8009cdc:	9322      	str	r3, [sp, #136]	; 0x88
 8009cde:	f8d8 3084 	ldr.w	r3, [r8, #132]	; 0x84
 8009ce2:	9323      	str	r3, [sp, #140]	; 0x8c
 8009ce4:	f8d8 3054 	ldr.w	r3, [r8, #84]	; 0x54
 8009ce8:	9324      	str	r3, [sp, #144]	; 0x90
 8009cea:	f8d8 3080 	ldr.w	r3, [r8, #128]	; 0x80
 8009cee:	9326      	str	r3, [sp, #152]	; 0x98
 8009cf0:	f8d8 3058 	ldr.w	r3, [r8, #88]	; 0x58
 8009cf4:	9327      	str	r3, [sp, #156]	; 0x9c
 8009cf6:	f8d8 307c 	ldr.w	r3, [r8, #124]	; 0x7c
 8009cfa:	9328      	str	r3, [sp, #160]	; 0xa0
 8009cfc:	f8d8 305c 	ldr.w	r3, [r8, #92]	; 0x5c
 8009d00:	9329      	str	r3, [sp, #164]	; 0xa4
 8009d02:	f8d8 3078 	ldr.w	r3, [r8, #120]	; 0x78
 8009d06:	932a      	str	r3, [sp, #168]	; 0xa8
 8009d08:	f8d8 3060 	ldr.w	r3, [r8, #96]	; 0x60
 8009d0c:	932b      	str	r3, [sp, #172]	; 0xac
 8009d0e:	f8d8 3074 	ldr.w	r3, [r8, #116]	; 0x74
 8009d12:	932c      	str	r3, [sp, #176]	; 0xb0
 8009d14:	f8d8 3064 	ldr.w	r3, [r8, #100]	; 0x64
 8009d18:	932d      	str	r3, [sp, #180]	; 0xb4
 8009d1a:	f8d8 3070 	ldr.w	r3, [r8, #112]	; 0x70
 8009d1e:	932e      	str	r3, [sp, #184]	; 0xb8
 8009d20:	f8d8 3068 	ldr.w	r3, [r8, #104]	; 0x68
 8009d24:	932f      	str	r3, [sp, #188]	; 0xbc
 8009d26:	f8d8 306c 	ldr.w	r3, [r8, #108]	; 0x6c
 8009d2a:	9330      	str	r3, [sp, #192]	; 0xc0
 8009d2c:	3224      	adds	r2, #36	; 0x24
 8009d2e:	9100      	str	r1, [sp, #0]
 8009d30:	2500      	movs	r5, #0
 8009d32:	f8cd 80e4 	str.w	r8, [sp, #228]	; 0xe4
 8009d36:	f852 3c24 	ldr.w	r3, [r2, #-36]
 8009d3a:	9c1e      	ldr	r4, [sp, #120]	; 0x78
 8009d3c:	4611      	mov	r1, r2
 8009d3e:	4618      	mov	r0, r3
 8009d40:	fb84 2000 	smull	r2, r0, r4, r0
 8009d44:	9c1f      	ldr	r4, [sp, #124]	; 0x7c
 8009d46:	904c      	str	r0, [sp, #304]	; 0x130
 8009d48:	fb84 2303 	smull	r2, r3, r4, r3
 8009d4c:	935d      	str	r3, [sp, #372]	; 0x174
 8009d4e:	f851 2c20 	ldr.w	r2, [r1, #-32]
 8009d52:	9c20      	ldr	r4, [sp, #128]	; 0x80
 8009d54:	4613      	mov	r3, r2
 8009d56:	fb84 6303 	smull	r6, r3, r4, r3
 8009d5a:	9c21      	ldr	r4, [sp, #132]	; 0x84
 8009d5c:	934d      	str	r3, [sp, #308]	; 0x134
 8009d5e:	fb84 6202 	smull	r6, r2, r4, r2
 8009d62:	925c      	str	r2, [sp, #368]	; 0x170
 8009d64:	f851 2c1c 	ldr.w	r2, [r1, #-28]
 8009d68:	9c22      	ldr	r4, [sp, #136]	; 0x88
 8009d6a:	4616      	mov	r6, r2
 8009d6c:	fb84 7606 	smull	r7, r6, r4, r6
 8009d70:	9c23      	ldr	r4, [sp, #140]	; 0x8c
 8009d72:	964e      	str	r6, [sp, #312]	; 0x138
 8009d74:	fb84 6202 	smull	r6, r2, r4, r2
 8009d78:	925b      	str	r2, [sp, #364]	; 0x16c
 8009d7a:	f851 2c18 	ldr.w	r2, [r1, #-24]
 8009d7e:	9c24      	ldr	r4, [sp, #144]	; 0x90
 8009d80:	4616      	mov	r6, r2
 8009d82:	fb84 7606 	smull	r7, r6, r4, r6
 8009d86:	9c26      	ldr	r4, [sp, #152]	; 0x98
 8009d88:	964f      	str	r6, [sp, #316]	; 0x13c
 8009d8a:	fb84 6202 	smull	r6, r2, r4, r2
 8009d8e:	925a      	str	r2, [sp, #360]	; 0x168
 8009d90:	f851 2c14 	ldr.w	r2, [r1, #-20]
 8009d94:	9c27      	ldr	r4, [sp, #156]	; 0x9c
 8009d96:	4616      	mov	r6, r2
 8009d98:	fb84 7606 	smull	r7, r6, r4, r6
 8009d9c:	9c28      	ldr	r4, [sp, #160]	; 0xa0
 8009d9e:	9650      	str	r6, [sp, #320]	; 0x140
 8009da0:	fb84 6202 	smull	r6, r2, r4, r2
 8009da4:	9259      	str	r2, [sp, #356]	; 0x164
 8009da6:	f851 2c10 	ldr.w	r2, [r1, #-16]
 8009daa:	9c29      	ldr	r4, [sp, #164]	; 0xa4
 8009dac:	4616      	mov	r6, r2
 8009dae:	fb84 7606 	smull	r7, r6, r4, r6
 8009db2:	9c2a      	ldr	r4, [sp, #168]	; 0xa8
 8009db4:	9651      	str	r6, [sp, #324]	; 0x144
 8009db6:	fb84 6202 	smull	r6, r2, r4, r2
 8009dba:	9258      	str	r2, [sp, #352]	; 0x160
 8009dbc:	f851 2c0c 	ldr.w	r2, [r1, #-12]
 8009dc0:	9c2b      	ldr	r4, [sp, #172]	; 0xac
 8009dc2:	4616      	mov	r6, r2
 8009dc4:	fb84 7606 	smull	r7, r6, r4, r6
 8009dc8:	9c2c      	ldr	r4, [sp, #176]	; 0xb0
 8009dca:	9652      	str	r6, [sp, #328]	; 0x148
 8009dcc:	fb84 6202 	smull	r6, r2, r4, r2
 8009dd0:	9257      	str	r2, [sp, #348]	; 0x15c
 8009dd2:	f851 2c08 	ldr.w	r2, [r1, #-8]
 8009dd6:	9c2d      	ldr	r4, [sp, #180]	; 0xb4
 8009dd8:	4616      	mov	r6, r2
 8009dda:	fb84 7606 	smull	r7, r6, r4, r6
 8009dde:	9c2e      	ldr	r4, [sp, #184]	; 0xb8
 8009de0:	9653      	str	r6, [sp, #332]	; 0x14c
 8009de2:	fb84 6202 	smull	r6, r2, r4, r2
 8009de6:	9256      	str	r2, [sp, #344]	; 0x158
 8009de8:	f851 2c04 	ldr.w	r2, [r1, #-4]
 8009dec:	9c2f      	ldr	r4, [sp, #188]	; 0xbc
 8009dee:	4616      	mov	r6, r2
 8009df0:	fb84 7606 	smull	r7, r6, r4, r6
 8009df4:	9c30      	ldr	r4, [sp, #192]	; 0xc0
 8009df6:	9654      	str	r6, [sp, #336]	; 0x150
 8009df8:	fb84 6202 	smull	r6, r2, r4, r2
 8009dfc:	9255      	str	r2, [sp, #340]	; 0x154
 8009dfe:	0082      	lsls	r2, r0, #2
 8009e00:	f84e 2f04 	str.w	r2, [lr, #4]!
 8009e04:	4628      	mov	r0, r5
 8009e06:	9203      	str	r2, [sp, #12]
 8009e08:	ea82 70e2 	eor.w	r0, r2, r2, asr #31
 8009e0c:	eba0 70e2 	sub.w	r0, r0, r2, asr #31
 8009e10:	9011      	str	r0, [sp, #68]	; 0x44
 8009e12:	9802      	ldr	r0, [sp, #8]
 8009e14:	f340 0200 	sbfx	r2, r0, #0, #1
 8009e18:	ea82 0383 	eor.w	r3, r2, r3, lsl #2
 8009e1c:	f000 0001 	and.w	r0, r0, #1
 8009e20:	4403      	add	r3, r0
 8009e22:	f8ce 3080 	str.w	r3, [lr, #128]	; 0x80
 8009e26:	462c      	mov	r4, r5
 8009e28:	9304      	str	r3, [sp, #16]
 8009e2a:	ea83 74e3 	eor.w	r4, r3, r3, asr #31
 8009e2e:	eba4 74e3 	sub.w	r4, r4, r3, asr #31
 8009e32:	f841 5c24 	str.w	r5, [r1, #-36]
 8009e36:	9b4e      	ldr	r3, [sp, #312]	; 0x138
 8009e38:	9412      	str	r4, [sp, #72]	; 0x48
 8009e3a:	009f      	lsls	r7, r3, #2
 8009e3c:	f8ce 7100 	str.w	r7, [lr, #256]	; 0x100
 8009e40:	46ac      	mov	ip, r5
 8009e42:	462e      	mov	r6, r5
 8009e44:	9705      	str	r7, [sp, #20]
 8009e46:	ea87 76e7 	eor.w	r6, r7, r7, asr #31
 8009e4a:	eba6 76e7 	sub.w	r6, r6, r7, asr #31
 8009e4e:	9b4f      	ldr	r3, [sp, #316]	; 0x13c
 8009e50:	9613      	str	r6, [sp, #76]	; 0x4c
 8009e52:	ea82 0383 	eor.w	r3, r2, r3, lsl #2
 8009e56:	18c6      	adds	r6, r0, r3
 8009e58:	f8ce 6180 	str.w	r6, [lr, #384]	; 0x180
 8009e5c:	462f      	mov	r7, r5
 8009e5e:	9606      	str	r6, [sp, #24]
 8009e60:	ea86 77e6 	eor.w	r7, r6, r6, asr #31
 8009e64:	eba7 77e6 	sub.w	r7, r7, r6, asr #31
 8009e68:	f841 5c20 	str.w	r5, [r1, #-32]
 8009e6c:	9b50      	ldr	r3, [sp, #320]	; 0x140
 8009e6e:	9714      	str	r7, [sp, #80]	; 0x50
 8009e70:	009f      	lsls	r7, r3, #2
 8009e72:	f8ce 7200 	str.w	r7, [lr, #512]	; 0x200
 8009e76:	462b      	mov	r3, r5
 8009e78:	9707      	str	r7, [sp, #28]
 8009e7a:	ea87 73e7 	eor.w	r3, r7, r7, asr #31
 8009e7e:	eba3 73e7 	sub.w	r3, r3, r7, asr #31
 8009e82:	9315      	str	r3, [sp, #84]	; 0x54
 8009e84:	9b51      	ldr	r3, [sp, #324]	; 0x144
 8009e86:	ea82 0383 	eor.w	r3, r2, r3, lsl #2
 8009e8a:	18c4      	adds	r4, r0, r3
 8009e8c:	f8ce 4280 	str.w	r4, [lr, #640]	; 0x280
 8009e90:	462b      	mov	r3, r5
 8009e92:	9408      	str	r4, [sp, #32]
 8009e94:	ea84 73e4 	eor.w	r3, r4, r4, asr #31
 8009e98:	eba3 73e4 	sub.w	r3, r3, r4, asr #31
 8009e9c:	f841 5c1c 	str.w	r5, [r1, #-28]
 8009ea0:	9316      	str	r3, [sp, #88]	; 0x58
 8009ea2:	9b52      	ldr	r3, [sp, #328]	; 0x148
 8009ea4:	009b      	lsls	r3, r3, #2
 8009ea6:	f8ce 3300 	str.w	r3, [lr, #768]	; 0x300
 8009eaa:	462e      	mov	r6, r5
 8009eac:	9309      	str	r3, [sp, #36]	; 0x24
 8009eae:	ea83 76e3 	eor.w	r6, r3, r3, asr #31
 8009eb2:	eba6 76e3 	sub.w	r6, r6, r3, asr #31
 8009eb6:	9b53      	ldr	r3, [sp, #332]	; 0x14c
 8009eb8:	9617      	str	r6, [sp, #92]	; 0x5c
 8009eba:	ea82 0383 	eor.w	r3, r2, r3, lsl #2
 8009ebe:	18c7      	adds	r7, r0, r3
 8009ec0:	f8ce 7380 	str.w	r7, [lr, #896]	; 0x380
 8009ec4:	462b      	mov	r3, r5
 8009ec6:	970a      	str	r7, [sp, #40]	; 0x28
 8009ec8:	ea87 73e7 	eor.w	r3, r7, r7, asr #31
 8009ecc:	eba3 73e7 	sub.w	r3, r3, r7, asr #31
 8009ed0:	f841 5c18 	str.w	r5, [r1, #-24]
 8009ed4:	9318      	str	r3, [sp, #96]	; 0x60
 8009ed6:	9b54      	ldr	r3, [sp, #336]	; 0x150
 8009ed8:	009b      	lsls	r3, r3, #2
 8009eda:	f8ce 3400 	str.w	r3, [lr, #1024]	; 0x400
 8009ede:	462e      	mov	r6, r5
 8009ee0:	930b      	str	r3, [sp, #44]	; 0x2c
 8009ee2:	ea83 76e3 	eor.w	r6, r3, r3, asr #31
 8009ee6:	eba6 76e3 	sub.w	r6, r6, r3, asr #31
 8009eea:	9b55      	ldr	r3, [sp, #340]	; 0x154
 8009eec:	9619      	str	r6, [sp, #100]	; 0x64
 8009eee:	ea82 0383 	eor.w	r3, r2, r3, lsl #2
 8009ef2:	18c6      	adds	r6, r0, r3
 8009ef4:	f8ce 6480 	str.w	r6, [lr, #1152]	; 0x480
 8009ef8:	462f      	mov	r7, r5
 8009efa:	960d      	str	r6, [sp, #52]	; 0x34
 8009efc:	ea86 77e6 	eor.w	r7, r6, r6, asr #31
 8009f00:	eba7 77e6 	sub.w	r7, r7, r6, asr #31
 8009f04:	f841 5c14 	str.w	r5, [r1, #-20]
 8009f08:	971a      	str	r7, [sp, #104]	; 0x68
 8009f0a:	9f56      	ldr	r7, [sp, #344]	; 0x158
 8009f0c:	00bf      	lsls	r7, r7, #2
 8009f0e:	f8ce 7500 	str.w	r7, [lr, #1280]	; 0x500
 8009f12:	462c      	mov	r4, r5
 8009f14:	ea87 74e7 	eor.w	r4, r7, r7, asr #31
 8009f18:	eba4 74e7 	sub.w	r4, r4, r7, asr #31
 8009f1c:	9b57      	ldr	r3, [sp, #348]	; 0x15c
 8009f1e:	941b      	str	r4, [sp, #108]	; 0x6c
 8009f20:	ea82 0383 	eor.w	r3, r2, r3, lsl #2
 8009f24:	18c3      	adds	r3, r0, r3
 8009f26:	f8ce 3580 	str.w	r3, [lr, #1408]	; 0x580
 8009f2a:	462e      	mov	r6, r5
 8009f2c:	930e      	str	r3, [sp, #56]	; 0x38
 8009f2e:	ea83 76e3 	eor.w	r6, r3, r3, asr #31
 8009f32:	eba6 76e3 	sub.w	r6, r6, r3, asr #31
 8009f36:	f841 5c10 	str.w	r5, [r1, #-16]
 8009f3a:	961c      	str	r6, [sp, #112]	; 0x70
 8009f3c:	9e58      	ldr	r6, [sp, #352]	; 0x160
 8009f3e:	00b4      	lsls	r4, r6, #2
 8009f40:	f8ce 4600 	str.w	r4, [lr, #1536]	; 0x600
 8009f44:	46aa      	mov	sl, r5
 8009f46:	940f      	str	r4, [sp, #60]	; 0x3c
 8009f48:	ea84 7ae4 	eor.w	sl, r4, r4, asr #31
 8009f4c:	ebaa 7ae4 	sub.w	sl, sl, r4, asr #31
 8009f50:	9b59      	ldr	r3, [sp, #356]	; 0x164
 8009f52:	ea82 0383 	eor.w	r3, r2, r3, lsl #2
 8009f56:	18c6      	adds	r6, r0, r3
 8009f58:	f8ce 6680 	str.w	r6, [lr, #1664]	; 0x680
 8009f5c:	46a9      	mov	r9, r5
 8009f5e:	9610      	str	r6, [sp, #64]	; 0x40
 8009f60:	ea86 79e6 	eor.w	r9, r6, r6, asr #31
 8009f64:	eba9 79e6 	sub.w	r9, r9, r6, asr #31
 8009f68:	f841 5c0c 	str.w	r5, [r1, #-12]
 8009f6c:	9e5a      	ldr	r6, [sp, #360]	; 0x168
 8009f6e:	00b6      	lsls	r6, r6, #2
 8009f70:	f8ce 6700 	str.w	r6, [lr, #1792]	; 0x700
 8009f74:	46a8      	mov	r8, r5
 8009f76:	ea86 78e6 	eor.w	r8, r6, r6, asr #31
 8009f7a:	eba8 78e6 	sub.w	r8, r8, r6, asr #31
 8009f7e:	9b5b      	ldr	r3, [sp, #364]	; 0x16c
 8009f80:	ea82 0383 	eor.w	r3, r2, r3, lsl #2
 8009f84:	eb00 0b03 	add.w	fp, r0, r3
 8009f88:	f8ce b780 	str.w	fp, [lr, #1920]	; 0x780
 8009f8c:	ea8b 7ceb 	eor.w	ip, fp, fp, asr #31
 8009f90:	ebac 7ceb 	sub.w	ip, ip, fp, asr #31
 8009f94:	9c07      	ldr	r4, [sp, #28]
 8009f96:	9b05      	ldr	r3, [sp, #20]
 8009f98:	f841 5c08 	str.w	r5, [r1, #-8]
 8009f9c:	4323      	orrs	r3, r4
 8009f9e:	9c09      	ldr	r4, [sp, #36]	; 0x24
 8009fa0:	4323      	orrs	r3, r4
 8009fa2:	9c0b      	ldr	r4, [sp, #44]	; 0x2c
 8009fa4:	4323      	orrs	r3, r4
 8009fa6:	433b      	orrs	r3, r7
 8009fa8:	9f0f      	ldr	r7, [sp, #60]	; 0x3c
 8009faa:	9c08      	ldr	r4, [sp, #32]
 8009fac:	433b      	orrs	r3, r7
 8009fae:	9f5c      	ldr	r7, [sp, #368]	; 0x170
 8009fb0:	4333      	orrs	r3, r6
 8009fb2:	9e03      	ldr	r6, [sp, #12]
 8009fb4:	ea43 0387 	orr.w	r3, r3, r7, lsl #2
 8009fb8:	4333      	orrs	r3, r6
 8009fba:	9e04      	ldr	r6, [sp, #16]
 8009fbc:	4333      	orrs	r3, r6
 8009fbe:	9e06      	ldr	r6, [sp, #24]
 8009fc0:	4333      	orrs	r3, r6
 8009fc2:	4323      	orrs	r3, r4
 8009fc4:	9c0a      	ldr	r4, [sp, #40]	; 0x28
 8009fc6:	9e0d      	ldr	r6, [sp, #52]	; 0x34
 8009fc8:	4323      	orrs	r3, r4
 8009fca:	9c0e      	ldr	r4, [sp, #56]	; 0x38
 8009fcc:	4333      	orrs	r3, r6
 8009fce:	9e10      	ldr	r6, [sp, #64]	; 0x40
 8009fd0:	4323      	orrs	r3, r4
 8009fd2:	4333      	orrs	r3, r6
 8009fd4:	00bf      	lsls	r7, r7, #2
 8009fd6:	ea43 0b0b 	orr.w	fp, r3, fp
 8009fda:	f8ce 7800 	str.w	r7, [lr, #2048]	; 0x800
 8009fde:	462e      	mov	r6, r5
 8009fe0:	ea87 76e7 	eor.w	r6, r7, r7, asr #31
 8009fe4:	eba6 76e7 	sub.w	r6, r6, r7, asr #31
 8009fe8:	9b5d      	ldr	r3, [sp, #372]	; 0x174
 8009fea:	ea82 0383 	eor.w	r3, r2, r3, lsl #2
 8009fee:	4418      	add	r0, r3
 8009ff0:	f8ce 0880 	str.w	r0, [lr, #2176]	; 0x880
 8009ff4:	462b      	mov	r3, r5
 8009ff6:	ea80 73e0 	eor.w	r3, r0, r0, asr #31
 8009ffa:	eba3 73e0 	sub.w	r3, r3, r0, asr #31
 8009ffe:	ea5b 0200 	orrs.w	r2, fp, r0
 800a002:	e9dd 0411 	ldrd	r0, r4, [sp, #68]	; 0x44
 800a006:	ea40 0204 	orr.w	r2, r0, r4
 800a00a:	9813      	ldr	r0, [sp, #76]	; 0x4c
 800a00c:	9f14      	ldr	r7, [sp, #80]	; 0x50
 800a00e:	9c1b      	ldr	r4, [sp, #108]	; 0x6c
 800a010:	f841 5c04 	str.w	r5, [r1, #-4]
 800a014:	ea42 0200 	orr.w	r2, r2, r0
 800a018:	9815      	ldr	r0, [sp, #84]	; 0x54
 800a01a:	ea42 0207 	orr.w	r2, r2, r7
 800a01e:	ea42 0200 	orr.w	r2, r2, r0
 800a022:	9816      	ldr	r0, [sp, #88]	; 0x58
 800a024:	9f1a      	ldr	r7, [sp, #104]	; 0x68
 800a026:	ea42 0200 	orr.w	r2, r2, r0
 800a02a:	9817      	ldr	r0, [sp, #92]	; 0x5c
 800a02c:	ea42 0200 	orr.w	r2, r2, r0
 800a030:	9818      	ldr	r0, [sp, #96]	; 0x60
 800a032:	ea42 0200 	orr.w	r2, r2, r0
 800a036:	9819      	ldr	r0, [sp, #100]	; 0x64
 800a038:	ea42 0200 	orr.w	r2, r2, r0
 800a03c:	ea42 0207 	orr.w	r2, r2, r7
 800a040:	981c      	ldr	r0, [sp, #112]	; 0x70
 800a042:	ea42 0204 	orr.w	r2, r2, r4
 800a046:	ea42 0200 	orr.w	r2, r2, r0
 800a04a:	ea42 020a 	orr.w	r2, r2, sl
 800a04e:	ea42 0209 	orr.w	r2, r2, r9
 800a052:	ea42 0208 	orr.w	r2, r2, r8
 800a056:	ea42 020c 	orr.w	r2, r2, ip
 800a05a:	ea42 0206 	orr.w	r2, r2, r6
 800a05e:	ea42 0203 	orr.w	r2, r2, r3
 800a062:	9b01      	ldr	r3, [sp, #4]
 800a064:	9802      	ldr	r0, [sp, #8]
 800a066:	ea43 0302 	orr.w	r3, r3, r2
 800a06a:	9301      	str	r3, [sp, #4]
 800a06c:	9b00      	ldr	r3, [sp, #0]
 800a06e:	bf18      	it	ne
 800a070:	4603      	movne	r3, r0
 800a072:	9300      	str	r3, [sp, #0]
 800a074:	9b1d      	ldr	r3, [sp, #116]	; 0x74
 800a076:	3001      	adds	r0, #1
 800a078:	4298      	cmp	r0, r3
 800a07a:	9002      	str	r0, [sp, #8]
 800a07c:	f101 0224 	add.w	r2, r1, #36	; 0x24
 800a080:	f6ff ae59 	blt.w	8009d36 <xmp3_IMDCT+0x18c2>
 800a084:	9b25      	ldr	r3, [sp, #148]	; 0x94
 800a086:	f8dd 80e4 	ldr.w	r8, [sp, #228]	; 0xe4
 800a08a:	912b      	str	r1, [sp, #172]	; 0xac
 800a08c:	4283      	cmp	r3, r0
 800a08e:	f340 81d4 	ble.w	800a43a <xmp3_IMDCT+0x1fc6>
 800a092:	9b32      	ldr	r3, [sp, #200]	; 0xc8
 800a094:	9a02      	ldr	r2, [sp, #8]
 800a096:	9e2b      	ldr	r6, [sp, #172]	; 0xac
 800a098:	eb03 0382 	add.w	r3, r3, r2, lsl #2
 800a09c:	f1a3 0a04 	sub.w	sl, r3, #4
 800a0a0:	9b0c      	ldr	r3, [sp, #48]	; 0x30
 800a0a2:	eb03 03c3 	add.w	r3, r3, r3, lsl #3
 800a0a6:	3624      	adds	r6, #36	; 0x24
 800a0a8:	eb08 1b03 	add.w	fp, r8, r3, lsl #4
 800a0ac:	f04f 0900 	mov.w	r9, #0
 800a0b0:	e148      	b.n	800a344 <xmp3_IMDCT+0x1ed0>
 800a0b2:	a94c      	add	r1, sp, #304	; 0x130
 800a0b4:	f7fd fee6 	bl	8007e84 <WinPrevious.part.0>
 800a0b8:	e9dd 324c 	ldrd	r3, r2, [sp, #304]	; 0x130
 800a0bc:	009b      	lsls	r3, r3, #2
 800a0be:	f84a 3f04 	str.w	r3, [sl, #4]!
 800a0c2:	46c8      	mov	r8, r9
 800a0c4:	9311      	str	r3, [sp, #68]	; 0x44
 800a0c6:	ea83 78e3 	eor.w	r8, r3, r3, asr #31
 800a0ca:	eba8 78e3 	sub.w	r8, r8, r3, asr #31
 800a0ce:	9802      	ldr	r0, [sp, #8]
 800a0d0:	f340 0300 	sbfx	r3, r0, #0, #1
 800a0d4:	ea83 0182 	eor.w	r1, r3, r2, lsl #2
 800a0d8:	f000 0201 	and.w	r2, r0, #1
 800a0dc:	1851      	adds	r1, r2, r1
 800a0de:	f8ca 1080 	str.w	r1, [sl, #128]	; 0x80
 800a0e2:	464c      	mov	r4, r9
 800a0e4:	9110      	str	r1, [sp, #64]	; 0x40
 800a0e6:	ea81 74e1 	eor.w	r4, r1, r1, asr #31
 800a0ea:	eba4 74e1 	sub.w	r4, r4, r1, asr #31
 800a0ee:	f846 9c24 	str.w	r9, [r6, #-36]
 800a0f2:	994e      	ldr	r1, [sp, #312]	; 0x138
 800a0f4:	9412      	str	r4, [sp, #72]	; 0x48
 800a0f6:	008c      	lsls	r4, r1, #2
 800a0f8:	f8ca 4100 	str.w	r4, [sl, #256]	; 0x100
 800a0fc:	464d      	mov	r5, r9
 800a0fe:	940f      	str	r4, [sp, #60]	; 0x3c
 800a100:	ea84 75e4 	eor.w	r5, r4, r4, asr #31
 800a104:	eba5 75e4 	sub.w	r5, r5, r4, asr #31
 800a108:	994f      	ldr	r1, [sp, #316]	; 0x13c
 800a10a:	9513      	str	r5, [sp, #76]	; 0x4c
 800a10c:	ea83 0181 	eor.w	r1, r3, r1, lsl #2
 800a110:	188d      	adds	r5, r1, r2
 800a112:	f8ca 5180 	str.w	r5, [sl, #384]	; 0x180
 800a116:	46cc      	mov	ip, r9
 800a118:	464f      	mov	r7, r9
 800a11a:	950e      	str	r5, [sp, #56]	; 0x38
 800a11c:	ea85 77e5 	eor.w	r7, r5, r5, asr #31
 800a120:	eba7 77e5 	sub.w	r7, r7, r5, asr #31
 800a124:	f846 9c20 	str.w	r9, [r6, #-32]
 800a128:	9950      	ldr	r1, [sp, #320]	; 0x140
 800a12a:	9714      	str	r7, [sp, #80]	; 0x50
 800a12c:	008f      	lsls	r7, r1, #2
 800a12e:	f8ca 7200 	str.w	r7, [sl, #512]	; 0x200
 800a132:	4649      	mov	r1, r9
 800a134:	970d      	str	r7, [sp, #52]	; 0x34
 800a136:	ea87 71e7 	eor.w	r1, r7, r7, asr #31
 800a13a:	eba1 71e7 	sub.w	r1, r1, r7, asr #31
 800a13e:	9115      	str	r1, [sp, #84]	; 0x54
 800a140:	9951      	ldr	r1, [sp, #324]	; 0x144
 800a142:	ea83 0181 	eor.w	r1, r3, r1, lsl #2
 800a146:	188d      	adds	r5, r1, r2
 800a148:	f8ca 5280 	str.w	r5, [sl, #640]	; 0x280
 800a14c:	4648      	mov	r0, r9
 800a14e:	950b      	str	r5, [sp, #44]	; 0x2c
 800a150:	ea85 70e5 	eor.w	r0, r5, r5, asr #31
 800a154:	eba0 70e5 	sub.w	r0, r0, r5, asr #31
 800a158:	f846 9c1c 	str.w	r9, [r6, #-28]
 800a15c:	9952      	ldr	r1, [sp, #328]	; 0x148
 800a15e:	9016      	str	r0, [sp, #88]	; 0x58
 800a160:	0089      	lsls	r1, r1, #2
 800a162:	f8ca 1300 	str.w	r1, [sl, #768]	; 0x300
 800a166:	4648      	mov	r0, r9
 800a168:	910a      	str	r1, [sp, #40]	; 0x28
 800a16a:	ea81 70e1 	eor.w	r0, r1, r1, asr #31
 800a16e:	eba0 70e1 	sub.w	r0, r0, r1, asr #31
 800a172:	9953      	ldr	r1, [sp, #332]	; 0x14c
 800a174:	9017      	str	r0, [sp, #92]	; 0x5c
 800a176:	ea83 0181 	eor.w	r1, r3, r1, lsl #2
 800a17a:	1888      	adds	r0, r1, r2
 800a17c:	f8ca 0380 	str.w	r0, [sl, #896]	; 0x380
 800a180:	464d      	mov	r5, r9
 800a182:	9009      	str	r0, [sp, #36]	; 0x24
 800a184:	ea80 75e0 	eor.w	r5, r0, r0, asr #31
 800a188:	eba5 75e0 	sub.w	r5, r5, r0, asr #31
 800a18c:	f846 9c18 	str.w	r9, [r6, #-24]
 800a190:	9954      	ldr	r1, [sp, #336]	; 0x150
 800a192:	9518      	str	r5, [sp, #96]	; 0x60
 800a194:	008d      	lsls	r5, r1, #2
 800a196:	f8ca 5400 	str.w	r5, [sl, #1024]	; 0x400
 800a19a:	4649      	mov	r1, r9
 800a19c:	9508      	str	r5, [sp, #32]
 800a19e:	ea85 71e5 	eor.w	r1, r5, r5, asr #31
 800a1a2:	eba1 71e5 	sub.w	r1, r1, r5, asr #31
 800a1a6:	9119      	str	r1, [sp, #100]	; 0x64
 800a1a8:	9955      	ldr	r1, [sp, #340]	; 0x154
 800a1aa:	ea83 0181 	eor.w	r1, r3, r1, lsl #2
 800a1ae:	4411      	add	r1, r2
 800a1b0:	f8ca 1480 	str.w	r1, [sl, #1152]	; 0x480
 800a1b4:	464c      	mov	r4, r9
 800a1b6:	9107      	str	r1, [sp, #28]
 800a1b8:	ea81 74e1 	eor.w	r4, r1, r1, asr #31
 800a1bc:	eba4 74e1 	sub.w	r4, r4, r1, asr #31
 800a1c0:	f846 9c14 	str.w	r9, [r6, #-20]
 800a1c4:	9956      	ldr	r1, [sp, #344]	; 0x158
 800a1c6:	941a      	str	r4, [sp, #104]	; 0x68
 800a1c8:	0088      	lsls	r0, r1, #2
 800a1ca:	f8ca 0500 	str.w	r0, [sl, #1280]	; 0x500
 800a1ce:	464c      	mov	r4, r9
 800a1d0:	9006      	str	r0, [sp, #24]
 800a1d2:	ea80 74e0 	eor.w	r4, r0, r0, asr #31
 800a1d6:	eba4 74e0 	sub.w	r4, r4, r0, asr #31
 800a1da:	9957      	ldr	r1, [sp, #348]	; 0x15c
 800a1dc:	941b      	str	r4, [sp, #108]	; 0x6c
 800a1de:	ea83 0181 	eor.w	r1, r3, r1, lsl #2
 800a1e2:	188c      	adds	r4, r1, r2
 800a1e4:	f8ca 4580 	str.w	r4, [sl, #1408]	; 0x580
 800a1e8:	464d      	mov	r5, r9
 800a1ea:	9405      	str	r4, [sp, #20]
 800a1ec:	ea84 75e4 	eor.w	r5, r4, r4, asr #31
 800a1f0:	eba5 75e4 	sub.w	r5, r5, r4, asr #31
 800a1f4:	f846 9c10 	str.w	r9, [r6, #-16]
 800a1f8:	9958      	ldr	r1, [sp, #352]	; 0x160
 800a1fa:	951c      	str	r5, [sp, #112]	; 0x70
 800a1fc:	008d      	lsls	r5, r1, #2
 800a1fe:	f8ca 5600 	str.w	r5, [sl, #1536]	; 0x600
 800a202:	4649      	mov	r1, r9
 800a204:	9504      	str	r5, [sp, #16]
 800a206:	ea85 71e5 	eor.w	r1, r5, r5, asr #31
 800a20a:	eba1 71e5 	sub.w	r1, r1, r5, asr #31
 800a20e:	9859      	ldr	r0, [sp, #356]	; 0x164
 800a210:	911d      	str	r1, [sp, #116]	; 0x74
 800a212:	ea83 0080 	eor.w	r0, r3, r0, lsl #2
 800a216:	4410      	add	r0, r2
 800a218:	f8ca 0680 	str.w	r0, [sl, #1664]	; 0x680
 800a21c:	4649      	mov	r1, r9
 800a21e:	ea80 71e0 	eor.w	r1, r0, r0, asr #31
 800a222:	eba1 71e0 	sub.w	r1, r1, r0, asr #31
 800a226:	f846 9c0c 	str.w	r9, [r6, #-12]
 800a22a:	9f5a      	ldr	r7, [sp, #360]	; 0x168
 800a22c:	911e      	str	r1, [sp, #120]	; 0x78
 800a22e:	00b9      	lsls	r1, r7, #2
 800a230:	f8ca 1700 	str.w	r1, [sl, #1792]	; 0x700
 800a234:	464d      	mov	r5, r9
 800a236:	9103      	str	r1, [sp, #12]
 800a238:	ea81 75e1 	eor.w	r5, r1, r1, asr #31
 800a23c:	eba5 75e1 	sub.w	r5, r5, r1, asr #31
 800a240:	995b      	ldr	r1, [sp, #364]	; 0x16c
 800a242:	951f      	str	r5, [sp, #124]	; 0x7c
 800a244:	ea83 0181 	eor.w	r1, r3, r1, lsl #2
 800a248:	4411      	add	r1, r2
 800a24a:	f8ca 1780 	str.w	r1, [sl, #1920]	; 0x780
 800a24e:	ea81 7ce1 	eor.w	ip, r1, r1, asr #31
 800a252:	ebac 7ce1 	sub.w	ip, ip, r1, asr #31
 800a256:	f846 9c08 	str.w	r9, [r6, #-8]
 800a25a:	9c5c      	ldr	r4, [sp, #368]	; 0x170
 800a25c:	00a4      	lsls	r4, r4, #2
 800a25e:	f8ca 4800 	str.w	r4, [sl, #2048]	; 0x800
 800a262:	46ce      	mov	lr, r9
 800a264:	ea84 7ee4 	eor.w	lr, r4, r4, asr #31
 800a268:	ebae 7ee4 	sub.w	lr, lr, r4, asr #31
 800a26c:	9d5d      	ldr	r5, [sp, #372]	; 0x174
 800a26e:	ea83 0385 	eor.w	r3, r3, r5, lsl #2
 800a272:	441a      	add	r2, r3
 800a274:	f8ca 2880 	str.w	r2, [sl, #2176]	; 0x880
 800a278:	464d      	mov	r5, r9
 800a27a:	ea82 75e2 	eor.w	r5, r2, r2, asr #31
 800a27e:	eba5 75e2 	sub.w	r5, r5, r2, asr #31
 800a282:	9f0d      	ldr	r7, [sp, #52]	; 0x34
 800a284:	9b0f      	ldr	r3, [sp, #60]	; 0x3c
 800a286:	433b      	orrs	r3, r7
 800a288:	9f12      	ldr	r7, [sp, #72]	; 0x48
 800a28a:	ea47 0808 	orr.w	r8, r7, r8
 800a28e:	9f0a      	ldr	r7, [sp, #40]	; 0x28
 800a290:	433b      	orrs	r3, r7
 800a292:	9f13      	ldr	r7, [sp, #76]	; 0x4c
 800a294:	ea48 0807 	orr.w	r8, r8, r7
 800a298:	9f08      	ldr	r7, [sp, #32]
 800a29a:	433b      	orrs	r3, r7
 800a29c:	9f14      	ldr	r7, [sp, #80]	; 0x50
 800a29e:	ea48 0807 	orr.w	r8, r8, r7
 800a2a2:	9f06      	ldr	r7, [sp, #24]
 800a2a4:	433b      	orrs	r3, r7
 800a2a6:	9f15      	ldr	r7, [sp, #84]	; 0x54
 800a2a8:	ea48 0807 	orr.w	r8, r8, r7
 800a2ac:	9f04      	ldr	r7, [sp, #16]
 800a2ae:	433b      	orrs	r3, r7
 800a2b0:	9f16      	ldr	r7, [sp, #88]	; 0x58
 800a2b2:	ea48 0807 	orr.w	r8, r8, r7
 800a2b6:	9f03      	ldr	r7, [sp, #12]
 800a2b8:	433b      	orrs	r3, r7
 800a2ba:	9f17      	ldr	r7, [sp, #92]	; 0x5c
 800a2bc:	4323      	orrs	r3, r4
 800a2be:	9c0e      	ldr	r4, [sp, #56]	; 0x38
 800a2c0:	ea48 0807 	orr.w	r8, r8, r7
 800a2c4:	9f18      	ldr	r7, [sp, #96]	; 0x60
 800a2c6:	4323      	orrs	r3, r4
 800a2c8:	9c0b      	ldr	r4, [sp, #44]	; 0x2c
 800a2ca:	ea48 0807 	orr.w	r8, r8, r7
 800a2ce:	9f19      	ldr	r7, [sp, #100]	; 0x64
 800a2d0:	4323      	orrs	r3, r4
 800a2d2:	9c09      	ldr	r4, [sp, #36]	; 0x24
 800a2d4:	ea48 0807 	orr.w	r8, r8, r7
 800a2d8:	9f1a      	ldr	r7, [sp, #104]	; 0x68
 800a2da:	4323      	orrs	r3, r4
 800a2dc:	9c07      	ldr	r4, [sp, #28]
 800a2de:	ea48 0807 	orr.w	r8, r8, r7
 800a2e2:	9f1b      	ldr	r7, [sp, #108]	; 0x6c
 800a2e4:	4323      	orrs	r3, r4
 800a2e6:	9c05      	ldr	r4, [sp, #20]
 800a2e8:	ea48 0807 	orr.w	r8, r8, r7
 800a2ec:	9f1c      	ldr	r7, [sp, #112]	; 0x70
 800a2ee:	4323      	orrs	r3, r4
 800a2f0:	9c1d      	ldr	r4, [sp, #116]	; 0x74
 800a2f2:	ea48 0807 	orr.w	r8, r8, r7
 800a2f6:	ea48 0804 	orr.w	r8, r8, r4
 800a2fa:	9c1e      	ldr	r4, [sp, #120]	; 0x78
 800a2fc:	4303      	orrs	r3, r0
 800a2fe:	ea48 0804 	orr.w	r8, r8, r4
 800a302:	430b      	orrs	r3, r1
 800a304:	9c1f      	ldr	r4, [sp, #124]	; 0x7c
 800a306:	9910      	ldr	r1, [sp, #64]	; 0x40
 800a308:	9802      	ldr	r0, [sp, #8]
 800a30a:	4313      	orrs	r3, r2
 800a30c:	9a11      	ldr	r2, [sp, #68]	; 0x44
 800a30e:	ea48 0804 	orr.w	r8, r8, r4
 800a312:	4313      	orrs	r3, r2
 800a314:	ea48 080c 	orr.w	r8, r8, ip
 800a318:	430b      	orrs	r3, r1
 800a31a:	ea48 080e 	orr.w	r8, r8, lr
 800a31e:	9b01      	ldr	r3, [sp, #4]
 800a320:	ea48 0505 	orr.w	r5, r8, r5
 800a324:	ea43 0305 	orr.w	r3, r3, r5
 800a328:	9301      	str	r3, [sp, #4]
 800a32a:	9b00      	ldr	r3, [sp, #0]
 800a32c:	bf18      	it	ne
 800a32e:	4603      	movne	r3, r0
 800a330:	9300      	str	r3, [sp, #0]
 800a332:	9a25      	ldr	r2, [sp, #148]	; 0x94
 800a334:	f846 9c04 	str.w	r9, [r6, #-4]
 800a338:	1c43      	adds	r3, r0, #1
 800a33a:	429a      	cmp	r2, r3
 800a33c:	9302      	str	r3, [sp, #8]
 800a33e:	f106 0624 	add.w	r6, r6, #36	; 0x24
 800a342:	dd79      	ble.n	800a438 <xmp3_IMDCT+0x1fc4>
 800a344:	9b0c      	ldr	r3, [sp, #48]	; 0x30
 800a346:	2b02      	cmp	r3, #2
 800a348:	f1a6 0024 	sub.w	r0, r6, #36	; 0x24
 800a34c:	f43f aeb1 	beq.w	800a0b2 <xmp3_IMDCT+0x1c3e>
 800a350:	f856 1c24 	ldr.w	r1, [r6, #-36]
 800a354:	f8db 208c 	ldr.w	r2, [fp, #140]	; 0x8c
 800a358:	f8db 0048 	ldr.w	r0, [fp, #72]	; 0x48
 800a35c:	460b      	mov	r3, r1
 800a35e:	fb80 4303 	smull	r4, r3, r0, r3
 800a362:	934c      	str	r3, [sp, #304]	; 0x130
 800a364:	fb82 0101 	smull	r0, r1, r2, r1
 800a368:	915d      	str	r1, [sp, #372]	; 0x174
 800a36a:	f856 4c20 	ldr.w	r4, [r6, #-32]
 800a36e:	f8db 1088 	ldr.w	r1, [fp, #136]	; 0x88
 800a372:	f8db 004c 	ldr.w	r0, [fp, #76]	; 0x4c
 800a376:	4622      	mov	r2, r4
 800a378:	fb80 5202 	smull	r5, r2, r0, r2
 800a37c:	924d      	str	r2, [sp, #308]	; 0x134
 800a37e:	fb81 0404 	smull	r0, r4, r1, r4
 800a382:	945c      	str	r4, [sp, #368]	; 0x170
 800a384:	f856 4c1c 	ldr.w	r4, [r6, #-28]
 800a388:	f8db 1084 	ldr.w	r1, [fp, #132]	; 0x84
 800a38c:	f8db 0050 	ldr.w	r0, [fp, #80]	; 0x50
 800a390:	4625      	mov	r5, r4
 800a392:	fb80 7505 	smull	r7, r5, r0, r5
 800a396:	954e      	str	r5, [sp, #312]	; 0x138
 800a398:	fb81 0404 	smull	r0, r4, r1, r4
 800a39c:	945b      	str	r4, [sp, #364]	; 0x16c
 800a39e:	f856 4c18 	ldr.w	r4, [r6, #-24]
 800a3a2:	f8db 1080 	ldr.w	r1, [fp, #128]	; 0x80
 800a3a6:	f8db 0054 	ldr.w	r0, [fp, #84]	; 0x54
 800a3aa:	4625      	mov	r5, r4
 800a3ac:	fb80 7505 	smull	r7, r5, r0, r5
 800a3b0:	954f      	str	r5, [sp, #316]	; 0x13c
 800a3b2:	fb81 0404 	smull	r0, r4, r1, r4
 800a3b6:	945a      	str	r4, [sp, #360]	; 0x168
 800a3b8:	f856 4c14 	ldr.w	r4, [r6, #-20]
 800a3bc:	f8db 107c 	ldr.w	r1, [fp, #124]	; 0x7c
 800a3c0:	f8db 0058 	ldr.w	r0, [fp, #88]	; 0x58
 800a3c4:	4625      	mov	r5, r4
 800a3c6:	fb80 7505 	smull	r7, r5, r0, r5
 800a3ca:	9550      	str	r5, [sp, #320]	; 0x140
 800a3cc:	fb81 0404 	smull	r0, r4, r1, r4
 800a3d0:	9459      	str	r4, [sp, #356]	; 0x164
 800a3d2:	f856 4c10 	ldr.w	r4, [r6, #-16]
 800a3d6:	f8db 1078 	ldr.w	r1, [fp, #120]	; 0x78
 800a3da:	f8db 005c 	ldr.w	r0, [fp, #92]	; 0x5c
 800a3de:	4625      	mov	r5, r4
 800a3e0:	fb80 7505 	smull	r7, r5, r0, r5
 800a3e4:	9551      	str	r5, [sp, #324]	; 0x144
 800a3e6:	fb81 0404 	smull	r0, r4, r1, r4
 800a3ea:	9458      	str	r4, [sp, #352]	; 0x160
 800a3ec:	f856 4c0c 	ldr.w	r4, [r6, #-12]
 800a3f0:	f8db 1074 	ldr.w	r1, [fp, #116]	; 0x74
 800a3f4:	f8db 0060 	ldr.w	r0, [fp, #96]	; 0x60
 800a3f8:	4625      	mov	r5, r4
 800a3fa:	fb80 7505 	smull	r7, r5, r0, r5
 800a3fe:	9552      	str	r5, [sp, #328]	; 0x148
 800a400:	fb81 0404 	smull	r0, r4, r1, r4
 800a404:	9457      	str	r4, [sp, #348]	; 0x15c
 800a406:	f856 4c08 	ldr.w	r4, [r6, #-8]
 800a40a:	f8db 1070 	ldr.w	r1, [fp, #112]	; 0x70
 800a40e:	f8db 0064 	ldr.w	r0, [fp, #100]	; 0x64
 800a412:	4625      	mov	r5, r4
 800a414:	fb80 7505 	smull	r7, r5, r0, r5
 800a418:	9553      	str	r5, [sp, #332]	; 0x14c
 800a41a:	fb81 0404 	smull	r0, r4, r1, r4
 800a41e:	9456      	str	r4, [sp, #344]	; 0x158
 800a420:	f856 4c04 	ldr.w	r4, [r6, #-4]
 800a424:	e9db 011a 	ldrd	r0, r1, [fp, #104]	; 0x68
 800a428:	4625      	mov	r5, r4
 800a42a:	fb80 7505 	smull	r7, r5, r0, r5
 800a42e:	9554      	str	r5, [sp, #336]	; 0x150
 800a430:	fb81 0404 	smull	r0, r4, r1, r4
 800a434:	9455      	str	r4, [sp, #340]	; 0x154
 800a436:	e641      	b.n	800a0bc <xmp3_IMDCT+0x1c48>
 800a438:	4613      	mov	r3, r2
 800a43a:	2b1f      	cmp	r3, #31
 800a43c:	dc10      	bgt.n	800a460 <xmp3_IMDCT+0x1fec>
 800a43e:	4618      	mov	r0, r3
 800a440:	9b32      	ldr	r3, [sp, #200]	; 0xc8
 800a442:	2100      	movs	r1, #0
 800a444:	eb03 0280 	add.w	r2, r3, r0, lsl #2
 800a448:	2300      	movs	r3, #0
 800a44a:	f842 1023 	str.w	r1, [r2, r3, lsl #2]
 800a44e:	3320      	adds	r3, #32
 800a450:	f5b3 7f10 	cmp.w	r3, #576	; 0x240
 800a454:	d1f9      	bne.n	800a44a <xmp3_IMDCT+0x1fd6>
 800a456:	3001      	adds	r0, #1
 800a458:	2820      	cmp	r0, #32
 800a45a:	f102 0204 	add.w	r2, r2, #4
 800a45e:	d1f3      	bne.n	800a448 <xmp3_IMDCT+0x1fd4>
 800a460:	9b01      	ldr	r3, [sp, #4]
 800a462:	2b00      	cmp	r3, #0
 800a464:	d03a      	beq.n	800a4dc <xmp3_IMDCT+0x2068>
 800a466:	db56      	blt.n	800a516 <xmp3_IMDCT+0x20a2>
 800a468:	4619      	mov	r1, r3
 800a46a:	2300      	movs	r3, #0
 800a46c:	0049      	lsls	r1, r1, #1
 800a46e:	461a      	mov	r2, r3
 800a470:	f103 0301 	add.w	r3, r3, #1
 800a474:	d5fa      	bpl.n	800a46c <xmp3_IMDCT+0x1ff8>
 800a476:	e9dd 1336 	ldrd	r1, r3, [sp, #216]	; 0xd8
 800a47a:	440b      	add	r3, r1
 800a47c:	e9dd 0133 	ldrd	r0, r1, [sp, #204]	; 0xcc
 800a480:	011b      	lsls	r3, r3, #4
 800a482:	4401      	add	r1, r0
 800a484:	eb03 03c1 	add.w	r3, r3, r1, lsl #3
 800a488:	9935      	ldr	r1, [sp, #212]	; 0xd4
 800a48a:	9c38      	ldr	r4, [sp, #224]	; 0xe0
 800a48c:	9800      	ldr	r0, [sp, #0]
 800a48e:	f8c4 0b00 	str.w	r0, [r4, #2816]	; 0xb00
 800a492:	4419      	add	r1, r3
 800a494:	2000      	movs	r0, #0
 800a496:	6bcb      	ldr	r3, [r1, #60]	; 0x3c
 800a498:	f8c4 3b08 	str.w	r3, [r4, #2824]	; 0xb08
 800a49c:	9b31      	ldr	r3, [sp, #196]	; 0xc4
 800a49e:	f8c4 3b10 	str.w	r3, [r4, #2832]	; 0xb10
 800a4a2:	f8c4 2b18 	str.w	r2, [r4, #2840]	; 0xb18
 800a4a6:	b05f      	add	sp, #380	; 0x17c
 800a4a8:	e8bd 8ff0 	ldmia.w	sp!, {r4, r5, r6, r7, r8, r9, sl, fp, pc}
 800a4ac:	f8df 8074 	ldr.w	r8, [pc, #116]	; 800a524 <xmp3_IMDCT+0x20b0>
 800a4b0:	9100      	str	r1, [sp, #0]
 800a4b2:	e5ee      	b.n	800a092 <xmp3_IMDCT+0x1c1e>
 800a4b4:	f8dd b0ac 	ldr.w	fp, [sp, #172]	; 0xac
 800a4b8:	9300      	str	r3, [sp, #0]
 800a4ba:	f7ff b876 	b.w	80095aa <xmp3_IMDCT+0x1136>
 800a4be:	6c1b      	ldr	r3, [r3, #64]	; 0x40
 800a4c0:	932c      	str	r3, [sp, #176]	; 0xb0
 800a4c2:	b16b      	cbz	r3, 800a4e0 <xmp3_IMDCT+0x206c>
 800a4c4:	9831      	ldr	r0, [sp, #196]	; 0xc4
 800a4c6:	902c      	str	r0, [sp, #176]	; 0xb0
 800a4c8:	1e43      	subs	r3, r0, #1
 800a4ca:	2112      	movs	r1, #18
 800a4cc:	b21b      	sxth	r3, r3
 800a4ce:	2208      	movs	r2, #8
 800a4d0:	fb13 2201 	smlabb	r2, r3, r1, r2
 800a4d4:	920f      	str	r2, [sp, #60]	; 0x3c
 800a4d6:	4631      	mov	r1, r6
 800a4d8:	f7fe bb40 	b.w	8008b5c <xmp3_IMDCT+0x6e8>
 800a4dc:	221f      	movs	r2, #31
 800a4de:	e7ca      	b.n	800a476 <xmp3_IMDCT+0x2002>
 800a4e0:	0213      	lsls	r3, r2, #8
 800a4e2:	930e      	str	r3, [sp, #56]	; 0x38
 800a4e4:	9b0c      	ldr	r3, [sp, #48]	; 0x30
 800a4e6:	eb03 2302 	add.w	r3, r3, r2, lsl #8
 800a4ea:	2208      	movs	r2, #8
 800a4ec:	930a      	str	r3, [sp, #40]	; 0x28
 800a4ee:	920f      	str	r2, [sp, #60]	; 0x3c
 800a4f0:	9b2c      	ldr	r3, [sp, #176]	; 0xb0
 800a4f2:	4630      	mov	r0, r6
 800a4f4:	f7fe b8fe 	b.w	80086f4 <xmp3_IMDCT+0x280>
 800a4f8:	9302      	str	r3, [sp, #8]
 800a4fa:	9a25      	ldr	r2, [sp, #148]	; 0x94
 800a4fc:	9902      	ldr	r1, [sp, #8]
 800a4fe:	428a      	cmp	r2, r1
 800a500:	f73f abce 	bgt.w	8009ca0 <xmp3_IMDCT+0x182c>
 800a504:	460b      	mov	r3, r1
 800a506:	9125      	str	r1, [sp, #148]	; 0x94
 800a508:	9100      	str	r1, [sp, #0]
 800a50a:	e796      	b.n	800a43a <xmp3_IMDCT+0x1fc6>
 800a50c:	2300      	movs	r3, #0
 800a50e:	932c      	str	r3, [sp, #176]	; 0xb0
 800a510:	9301      	str	r3, [sp, #4]
 800a512:	f7fe bcbe 	b.w	8008e92 <xmp3_IMDCT+0xa1e>
 800a516:	f04f 32ff 	mov.w	r2, #4294967295
 800a51a:	e7ac      	b.n	800a476 <xmp3_IMDCT+0x2002>
 800a51c:	f04f 30ff 	mov.w	r0, #4294967295
 800a520:	e7c1      	b.n	800a4a6 <xmp3_IMDCT+0x2032>
 800a522:	bf00      	nop
 800a524:	080140d0 	.word	0x080140d0

0800a528 <MP3InitDecoder>:
 800a528:	f7fb bf9c 	b.w	8006464 <xmp3_AllocateBuffers>

0800a52c <MP3FreeDecoder>:
 800a52c:	b108      	cbz	r0, 800a532 <MP3FreeDecoder+0x6>
 800a52e:	f7fb bf73 	b.w	8006418 <xmp3_FreeBuffers>
 800a532:	4770      	bx	lr

0800a534 <MP3FindSyncWord>:
 800a534:	2901      	cmp	r1, #1
 800a536:	dd13      	ble.n	800a560 <MP3FindSyncWord+0x2c>
 800a538:	1e82      	subs	r2, r0, #2
 800a53a:	eb02 0c01 	add.w	ip, r2, r1
 800a53e:	1e43      	subs	r3, r0, #1
 800a540:	f1c0 0101 	rsb	r1, r0, #1
 800a544:	e001      	b.n	800a54a <MP3FindSyncWord+0x16>
 800a546:	4563      	cmp	r3, ip
 800a548:	d00a      	beq.n	800a560 <MP3FindSyncWord+0x2c>
 800a54a:	18c8      	adds	r0, r1, r3
 800a54c:	f813 2f01 	ldrb.w	r2, [r3, #1]!
 800a550:	2aff      	cmp	r2, #255	; 0xff
 800a552:	d1f8      	bne.n	800a546 <MP3FindSyncWord+0x12>
 800a554:	785a      	ldrb	r2, [r3, #1]
 800a556:	f002 02e0 	and.w	r2, r2, #224	; 0xe0
 800a55a:	2ae0      	cmp	r2, #224	; 0xe0
 800a55c:	d1f3      	bne.n	800a546 <MP3FindSyncWord+0x12>
 800a55e:	4770      	bx	lr
 800a560:	f04f 30ff 	mov.w	r0, #4294967295
 800a564:	4770      	bx	lr
 800a566:	bf00      	nop

0800a568 <MP3Decode>:
 800a568:	2800      	cmp	r0, #0
 800a56a:	f000 81d8 	beq.w	800a91e <MP3Decode+0x3b6>
 800a56e:	e92d 4ff0 	stmdb	sp!, {r4, r5, r6, r7, r8, r9, sl, fp, lr}
 800a572:	ed2d 8b02 	vpush	{d8}
 800a576:	460f      	mov	r7, r1
 800a578:	b087      	sub	sp, #28
 800a57a:	6809      	ldr	r1, [r1, #0]
 800a57c:	ee08 3a10 	vmov	s16, r3
 800a580:	4692      	mov	sl, r2
 800a582:	4681      	mov	r9, r0
 800a584:	f7fa fe00 	bl	8005188 <xmp3_UnpackFrameHeader>
 800a588:	f1b0 0800 	subs.w	r8, r0, #0
 800a58c:	f2c0 81c4 	blt.w	800a918 <MP3Decode+0x3b0>
 800a590:	6839      	ldr	r1, [r7, #0]
 800a592:	4441      	add	r1, r8
 800a594:	6039      	str	r1, [r7, #0]
 800a596:	4648      	mov	r0, r9
 800a598:	f7fa fed2 	bl	8005340 <xmp3_UnpackSideInfo>
 800a59c:	f1b0 0e00 	subs.w	lr, r0, #0
 800a5a0:	f2c0 8200 	blt.w	800a9a4 <MP3Decode+0x43c>
 800a5a4:	f8da 3000 	ldr.w	r3, [sl]
 800a5a8:	683a      	ldr	r2, [r7, #0]
 800a5aa:	eb08 010e 	add.w	r1, r8, lr
 800a5ae:	1a59      	subs	r1, r3, r1
 800a5b0:	eb02 000e 	add.w	r0, r2, lr
 800a5b4:	6038      	str	r0, [r7, #0]
 800a5b6:	f8ca 1000 	str.w	r1, [sl]
 800a5ba:	f8d9 37b8 	ldr.w	r3, [r9, #1976]	; 0x7b8
 800a5be:	2b00      	cmp	r3, #0
 800a5c0:	f000 808d 	beq.w	800a6de <MP3Decode+0x176>
 800a5c4:	f8d9 37b0 	ldr.w	r3, [r9, #1968]	; 0x7b0
 800a5c8:	b14b      	cbz	r3, 800a5de <MP3Decode+0x76>
 800a5ca:	f8d9 47b4 	ldr.w	r4, [r9, #1972]	; 0x7b4
 800a5ce:	4648      	mov	r0, r9
 800a5d0:	f7fa fdce 	bl	8005170 <xmp3_CheckPadBit>
 800a5d4:	4420      	add	r0, r4
 800a5d6:	f8c9 07cc 	str.w	r0, [r9, #1996]	; 0x7cc
 800a5da:	f8da 1000 	ldr.w	r1, [sl]
 800a5de:	9b12      	ldr	r3, [sp, #72]	; 0x48
 800a5e0:	2b00      	cmp	r3, #0
 800a5e2:	f000 80ec 	beq.w	800a7be <MP3Decode+0x256>
 800a5e6:	f8d9 37d8 	ldr.w	r3, [r9, #2008]	; 0x7d8
 800a5ea:	f8c9 17cc 	str.w	r1, [r9, #1996]	; 0x7cc
 800a5ee:	2b00      	cmp	r3, #0
 800a5f0:	f040 8180 	bne.w	800a8f4 <MP3Decode+0x38c>
 800a5f4:	2900      	cmp	r1, #0
 800a5f6:	f340 817d 	ble.w	800a8f4 <MP3Decode+0x38c>
 800a5fa:	f8c9 17dc 	str.w	r1, [r9, #2012]	; 0x7dc
 800a5fe:	f8d7 8000 	ldr.w	r8, [r7]
 800a602:	f8da 3000 	ldr.w	r3, [sl]
 800a606:	1a5b      	subs	r3, r3, r1
 800a608:	4441      	add	r1, r8
 800a60a:	6039      	str	r1, [r7, #0]
 800a60c:	f8ca 3000 	str.w	r3, [sl]
 800a610:	f8d9 37c4 	ldr.w	r3, [r9, #1988]	; 0x7c4
 800a614:	f8d9 47dc 	ldr.w	r4, [r9, #2012]	; 0x7dc
 800a618:	2000      	movs	r0, #0
 800a61a:	4283      	cmp	r3, r0
 800a61c:	9005      	str	r0, [sp, #20]
 800a61e:	ea4f 04c4 	mov.w	r4, r4, lsl #3
 800a622:	dd57      	ble.n	800a6d4 <MP3Decode+0x16c>
 800a624:	f509 63fc 	add.w	r3, r9, #2016	; 0x7e0
 800a628:	4683      	mov	fp, r0
 800a62a:	9303      	str	r3, [sp, #12]
 800a62c:	f8d9 37bc 	ldr.w	r3, [r9, #1980]	; 0x7bc
 800a630:	2b00      	cmp	r3, #0
 800a632:	f340 80f3 	ble.w	800a81c <MP3Decode+0x2b4>
 800a636:	9b03      	ldr	r3, [sp, #12]
 800a638:	f8cd b008 	str.w	fp, [sp, #8]
 800a63c:	f04f 0a00 	mov.w	sl, #0
 800a640:	4657      	mov	r7, sl
 800a642:	9e05      	ldr	r6, [sp, #20]
 800a644:	46c3      	mov	fp, r8
 800a646:	469a      	mov	sl, r3
 800a648:	e018      	b.n	800a67c <MP3Decode+0x114>
 800a64a:	45a4      	cmp	ip, r4
 800a64c:	dc2e      	bgt.n	800a6ac <MP3Decode+0x144>
 800a64e:	9802      	ldr	r0, [sp, #8]
 800a650:	9701      	str	r7, [sp, #4]
 800a652:	9000      	str	r0, [sp, #0]
 800a654:	4648      	mov	r0, r9
 800a656:	f7fd f85d 	bl	8007714 <xmp3_DecodeHuffman>
 800a65a:	2800      	cmp	r0, #0
 800a65c:	f107 0701 	add.w	r7, r7, #1
 800a660:	ebc5 05c0 	rsb	r5, r5, r0, lsl #3
 800a664:	4483      	add	fp, r0
 800a666:	f2c0 810d 	blt.w	800a884 <MP3Decode+0x31c>
 800a66a:	9e05      	ldr	r6, [sp, #20]
 800a66c:	f8d9 37bc 	ldr.w	r3, [r9, #1980]	; 0x7bc
 800a670:	4435      	add	r5, r6
 800a672:	42bb      	cmp	r3, r7
 800a674:	eba8 0405 	sub.w	r4, r8, r5
 800a678:	f340 80cd 	ble.w	800a816 <MP3Decode+0x2ae>
 800a67c:	9802      	ldr	r0, [sp, #8]
 800a67e:	9000      	str	r0, [sp, #0]
 800a680:	4659      	mov	r1, fp
 800a682:	4623      	mov	r3, r4
 800a684:	aa05      	add	r2, sp, #20
 800a686:	9701      	str	r7, [sp, #4]
 800a688:	4648      	mov	r0, r9
 800a68a:	f000 f9cd 	bl	800aa28 <xmp3_UnpackScaleFactors>
 800a68e:	9d05      	ldr	r5, [sp, #20]
 800a690:	f85a cb04 	ldr.w	ip, [sl], #4
 800a694:	ebc6 08c0 	rsb	r8, r6, r0, lsl #3
 800a698:	44a8      	add	r8, r5
 800a69a:	4483      	add	fp, r0
 800a69c:	2800      	cmp	r0, #0
 800a69e:	ebac 0308 	sub.w	r3, ip, r8
 800a6a2:	aa05      	add	r2, sp, #20
 800a6a4:	4659      	mov	r1, fp
 800a6a6:	eba4 0808 	sub.w	r8, r4, r8
 800a6aa:	dace      	bge.n	800a64a <MP3Decode+0xe2>
 800a6ac:	f8d9 27c4 	ldr.w	r2, [r9, #1988]	; 0x7c4
 800a6b0:	f8d9 17c8 	ldr.w	r1, [r9, #1992]	; 0x7c8
 800a6b4:	f8d9 37bc 	ldr.w	r3, [r9, #1980]	; 0x7bc
 800a6b8:	fb01 f202 	mul.w	r2, r1, r2
 800a6bc:	fb03 f202 	mul.w	r2, r3, r2
 800a6c0:	2a00      	cmp	r2, #0
 800a6c2:	dd05      	ble.n	800a6d0 <MP3Decode+0x168>
 800a6c4:	ee18 0a10 	vmov	r0, s16
 800a6c8:	0052      	lsls	r2, r2, #1
 800a6ca:	2100      	movs	r1, #0
 800a6cc:	f002 fd78 	bl	800d1c0 <memset>
 800a6d0:	f06f 0007 	mvn.w	r0, #7
 800a6d4:	b007      	add	sp, #28
 800a6d6:	ecbd 8b02 	vpop	{d8}
 800a6da:	e8bd 8ff0 	ldmia.w	sp!, {r4, r5, r6, r7, r8, r9, sl, fp, pc}
 800a6de:	f8d9 37b0 	ldr.w	r3, [r9, #1968]	; 0x7b0
 800a6e2:	2b00      	cmp	r3, #0
 800a6e4:	f47f af71 	bne.w	800a5ca <MP3Decode+0x62>
 800a6e8:	2301      	movs	r3, #1
 800a6ea:	f8c9 37b0 	str.w	r3, [r9, #1968]	; 0x7b0
 800a6ee:	f8da 1000 	ldr.w	r1, [sl]
 800a6f2:	1e4e      	subs	r6, r1, #1
 800a6f4:	2e00      	cmp	r6, #0
 800a6f6:	eba2 0c08 	sub.w	ip, r2, r8
 800a6fa:	4603      	mov	r3, r0
 800a6fc:	dd19      	ble.n	800a732 <MP3Decode+0x1ca>
 800a6fe:	2500      	movs	r5, #0
 800a700:	e002      	b.n	800a708 <MP3Decode+0x1a0>
 800a702:	3501      	adds	r5, #1
 800a704:	42b5      	cmp	r5, r6
 800a706:	d014      	beq.n	800a732 <MP3Decode+0x1ca>
 800a708:	461c      	mov	r4, r3
 800a70a:	f813 2b01 	ldrb.w	r2, [r3], #1
 800a70e:	2aff      	cmp	r2, #255	; 0xff
 800a710:	d1f7      	bne.n	800a702 <MP3Decode+0x19a>
 800a712:	7862      	ldrb	r2, [r4, #1]
 800a714:	f002 02e0 	and.w	r2, r2, #224	; 0xe0
 800a718:	2ae0      	cmp	r2, #224	; 0xe0
 800a71a:	d1f2      	bne.n	800a702 <MP3Decode+0x19a>
 800a71c:	f89c 3000 	ldrb.w	r3, [ip]
 800a720:	2bff      	cmp	r3, #255	; 0xff
 800a722:	d024      	beq.n	800a76e <MP3Decode+0x206>
 800a724:	3503      	adds	r5, #3
 800a726:	1b49      	subs	r1, r1, r5
 800a728:	1e4e      	subs	r6, r1, #1
 800a72a:	2e00      	cmp	r6, #0
 800a72c:	f104 0303 	add.w	r3, r4, #3
 800a730:	dce5      	bgt.n	800a6fe <MP3Decode+0x196>
 800a732:	f04f 33ff 	mov.w	r3, #4294967295
 800a736:	f8c9 37b4 	str.w	r3, [r9, #1972]	; 0x7b4
 800a73a:	f8d9 27c8 	ldr.w	r2, [r9, #1992]	; 0x7c8
 800a73e:	f8d9 17c4 	ldr.w	r1, [r9, #1988]	; 0x7c4
 800a742:	f8d9 37bc 	ldr.w	r3, [r9, #1980]	; 0x7bc
 800a746:	fb01 f202 	mul.w	r2, r1, r2
 800a74a:	fb03 f202 	mul.w	r2, r3, r2
 800a74e:	2a00      	cmp	r2, #0
 800a750:	f340 80cd 	ble.w	800a8ee <MP3Decode+0x386>
 800a754:	ee18 0a10 	vmov	r0, s16
 800a758:	0052      	lsls	r2, r2, #1
 800a75a:	2100      	movs	r1, #0
 800a75c:	f002 fd30 	bl	800d1c0 <memset>
 800a760:	f06f 0002 	mvn.w	r0, #2
 800a764:	b007      	add	sp, #28
 800a766:	ecbd 8b02 	vpop	{d8}
 800a76a:	e8bd 8ff0 	ldmia.w	sp!, {r4, r5, r6, r7, r8, r9, sl, fp, pc}
 800a76e:	7862      	ldrb	r2, [r4, #1]
 800a770:	f89c 3001 	ldrb.w	r3, [ip, #1]
 800a774:	429a      	cmp	r2, r3
 800a776:	d1d5      	bne.n	800a724 <MP3Decode+0x1bc>
 800a778:	f89c 2002 	ldrb.w	r2, [ip, #2]
 800a77c:	78a3      	ldrb	r3, [r4, #2]
 800a77e:	4053      	eors	r3, r2
 800a780:	f013 0ffc 	tst.w	r3, #252	; 0xfc
 800a784:	d1ce      	bne.n	800a724 <MP3Decode+0x1bc>
 800a786:	0793      	lsls	r3, r2, #30
 800a788:	bf48      	it	mi
 800a78a:	f104 34ff 	addmi.w	r4, r4, #4294967295
 800a78e:	1a24      	subs	r4, r4, r0
 800a790:	2c00      	cmp	r4, #0
 800a792:	f8c9 47b4 	str.w	r4, [r9, #1972]	; 0x7b4
 800a796:	dbd0      	blt.n	800a73a <MP3Decode+0x1d2>
 800a798:	f8d9 27c0 	ldr.w	r2, [r9, #1984]	; 0x7c0
 800a79c:	f8d9 17c8 	ldr.w	r1, [r9, #1992]	; 0x7c8
 800a7a0:	eb08 0304 	add.w	r3, r8, r4
 800a7a4:	4473      	add	r3, lr
 800a7a6:	fb02 f303 	mul.w	r3, r2, r3
 800a7aa:	f8d9 27c4 	ldr.w	r2, [r9, #1988]	; 0x7c4
 800a7ae:	00db      	lsls	r3, r3, #3
 800a7b0:	fb01 f202 	mul.w	r2, r1, r2
 800a7b4:	fb93 f3f2 	sdiv	r3, r3, r2
 800a7b8:	f8c9 37b8 	str.w	r3, [r9, #1976]	; 0x7b8
 800a7bc:	e707      	b.n	800a5ce <MP3Decode+0x66>
 800a7be:	f8d9 07cc 	ldr.w	r0, [r9, #1996]	; 0x7cc
 800a7c2:	4288      	cmp	r0, r1
 800a7c4:	f300 8103 	bgt.w	800a9ce <MP3Decode+0x466>
 800a7c8:	f8d9 37dc 	ldr.w	r3, [r9, #2012]	; 0x7dc
 800a7cc:	f8d9 27d8 	ldr.w	r2, [r9, #2008]	; 0x7d8
 800a7d0:	4293      	cmp	r3, r2
 800a7d2:	f2c0 80a7 	blt.w	800a924 <MP3Decode+0x3bc>
 800a7d6:	1a9b      	subs	r3, r3, r2
 800a7d8:	f109 081c 	add.w	r8, r9, #28
 800a7dc:	eb08 0103 	add.w	r1, r8, r3
 800a7e0:	4640      	mov	r0, r8
 800a7e2:	f002 fcd3 	bl	800d18c <memmove>
 800a7e6:	f8d9 07d8 	ldr.w	r0, [r9, #2008]	; 0x7d8
 800a7ea:	f8d9 27cc 	ldr.w	r2, [r9, #1996]	; 0x7cc
 800a7ee:	6839      	ldr	r1, [r7, #0]
 800a7f0:	4440      	add	r0, r8
 800a7f2:	f002 fcbd 	bl	800d170 <memcpy>
 800a7f6:	f8d9 27cc 	ldr.w	r2, [r9, #1996]	; 0x7cc
 800a7fa:	f8d9 37d8 	ldr.w	r3, [r9, #2008]	; 0x7d8
 800a7fe:	4413      	add	r3, r2
 800a800:	f8c9 37dc 	str.w	r3, [r9, #2012]	; 0x7dc
 800a804:	683b      	ldr	r3, [r7, #0]
 800a806:	4413      	add	r3, r2
 800a808:	603b      	str	r3, [r7, #0]
 800a80a:	f8da 3000 	ldr.w	r3, [sl]
 800a80e:	1a9b      	subs	r3, r3, r2
 800a810:	f8ca 3000 	str.w	r3, [sl]
 800a814:	e6fc      	b.n	800a610 <MP3Decode+0xa8>
 800a816:	46d8      	mov	r8, fp
 800a818:	f8dd b008 	ldr.w	fp, [sp, #8]
 800a81c:	4659      	mov	r1, fp
 800a81e:	4648      	mov	r0, r9
 800a820:	f7fc fb72 	bl	8006f08 <xmp3_Dequantize>
 800a824:	2800      	cmp	r0, #0
 800a826:	f2c0 80a8 	blt.w	800a97a <MP3Decode+0x412>
 800a82a:	f8d9 37bc 	ldr.w	r3, [r9, #1980]	; 0x7bc
 800a82e:	2b00      	cmp	r3, #0
 800a830:	bfc8      	it	gt
 800a832:	2500      	movgt	r5, #0
 800a834:	dc04      	bgt.n	800a840 <MP3Decode+0x2d8>
 800a836:	e03e      	b.n	800a8b6 <MP3Decode+0x34e>
 800a838:	f8d9 37bc 	ldr.w	r3, [r9, #1980]	; 0x7bc
 800a83c:	42ab      	cmp	r3, r5
 800a83e:	dd3a      	ble.n	800a8b6 <MP3Decode+0x34e>
 800a840:	462a      	mov	r2, r5
 800a842:	4659      	mov	r1, fp
 800a844:	4648      	mov	r0, r9
 800a846:	f7fd fe15 	bl	8008474 <xmp3_IMDCT>
 800a84a:	2800      	cmp	r0, #0
 800a84c:	f105 0501 	add.w	r5, r5, #1
 800a850:	daf2      	bge.n	800a838 <MP3Decode+0x2d0>
 800a852:	f8d9 27c8 	ldr.w	r2, [r9, #1992]	; 0x7c8
 800a856:	f8d9 17c4 	ldr.w	r1, [r9, #1988]	; 0x7c4
 800a85a:	f8d9 37bc 	ldr.w	r3, [r9, #1980]	; 0x7bc
 800a85e:	fb01 f202 	mul.w	r2, r1, r2
 800a862:	fb03 f202 	mul.w	r2, r3, r2
 800a866:	2a00      	cmp	r2, #0
 800a868:	dd05      	ble.n	800a876 <MP3Decode+0x30e>
 800a86a:	ee18 0a10 	vmov	r0, s16
 800a86e:	0052      	lsls	r2, r2, #1
 800a870:	2100      	movs	r1, #0
 800a872:	f002 fca5 	bl	800d1c0 <memset>
 800a876:	f06f 000a 	mvn.w	r0, #10
 800a87a:	b007      	add	sp, #28
 800a87c:	ecbd 8b02 	vpop	{d8}
 800a880:	e8bd 8ff0 	ldmia.w	sp!, {r4, r5, r6, r7, r8, r9, sl, fp, pc}
 800a884:	f8d9 27c4 	ldr.w	r2, [r9, #1988]	; 0x7c4
 800a888:	f8d9 17c8 	ldr.w	r1, [r9, #1992]	; 0x7c8
 800a88c:	f8d9 37bc 	ldr.w	r3, [r9, #1980]	; 0x7bc
 800a890:	fb01 f202 	mul.w	r2, r1, r2
 800a894:	fb03 f202 	mul.w	r2, r3, r2
 800a898:	2a00      	cmp	r2, #0
 800a89a:	dd05      	ble.n	800a8a8 <MP3Decode+0x340>
 800a89c:	ee18 0a10 	vmov	r0, s16
 800a8a0:	0052      	lsls	r2, r2, #1
 800a8a2:	2100      	movs	r1, #0
 800a8a4:	f002 fc8c 	bl	800d1c0 <memset>
 800a8a8:	f06f 0008 	mvn.w	r0, #8
 800a8ac:	b007      	add	sp, #28
 800a8ae:	ecbd 8b02 	vpop	{d8}
 800a8b2:	e8bd 8ff0 	ldmia.w	sp!, {r4, r5, r6, r7, r8, r9, sl, fp, pc}
 800a8b6:	f8d9 27c8 	ldr.w	r2, [r9, #1992]	; 0x7c8
 800a8ba:	fb02 f20b 	mul.w	r2, r2, fp
 800a8be:	fb02 f303 	mul.w	r3, r2, r3
 800a8c2:	ee18 2a10 	vmov	r2, s16
 800a8c6:	4648      	mov	r0, r9
 800a8c8:	eb02 0143 	add.w	r1, r2, r3, lsl #1
 800a8cc:	f001 f84a 	bl	800b964 <xmp3_Subband>
 800a8d0:	2800      	cmp	r0, #0
 800a8d2:	f2c0 8091 	blt.w	800a9f8 <MP3Decode+0x490>
 800a8d6:	9b03      	ldr	r3, [sp, #12]
 800a8d8:	3308      	adds	r3, #8
 800a8da:	9303      	str	r3, [sp, #12]
 800a8dc:	f8d9 37c4 	ldr.w	r3, [r9, #1988]	; 0x7c4
 800a8e0:	f10b 0b01 	add.w	fp, fp, #1
 800a8e4:	455b      	cmp	r3, fp
 800a8e6:	f73f aea1 	bgt.w	800a62c <MP3Decode+0xc4>
 800a8ea:	2000      	movs	r0, #0
 800a8ec:	e6f2      	b.n	800a6d4 <MP3Decode+0x16c>
 800a8ee:	f06f 0002 	mvn.w	r0, #2
 800a8f2:	e6ef      	b.n	800a6d4 <MP3Decode+0x16c>
 800a8f4:	f8d9 27c4 	ldr.w	r2, [r9, #1988]	; 0x7c4
 800a8f8:	f8d9 17c8 	ldr.w	r1, [r9, #1992]	; 0x7c8
 800a8fc:	f8d9 37bc 	ldr.w	r3, [r9, #1980]	; 0x7bc
 800a900:	fb01 f202 	mul.w	r2, r1, r2
 800a904:	fb03 f202 	mul.w	r2, r3, r2
 800a908:	2a00      	cmp	r2, #0
 800a90a:	dd05      	ble.n	800a918 <MP3Decode+0x3b0>
 800a90c:	ee18 0a10 	vmov	r0, s16
 800a910:	0052      	lsls	r2, r2, #1
 800a912:	2100      	movs	r1, #0
 800a914:	f002 fc54 	bl	800d1c0 <memset>
 800a918:	f06f 0005 	mvn.w	r0, #5
 800a91c:	e6da      	b.n	800a6d4 <MP3Decode+0x16c>
 800a91e:	f06f 0004 	mvn.w	r0, #4
 800a922:	4770      	bx	lr
 800a924:	4602      	mov	r2, r0
 800a926:	f109 001c 	add.w	r0, r9, #28
 800a92a:	6839      	ldr	r1, [r7, #0]
 800a92c:	4418      	add	r0, r3
 800a92e:	f002 fc1f 	bl	800d170 <memcpy>
 800a932:	f8d9 27cc 	ldr.w	r2, [r9, #1996]	; 0x7cc
 800a936:	f8d9 37dc 	ldr.w	r3, [r9, #2012]	; 0x7dc
 800a93a:	4413      	add	r3, r2
 800a93c:	f8c9 37dc 	str.w	r3, [r9, #2012]	; 0x7dc
 800a940:	683b      	ldr	r3, [r7, #0]
 800a942:	4413      	add	r3, r2
 800a944:	603b      	str	r3, [r7, #0]
 800a946:	f8da 3000 	ldr.w	r3, [sl]
 800a94a:	1a9b      	subs	r3, r3, r2
 800a94c:	f8ca 3000 	str.w	r3, [sl]
 800a950:	f8d9 27c4 	ldr.w	r2, [r9, #1988]	; 0x7c4
 800a954:	f8d9 17c8 	ldr.w	r1, [r9, #1992]	; 0x7c8
 800a958:	f8d9 37bc 	ldr.w	r3, [r9, #1980]	; 0x7bc
 800a95c:	fb01 f202 	mul.w	r2, r1, r2
 800a960:	fb03 f202 	mul.w	r2, r3, r2
 800a964:	2a00      	cmp	r2, #0
 800a966:	dd05      	ble.n	800a974 <MP3Decode+0x40c>
 800a968:	9912      	ldr	r1, [sp, #72]	; 0x48
 800a96a:	ee18 0a10 	vmov	r0, s16
 800a96e:	0052      	lsls	r2, r2, #1
 800a970:	f002 fc26 	bl	800d1c0 <memset>
 800a974:	f06f 0001 	mvn.w	r0, #1
 800a978:	e6ac      	b.n	800a6d4 <MP3Decode+0x16c>
 800a97a:	f8d9 27c8 	ldr.w	r2, [r9, #1992]	; 0x7c8
 800a97e:	f8d9 17c4 	ldr.w	r1, [r9, #1988]	; 0x7c4
 800a982:	f8d9 37bc 	ldr.w	r3, [r9, #1980]	; 0x7bc
 800a986:	fb01 f202 	mul.w	r2, r1, r2
 800a98a:	fb03 f202 	mul.w	r2, r3, r2
 800a98e:	2a00      	cmp	r2, #0
 800a990:	dd05      	ble.n	800a99e <MP3Decode+0x436>
 800a992:	ee18 0a10 	vmov	r0, s16
 800a996:	0052      	lsls	r2, r2, #1
 800a998:	2100      	movs	r1, #0
 800a99a:	f002 fc11 	bl	800d1c0 <memset>
 800a99e:	f06f 0009 	mvn.w	r0, #9
 800a9a2:	e697      	b.n	800a6d4 <MP3Decode+0x16c>
 800a9a4:	f8d9 27c4 	ldr.w	r2, [r9, #1988]	; 0x7c4
 800a9a8:	f8d9 17c8 	ldr.w	r1, [r9, #1992]	; 0x7c8
 800a9ac:	f8d9 37bc 	ldr.w	r3, [r9, #1980]	; 0x7bc
 800a9b0:	fb01 f202 	mul.w	r2, r1, r2
 800a9b4:	fb03 f202 	mul.w	r2, r3, r2
 800a9b8:	2a00      	cmp	r2, #0
 800a9ba:	dd05      	ble.n	800a9c8 <MP3Decode+0x460>
 800a9bc:	ee18 0a10 	vmov	r0, s16
 800a9c0:	0052      	lsls	r2, r2, #1
 800a9c2:	2100      	movs	r1, #0
 800a9c4:	f002 fbfc 	bl	800d1c0 <memset>
 800a9c8:	f06f 0006 	mvn.w	r0, #6
 800a9cc:	e682      	b.n	800a6d4 <MP3Decode+0x16c>
 800a9ce:	f8d9 27c4 	ldr.w	r2, [r9, #1988]	; 0x7c4
 800a9d2:	f8d9 17c8 	ldr.w	r1, [r9, #1992]	; 0x7c8
 800a9d6:	f8d9 37bc 	ldr.w	r3, [r9, #1980]	; 0x7bc
 800a9da:	fb01 f202 	mul.w	r2, r1, r2
 800a9de:	fb03 f202 	mul.w	r2, r3, r2
 800a9e2:	2a00      	cmp	r2, #0
 800a9e4:	dd05      	ble.n	800a9f2 <MP3Decode+0x48a>
 800a9e6:	9912      	ldr	r1, [sp, #72]	; 0x48
 800a9e8:	ee18 0a10 	vmov	r0, s16
 800a9ec:	0052      	lsls	r2, r2, #1
 800a9ee:	f002 fbe7 	bl	800d1c0 <memset>
 800a9f2:	f04f 30ff 	mov.w	r0, #4294967295
 800a9f6:	e66d      	b.n	800a6d4 <MP3Decode+0x16c>
 800a9f8:	f8d9 27c8 	ldr.w	r2, [r9, #1992]	; 0x7c8
 800a9fc:	f8d9 17c4 	ldr.w	r1, [r9, #1988]	; 0x7c4
 800aa00:	f8d9 37bc 	ldr.w	r3, [r9, #1980]	; 0x7bc
 800aa04:	fb01 f202 	mul.w	r2, r1, r2
 800aa08:	fb03 f202 	mul.w	r2, r3, r2
 800aa0c:	2a00      	cmp	r2, #0
 800aa0e:	dd05      	ble.n	800aa1c <MP3Decode+0x4b4>
 800aa10:	ee18 0a10 	vmov	r0, s16
 800aa14:	0052      	lsls	r2, r2, #1
 800aa16:	2100      	movs	r1, #0
 800aa18:	f002 fbd2 	bl	800d1c0 <memset>
 800aa1c:	f06f 000b 	mvn.w	r0, #11
 800aa20:	e658      	b.n	800a6d4 <MP3Decode+0x16c>
 800aa22:	bf00      	nop
 800aa24:	0000      	movs	r0, r0
	...

0800aa28 <xmp3_UnpackScaleFactors>:
 800aa28:	e92d 4ff0 	stmdb	sp!, {r4, r5, r6, r7, r8, r9, sl, fp, lr}
 800aa2c:	ed2d 8b02 	vpush	{d8}
 800aa30:	b097      	sub	sp, #92	; 0x5c
 800aa32:	f8dd 908c 	ldr.w	r9, [sp, #140]	; 0x8c
 800aa36:	9204      	str	r2, [sp, #16]
 800aa38:	9007      	str	r0, [sp, #28]
 800aa3a:	2800      	cmp	r0, #0
 800aa3c:	f000 840f 	beq.w	800b25e <xmp3_UnpackScaleFactors+0x836>
 800aa40:	6804      	ldr	r4, [r0, #0]
 800aa42:	ee08 1a10 	vmov	s16, r1
 800aa46:	4601      	mov	r1, r0
 800aa48:	2c00      	cmp	r4, #0
 800aa4a:	f000 8408 	beq.w	800b25e <xmp3_UnpackScaleFactors+0x836>
 800aa4e:	6840      	ldr	r0, [r0, #4]
 800aa50:	9001      	str	r0, [sp, #4]
 800aa52:	2800      	cmp	r0, #0
 800aa54:	f000 8403 	beq.w	800b25e <xmp3_UnpackScaleFactors+0x836>
 800aa58:	f8d1 a008 	ldr.w	sl, [r1, #8]
 800aa5c:	f1ba 0f00 	cmp.w	sl, #0
 800aa60:	f000 83fd 	beq.w	800b25e <xmp3_UnpackScaleFactors+0x836>
 800aa64:	6812      	ldr	r2, [r2, #0]
 800aa66:	4413      	add	r3, r2
 800aa68:	1dd9      	adds	r1, r3, #7
 800aa6a:	bf48      	it	mi
 800aa6c:	f103 010e 	addmi.w	r1, r3, #14
 800aa70:	10c9      	asrs	r1, r1, #3
 800aa72:	ee18 2a10 	vmov	r2, s16
 800aa76:	a80e      	add	r0, sp, #56	; 0x38
 800aa78:	f7fa fb02 	bl	8005080 <xmp3_SetBitstreamPointer>
 800aa7c:	9b04      	ldr	r3, [sp, #16]
 800aa7e:	6819      	ldr	r1, [r3, #0]
 800aa80:	2900      	cmp	r1, #0
 800aa82:	f040 8176 	bne.w	800ad72 <xmp3_UnpackScaleFactors+0x34a>
 800aa86:	7823      	ldrb	r3, [r4, #0]
 800aa88:	2b00      	cmp	r3, #0
 800aa8a:	f040 80a7 	bne.w	800abdc <xmp3_UnpackScaleFactors+0x1b4>
 800aa8e:	9b22      	ldr	r3, [sp, #136]	; 0x88
 800aa90:	eb03 03c3 	add.w	r3, r3, r3, lsl #3
 800aa94:	eb09 02c9 	add.w	r2, r9, r9, lsl #3
 800aa98:	011b      	lsls	r3, r3, #4
 800aa9a:	eb03 03c2 	add.w	r3, r3, r2, lsl #3
 800aa9e:	9a01      	ldr	r2, [sp, #4]
 800aaa0:	4413      	add	r3, r2
 800aaa2:	4ab6      	ldr	r2, [pc, #728]	; (800ad7c <xmp3_UnpackScaleFactors+0x354>)
 800aaa4:	6b58      	ldr	r0, [r3, #52]	; 0x34
 800aaa6:	6bd9      	ldr	r1, [r3, #60]	; 0x3c
 800aaa8:	f812 8010 	ldrb.w	r8, [r2, r0, lsl #1]
 800aaac:	eb02 0440 	add.w	r4, r2, r0, lsl #1
 800aab0:	ea4f 02c9 	mov.w	r2, r9, lsl #3
 800aab4:	9203      	str	r2, [sp, #12]
 800aab6:	9a22      	ldr	r2, [sp, #136]	; 0x88
 800aab8:	7865      	ldrb	r5, [r4, #1]
 800aaba:	00d2      	lsls	r2, r2, #3
 800aabc:	2902      	cmp	r1, #2
 800aabe:	9202      	str	r2, [sp, #8]
 800aac0:	f000 82f6 	beq.w	800b0b0 <xmp3_UnpackScaleFactors+0x688>
 800aac4:	9b22      	ldr	r3, [sp, #136]	; 0x88
 800aac6:	2b00      	cmp	r3, #0
 800aac8:	f000 8334 	beq.w	800b134 <xmp3_UnpackScaleFactors+0x70c>
 800aacc:	ea4f 1309 	mov.w	r3, r9, lsl #4
 800aad0:	9a01      	ldr	r2, [sp, #4]
 800aad2:	3308      	adds	r3, #8
 800aad4:	18d6      	adds	r6, r2, r3
 800aad6:	58d3      	ldr	r3, [r2, r3]
 800aad8:	2b00      	cmp	r3, #0
 800aada:	f000 818f 	beq.w	800adfc <xmp3_UnpackScaleFactors+0x3d4>
 800aade:	9b22      	ldr	r3, [sp, #136]	; 0x88
 800aae0:	9922      	ldr	r1, [sp, #136]	; 0x88
 800aae2:	ebc3 1243 	rsb	r2, r3, r3, lsl #5
 800aae6:	0092      	lsls	r2, r2, #2
 800aae8:	1e53      	subs	r3, r2, #1
 800aaea:	0149      	lsls	r1, r1, #5
 800aaec:	2b02      	cmp	r3, #2
 800aaee:	9106      	str	r1, [sp, #24]
 800aaf0:	f240 83c6 	bls.w	800b280 <xmp3_UnpackScaleFactors+0x858>
 800aaf4:	ebc9 1349 	rsb	r3, r9, r9, lsl #5
 800aaf8:	eb0a 0102 	add.w	r1, sl, r2
 800aafc:	f85a 0013 	ldr.w	r0, [sl, r3, lsl #1]
 800ab00:	f841 0013 	str.w	r0, [r1, r3, lsl #1]
 800ab04:	eb02 0243 	add.w	r2, r2, r3, lsl #1
 800ab08:	eb0a 0343 	add.w	r3, sl, r3, lsl #1
 800ab0c:	4452      	add	r2, sl
 800ab0e:	ea4f 1149 	mov.w	r1, r9, lsl #5
 800ab12:	9105      	str	r1, [sp, #20]
 800ab14:	7919      	ldrb	r1, [r3, #4]
 800ab16:	7111      	strb	r1, [r2, #4]
 800ab18:	795b      	ldrb	r3, [r3, #5]
 800ab1a:	7153      	strb	r3, [r2, #5]
 800ab1c:	6873      	ldr	r3, [r6, #4]
 800ab1e:	2b00      	cmp	r3, #0
 800ab20:	f000 818b 	beq.w	800ae3a <xmp3_UnpackScaleFactors+0x412>
 800ab24:	9b05      	ldr	r3, [sp, #20]
 800ab26:	9922      	ldr	r1, [sp, #136]	; 0x88
 800ab28:	eba3 0209 	sub.w	r2, r3, r9
 800ab2c:	9b06      	ldr	r3, [sp, #24]
 800ab2e:	0052      	lsls	r2, r2, #1
 800ab30:	1a5b      	subs	r3, r3, r1
 800ab32:	1e51      	subs	r1, r2, #1
 800ab34:	eb01 0183 	add.w	r1, r1, r3, lsl #2
 800ab38:	1a89      	subs	r1, r1, r2
 800ab3a:	2902      	cmp	r1, #2
 800ab3c:	ea4f 0383 	mov.w	r3, r3, lsl #2
 800ab40:	f240 8390 	bls.w	800b264 <xmp3_UnpackScaleFactors+0x83c>
 800ab44:	1d91      	adds	r1, r2, #6
 800ab46:	eb0a 0003 	add.w	r0, sl, r3
 800ab4a:	f85a 4001 	ldr.w	r4, [sl, r1]
 800ab4e:	5044      	str	r4, [r0, r1]
 800ab50:	4413      	add	r3, r2
 800ab52:	4452      	add	r2, sl
 800ab54:	4453      	add	r3, sl
 800ab56:	7a92      	ldrb	r2, [r2, #10]
 800ab58:	729a      	strb	r2, [r3, #10]
 800ab5a:	68b3      	ldr	r3, [r6, #8]
 800ab5c:	2b00      	cmp	r3, #0
 800ab5e:	f000 8187 	beq.w	800ae70 <xmp3_UnpackScaleFactors+0x448>
 800ab62:	9b05      	ldr	r3, [sp, #20]
 800ab64:	9922      	ldr	r1, [sp, #136]	; 0x88
 800ab66:	eba3 0209 	sub.w	r2, r3, r9
 800ab6a:	9b06      	ldr	r3, [sp, #24]
 800ab6c:	0052      	lsls	r2, r2, #1
 800ab6e:	1a5b      	subs	r3, r3, r1
 800ab70:	1e51      	subs	r1, r2, #1
 800ab72:	eb01 0183 	add.w	r1, r1, r3, lsl #2
 800ab76:	1a89      	subs	r1, r1, r2
 800ab78:	2902      	cmp	r1, #2
 800ab7a:	ea4f 0383 	mov.w	r3, r3, lsl #2
 800ab7e:	f240 83c7 	bls.w	800b310 <xmp3_UnpackScaleFactors+0x8e8>
 800ab82:	f102 010b 	add.w	r1, r2, #11
 800ab86:	eb0a 0001 	add.w	r0, sl, r1
 800ab8a:	f85a 1001 	ldr.w	r1, [sl, r1]
 800ab8e:	50c1      	str	r1, [r0, r3]
 800ab90:	4413      	add	r3, r2
 800ab92:	4452      	add	r2, sl
 800ab94:	4453      	add	r3, sl
 800ab96:	7bd2      	ldrb	r2, [r2, #15]
 800ab98:	73da      	strb	r2, [r3, #15]
 800ab9a:	68f3      	ldr	r3, [r6, #12]
 800ab9c:	2b00      	cmp	r3, #0
 800ab9e:	f000 82e7 	beq.w	800b170 <xmp3_UnpackScaleFactors+0x748>
 800aba2:	9b05      	ldr	r3, [sp, #20]
 800aba4:	9922      	ldr	r1, [sp, #136]	; 0x88
 800aba6:	eba3 0209 	sub.w	r2, r3, r9
 800abaa:	9b06      	ldr	r3, [sp, #24]
 800abac:	0052      	lsls	r2, r2, #1
 800abae:	1a5b      	subs	r3, r3, r1
 800abb0:	1e51      	subs	r1, r2, #1
 800abb2:	eb01 0183 	add.w	r1, r1, r3, lsl #2
 800abb6:	1a89      	subs	r1, r1, r2
 800abb8:	2902      	cmp	r1, #2
 800abba:	ea4f 0383 	mov.w	r3, r3, lsl #2
 800abbe:	f240 8399 	bls.w	800b2f4 <xmp3_UnpackScaleFactors+0x8cc>
 800abc2:	f102 0110 	add.w	r1, r2, #16
 800abc6:	eb0a 0001 	add.w	r0, sl, r1
 800abca:	f85a 1001 	ldr.w	r1, [sl, r1]
 800abce:	50c1      	str	r1, [r0, r3]
 800abd0:	4413      	add	r3, r2
 800abd2:	4452      	add	r2, sl
 800abd4:	4453      	add	r3, sl
 800abd6:	7d12      	ldrb	r2, [r2, #20]
 800abd8:	751a      	strb	r2, [r3, #20]
 800abda:	e097      	b.n	800ad0c <xmp3_UnpackScaleFactors+0x2e4>
 800abdc:	9b22      	ldr	r3, [sp, #136]	; 0x88
 800abde:	6a22      	ldr	r2, [r4, #32]
 800abe0:	eb03 03c3 	add.w	r3, r3, r3, lsl #3
 800abe4:	eb09 01c9 	add.w	r1, r9, r9, lsl #3
 800abe8:	011b      	lsls	r3, r3, #4
 800abea:	eb03 03c1 	add.w	r3, r3, r1, lsl #3
 800abee:	9901      	ldr	r1, [sp, #4]
 800abf0:	440b      	add	r3, r1
 800abf2:	ea4f 01c9 	mov.w	r1, r9, lsl #3
 800abf6:	9103      	str	r1, [sp, #12]
 800abf8:	9922      	ldr	r1, [sp, #136]	; 0x88
 800abfa:	6b5b      	ldr	r3, [r3, #52]	; 0x34
 800abfc:	00c9      	lsls	r1, r1, #3
 800abfe:	f012 0b01 	ands.w	fp, r2, #1
 800ac02:	9102      	str	r1, [sp, #8]
 800ac04:	d003      	beq.n	800ac0e <xmp3_UnpackScaleFactors+0x1e6>
 800ac06:	f1b9 0f01 	cmp.w	r9, #1
 800ac0a:	f000 816c 	beq.w	800aee6 <xmp3_UnpackScaleFactors+0x4be>
 800ac0e:	f5b3 7fc8 	cmp.w	r3, #400	; 0x190
 800ac12:	f280 80b7 	bge.w	800ad84 <xmp3_UnpackScaleFactors+0x35c>
 800ac16:	495a      	ldr	r1, [pc, #360]	; (800ad80 <xmp3_UnpackScaleFactors+0x358>)
 800ac18:	111a      	asrs	r2, r3, #4
 800ac1a:	fb81 1802 	smull	r1, r8, r1, r2
 800ac1e:	17d9      	asrs	r1, r3, #31
 800ac20:	ebc1 0868 	rsb	r8, r1, r8, asr #1
 800ac24:	eb08 0188 	add.w	r1, r8, r8, lsl #2
 800ac28:	1a52      	subs	r2, r2, r1
 800ac2a:	920b      	str	r2, [sp, #44]	; 0x2c
 800ac2c:	2203      	movs	r2, #3
 800ac2e:	e9cd 2205 	strd	r2, r2, [sp, #20]
 800ac32:	f3c3 0081 	ubfx	r0, r3, #2, #2
 800ac36:	2105      	movs	r1, #5
 800ac38:	4013      	ands	r3, r2
 800ac3a:	2700      	movs	r7, #0
 800ac3c:	900c      	str	r0, [sp, #48]	; 0x30
 800ac3e:	f8cd 8028 	str.w	r8, [sp, #40]	; 0x28
 800ac42:	930d      	str	r3, [sp, #52]	; 0x34
 800ac44:	4694      	mov	ip, r2
 800ac46:	9208      	str	r2, [sp, #32]
 800ac48:	4608      	mov	r0, r1
 800ac4a:	460e      	mov	r6, r1
 800ac4c:	2506      	movs	r5, #6
 800ac4e:	9209      	str	r2, [sp, #36]	; 0x24
 800ac50:	46be      	mov	lr, r7
 800ac52:	9c22      	ldr	r4, [sp, #136]	; 0x88
 800ac54:	9b02      	ldr	r3, [sp, #8]
 800ac56:	4423      	add	r3, r4
 800ac58:	9c03      	ldr	r4, [sp, #12]
 800ac5a:	011b      	lsls	r3, r3, #4
 800ac5c:	444c      	add	r4, r9
 800ac5e:	eb03 03c4 	add.w	r3, r3, r4, lsl #3
 800ac62:	9c01      	ldr	r4, [sp, #4]
 800ac64:	4423      	add	r3, r4
 800ac66:	6bdc      	ldr	r4, [r3, #60]	; 0x3c
 800ac68:	2c02      	cmp	r4, #2
 800ac6a:	f000 817b 	beq.w	800af64 <xmp3_UnpackScaleFactors+0x53c>
 800ac6e:	e9cd 5612 	strd	r5, r6, [sp, #72]	; 0x48
 800ac72:	e9cd 0114 	strd	r0, r1, [sp, #80]	; 0x50
 800ac76:	f1bb 0f00 	cmp.w	fp, #0
 800ac7a:	f000 80ba 	beq.w	800adf2 <xmp3_UnpackScaleFactors+0x3ca>
 800ac7e:	f1b9 0f01 	cmp.w	r9, #1
 800ac82:	f000 8155 	beq.w	800af30 <xmp3_UnpackScaleFactors+0x508>
 800ac86:	ae0a      	add	r6, sp, #40	; 0x28
 800ac88:	ad12      	add	r5, sp, #72	; 0x48
 800ac8a:	9a22      	ldr	r2, [sp, #136]	; 0x88
 800ac8c:	9b02      	ldr	r3, [sp, #8]
 800ac8e:	4413      	add	r3, r2
 800ac90:	9a03      	ldr	r2, [sp, #12]
 800ac92:	011b      	lsls	r3, r3, #4
 800ac94:	444a      	add	r2, r9
 800ac96:	eb03 03c2 	add.w	r3, r3, r2, lsl #3
 800ac9a:	9a01      	ldr	r2, [sp, #4]
 800ac9c:	4413      	add	r3, r2
 800ac9e:	2c02      	cmp	r4, #2
 800aca0:	f8c3 e064 	str.w	lr, [r3, #100]	; 0x64
 800aca4:	f000 817e 	beq.w	800afa4 <xmp3_UnpackScaleFactors+0x57c>
 800aca8:	9b22      	ldr	r3, [sp, #136]	; 0x88
 800acaa:	f8cd 908c 	str.w	r9, [sp, #140]	; 0x8c
 800acae:	ebc3 1343 	rsb	r3, r3, r3, lsl #5
 800acb2:	009a      	lsls	r2, r3, #2
 800acb4:	ebc9 1349 	rsb	r3, r9, r9, lsl #5
 800acb8:	eb02 0343 	add.w	r3, r2, r3, lsl #1
 800acbc:	ea4f 1249 	mov.w	r2, r9, lsl #5
 800acc0:	9205      	str	r2, [sp, #20]
 800acc2:	9a22      	ldr	r2, [sp, #136]	; 0x88
 800acc4:	9308      	str	r3, [sp, #32]
 800acc6:	0152      	lsls	r2, r2, #5
 800acc8:	4453      	add	r3, sl
 800acca:	9206      	str	r2, [sp, #24]
 800accc:	9309      	str	r3, [sp, #36]	; 0x24
 800acce:	2700      	movs	r7, #0
 800acd0:	46b0      	mov	r8, r6
 800acd2:	f855 6b04 	ldr.w	r6, [r5], #4
 800acd6:	2e00      	cmp	r6, #0
 800acd8:	dd11      	ble.n	800acfe <xmp3_UnpackScaleFactors+0x2d6>
 800acda:	9b08      	ldr	r3, [sp, #32]
 800acdc:	f8d8 9000 	ldr.w	r9, [r8]
 800ace0:	443b      	add	r3, r7
 800ace2:	eb0a 0b03 	add.w	fp, sl, r3
 800ace6:	9b09      	ldr	r3, [sp, #36]	; 0x24
 800ace8:	18fc      	adds	r4, r7, r3
 800acea:	4434      	add	r4, r6
 800acec:	4649      	mov	r1, r9
 800acee:	a80e      	add	r0, sp, #56	; 0x38
 800acf0:	f7fa f9cc 	bl	800508c <xmp3_GetBits>
 800acf4:	f80b 0b01 	strb.w	r0, [fp], #1
 800acf8:	45a3      	cmp	fp, r4
 800acfa:	d1f7      	bne.n	800acec <xmp3_UnpackScaleFactors+0x2c4>
 800acfc:	4437      	add	r7, r6
 800acfe:	ab16      	add	r3, sp, #88	; 0x58
 800ad00:	429d      	cmp	r5, r3
 800ad02:	f108 0804 	add.w	r8, r8, #4
 800ad06:	d1e4      	bne.n	800acd2 <xmp3_UnpackScaleFactors+0x2aa>
 800ad08:	f8dd 908c 	ldr.w	r9, [sp, #140]	; 0x8c
 800ad0c:	9a22      	ldr	r2, [sp, #136]	; 0x88
 800ad0e:	9b06      	ldr	r3, [sp, #24]
 800ad10:	1a9b      	subs	r3, r3, r2
 800ad12:	9a05      	ldr	r2, [sp, #20]
 800ad14:	009b      	lsls	r3, r3, #2
 800ad16:	eba2 0209 	sub.w	r2, r2, r9
 800ad1a:	eb03 0342 	add.w	r3, r3, r2, lsl #1
 800ad1e:	3315      	adds	r3, #21
 800ad20:	2200      	movs	r2, #0
 800ad22:	f82a 2003 	strh.w	r2, [sl, r3]
 800ad26:	9a22      	ldr	r2, [sp, #136]	; 0x88
 800ad28:	9b02      	ldr	r3, [sp, #8]
 800ad2a:	9907      	ldr	r1, [sp, #28]
 800ad2c:	9c04      	ldr	r4, [sp, #16]
 800ad2e:	4413      	add	r3, r2
 800ad30:	9a03      	ldr	r2, [sp, #12]
 800ad32:	011b      	lsls	r3, r3, #4
 800ad34:	444a      	add	r2, r9
 800ad36:	eb03 03c2 	add.w	r3, r3, r2, lsl #3
 800ad3a:	9a01      	ldr	r2, [sp, #4]
 800ad3c:	441a      	add	r2, r3
 800ad3e:	4613      	mov	r3, r2
 800ad40:	9a22      	ldr	r2, [sp, #136]	; 0x88
 800ad42:	6a9b      	ldr	r3, [r3, #40]	; 0x28
 800ad44:	eb09 0242 	add.w	r2, r9, r2, lsl #1
 800ad48:	f502 72fc 	add.w	r2, r2, #504	; 0x1f8
 800ad4c:	a80e      	add	r0, sp, #56	; 0x38
 800ad4e:	f841 3022 	str.w	r3, [r1, r2, lsl #2]
 800ad52:	ee18 1a10 	vmov	r1, s16
 800ad56:	6822      	ldr	r2, [r4, #0]
 800ad58:	f7fa fa00 	bl	800515c <xmp3_CalcBitsUsed>
 800ad5c:	6823      	ldr	r3, [r4, #0]
 800ad5e:	4418      	add	r0, r3
 800ad60:	f000 0307 	and.w	r3, r0, #7
 800ad64:	6023      	str	r3, [r4, #0]
 800ad66:	10c0      	asrs	r0, r0, #3
 800ad68:	b017      	add	sp, #92	; 0x5c
 800ad6a:	ecbd 8b02 	vpop	{d8}
 800ad6e:	e8bd 8ff0 	ldmia.w	sp!, {r4, r5, r6, r7, r8, r9, sl, fp, pc}
 800ad72:	a80e      	add	r0, sp, #56	; 0x38
 800ad74:	f7fa f98a 	bl	800508c <xmp3_GetBits>
 800ad78:	e685      	b.n	800aa86 <xmp3_UnpackScaleFactors+0x5e>
 800ad7a:	bf00      	nop
 800ad7c:	08013f28 	.word	0x08013f28
 800ad80:	66666667 	.word	0x66666667
 800ad84:	f5b3 7ffa 	cmp.w	r3, #500	; 0x1f4
 800ad88:	f2c0 808b 	blt.w	800aea2 <xmp3_UnpackScaleFactors+0x47a>
 800ad8c:	9922      	ldr	r1, [sp, #136]	; 0x88
 800ad8e:	9a02      	ldr	r2, [sp, #8]
 800ad90:	440a      	add	r2, r1
 800ad92:	49c5      	ldr	r1, [pc, #788]	; (800b0a8 <xmp3_UnpackScaleFactors+0x680>)
 800ad94:	f5a3 73fa 	sub.w	r3, r3, #500	; 0x1f4
 800ad98:	fba1 1803 	umull	r1, r8, r1, r3
 800ad9c:	9903      	ldr	r1, [sp, #12]
 800ad9e:	0112      	lsls	r2, r2, #4
 800ada0:	4449      	add	r1, r9
 800ada2:	eb02 02c1 	add.w	r2, r2, r1, lsl #3
 800ada6:	9901      	ldr	r1, [sp, #4]
 800ada8:	440a      	add	r2, r1
 800adaa:	ea4f 0858 	mov.w	r8, r8, lsr #1
 800adae:	6c10      	ldr	r0, [r2, #64]	; 0x40
 800adb0:	f8cd 8028 	str.w	r8, [sp, #40]	; 0x28
 800adb4:	eb08 0248 	add.w	r2, r8, r8, lsl #1
 800adb8:	1a9b      	subs	r3, r3, r2
 800adba:	2400      	movs	r4, #0
 800adbc:	2500      	movs	r5, #0
 800adbe:	e9cd 450c 	strd	r4, r5, [sp, #48]	; 0x30
 800adc2:	930b      	str	r3, [sp, #44]	; 0x2c
 800adc4:	2800      	cmp	r0, #0
 800adc6:	f000 8214 	beq.w	800b1f2 <xmp3_UnpackScaleFactors+0x7ca>
 800adca:	2200      	movs	r2, #0
 800adcc:	f04f 0c06 	mov.w	ip, #6
 800add0:	e9cd 830b 	strd	r8, r3, [sp, #44]	; 0x2c
 800add4:	2303      	movs	r3, #3
 800add6:	f8cd c020 	str.w	ip, [sp, #32]
 800adda:	4611      	mov	r1, r2
 800addc:	4610      	mov	r0, r2
 800adde:	260a      	movs	r6, #10
 800ade0:	250b      	movs	r5, #11
 800ade2:	9209      	str	r2, [sp, #36]	; 0x24
 800ade4:	f8cd c014 	str.w	ip, [sp, #20]
 800ade8:	9306      	str	r3, [sp, #24]
 800adea:	4617      	mov	r7, r2
 800adec:	f04f 0e01 	mov.w	lr, #1
 800adf0:	e72f      	b.n	800ac52 <xmp3_UnpackScaleFactors+0x22a>
 800adf2:	f8c3 e064 	str.w	lr, [r3, #100]	; 0x64
 800adf6:	ae0a      	add	r6, sp, #40	; 0x28
 800adf8:	ad12      	add	r5, sp, #72	; 0x48
 800adfa:	e755      	b.n	800aca8 <xmp3_UnpackScaleFactors+0x280>
 800adfc:	9b22      	ldr	r3, [sp, #136]	; 0x88
 800adfe:	ebc3 1343 	rsb	r3, r3, r3, lsl #5
 800ae02:	009b      	lsls	r3, r3, #2
 800ae04:	ebc9 1449 	rsb	r4, r9, r9, lsl #5
 800ae08:	eb03 0744 	add.w	r7, r3, r4, lsl #1
 800ae0c:	ea4f 1349 	mov.w	r3, r9, lsl #5
 800ae10:	9305      	str	r3, [sp, #20]
 800ae12:	9b22      	ldr	r3, [sp, #136]	; 0x88
 800ae14:	463c      	mov	r4, r7
 800ae16:	3405      	adds	r4, #5
 800ae18:	3f01      	subs	r7, #1
 800ae1a:	015b      	lsls	r3, r3, #5
 800ae1c:	4457      	add	r7, sl
 800ae1e:	4454      	add	r4, sl
 800ae20:	9306      	str	r3, [sp, #24]
 800ae22:	4641      	mov	r1, r8
 800ae24:	a80e      	add	r0, sp, #56	; 0x38
 800ae26:	f7fa f931 	bl	800508c <xmp3_GetBits>
 800ae2a:	f807 0f01 	strb.w	r0, [r7, #1]!
 800ae2e:	42a7      	cmp	r7, r4
 800ae30:	d1f7      	bne.n	800ae22 <xmp3_UnpackScaleFactors+0x3fa>
 800ae32:	6873      	ldr	r3, [r6, #4]
 800ae34:	2b00      	cmp	r3, #0
 800ae36:	f47f ae75 	bne.w	800ab24 <xmp3_UnpackScaleFactors+0xfc>
 800ae3a:	9b05      	ldr	r3, [sp, #20]
 800ae3c:	9a06      	ldr	r2, [sp, #24]
 800ae3e:	9922      	ldr	r1, [sp, #136]	; 0x88
 800ae40:	eba3 0309 	sub.w	r3, r3, r9
 800ae44:	005b      	lsls	r3, r3, #1
 800ae46:	1a54      	subs	r4, r2, r1
 800ae48:	1d9f      	adds	r7, r3, #6
 800ae4a:	330b      	adds	r3, #11
 800ae4c:	eb07 0784 	add.w	r7, r7, r4, lsl #2
 800ae50:	eb03 0484 	add.w	r4, r3, r4, lsl #2
 800ae54:	4457      	add	r7, sl
 800ae56:	4454      	add	r4, sl
 800ae58:	4641      	mov	r1, r8
 800ae5a:	a80e      	add	r0, sp, #56	; 0x38
 800ae5c:	f7fa f916 	bl	800508c <xmp3_GetBits>
 800ae60:	f807 0b01 	strb.w	r0, [r7], #1
 800ae64:	42a7      	cmp	r7, r4
 800ae66:	d1f7      	bne.n	800ae58 <xmp3_UnpackScaleFactors+0x430>
 800ae68:	68b3      	ldr	r3, [r6, #8]
 800ae6a:	2b00      	cmp	r3, #0
 800ae6c:	f47f ae79 	bne.w	800ab62 <xmp3_UnpackScaleFactors+0x13a>
 800ae70:	9b05      	ldr	r3, [sp, #20]
 800ae72:	9a06      	ldr	r2, [sp, #24]
 800ae74:	9922      	ldr	r1, [sp, #136]	; 0x88
 800ae76:	eba3 0309 	sub.w	r3, r3, r9
 800ae7a:	005b      	lsls	r3, r3, #1
 800ae7c:	1a54      	subs	r4, r2, r1
 800ae7e:	f103 070b 	add.w	r7, r3, #11
 800ae82:	3310      	adds	r3, #16
 800ae84:	eb07 0784 	add.w	r7, r7, r4, lsl #2
 800ae88:	eb03 0484 	add.w	r4, r3, r4, lsl #2
 800ae8c:	4457      	add	r7, sl
 800ae8e:	4454      	add	r4, sl
 800ae90:	4629      	mov	r1, r5
 800ae92:	a80e      	add	r0, sp, #56	; 0x38
 800ae94:	f7fa f8fa 	bl	800508c <xmp3_GetBits>
 800ae98:	f807 0b01 	strb.w	r0, [r7], #1
 800ae9c:	42a7      	cmp	r7, r4
 800ae9e:	d1f7      	bne.n	800ae90 <xmp3_UnpackScaleFactors+0x468>
 800aea0:	e67b      	b.n	800ab9a <xmp3_UnpackScaleFactors+0x172>
 800aea2:	4982      	ldr	r1, [pc, #520]	; (800b0ac <xmp3_UnpackScaleFactors+0x684>)
 800aea4:	f5a3 73c8 	sub.w	r3, r3, #400	; 0x190
 800aea8:	109a      	asrs	r2, r3, #2
 800aeaa:	fba1 1802 	umull	r1, r8, r1, r2
 800aeae:	ea4f 0898 	mov.w	r8, r8, lsr #2
 800aeb2:	f003 0303 	and.w	r3, r3, #3
 800aeb6:	930c      	str	r3, [sp, #48]	; 0x30
 800aeb8:	eb08 0388 	add.w	r3, r8, r8, lsl #2
 800aebc:	1ad2      	subs	r2, r2, r3
 800aebe:	f04f 0c03 	mov.w	ip, #3
 800aec2:	2700      	movs	r7, #0
 800aec4:	920b      	str	r2, [sp, #44]	; 0x2c
 800aec6:	2302      	movs	r3, #2
 800aec8:	2204      	movs	r2, #4
 800aeca:	e9cd 2c05 	strd	r2, ip, [sp, #20]
 800aece:	f8cd 8028 	str.w	r8, [sp, #40]	; 0x28
 800aed2:	970d      	str	r7, [sp, #52]	; 0x34
 800aed4:	f8cd c020 	str.w	ip, [sp, #32]
 800aed8:	4661      	mov	r1, ip
 800aeda:	2007      	movs	r0, #7
 800aedc:	2605      	movs	r6, #5
 800aede:	2506      	movs	r5, #6
 800aee0:	9309      	str	r3, [sp, #36]	; 0x24
 800aee2:	46be      	mov	lr, r7
 800aee4:	e6b5      	b.n	800ac52 <xmp3_UnpackScaleFactors+0x22a>
 800aee6:	f5b3 7fb4 	cmp.w	r3, #360	; 0x168
 800aeea:	f003 0701 	and.w	r7, r3, #1
 800aeee:	ea4f 0163 	mov.w	r1, r3, asr #1
 800aef2:	f2c0 818f 	blt.w	800b214 <xmp3_UnpackScaleFactors+0x7ec>
 800aef6:	29f3      	cmp	r1, #243	; 0xf3
 800aef8:	f300 81db 	bgt.w	800b2b2 <xmp3_UnpackScaleFactors+0x88a>
 800aefc:	39b4      	subs	r1, #180	; 0xb4
 800aefe:	2300      	movs	r3, #0
 800af00:	2203      	movs	r2, #3
 800af02:	930d      	str	r3, [sp, #52]	; 0x34
 800af04:	469e      	mov	lr, r3
 800af06:	f3c1 0381 	ubfx	r3, r1, #2, #2
 800af0a:	2006      	movs	r0, #6
 800af0c:	ea4f 1821 	mov.w	r8, r1, asr #4
 800af10:	930b      	str	r3, [sp, #44]	; 0x2c
 800af12:	4011      	ands	r1, r2
 800af14:	2304      	movs	r3, #4
 800af16:	2402      	movs	r4, #2
 800af18:	910c      	str	r1, [sp, #48]	; 0x30
 800af1a:	e9cd 2305 	strd	r2, r3, [sp, #20]
 800af1e:	f8cd 8028 	str.w	r8, [sp, #40]	; 0x28
 800af22:	9308      	str	r3, [sp, #32]
 800af24:	4694      	mov	ip, r2
 800af26:	4611      	mov	r1, r2
 800af28:	4606      	mov	r6, r0
 800af2a:	4605      	mov	r5, r0
 800af2c:	9409      	str	r4, [sp, #36]	; 0x24
 800af2e:	e690      	b.n	800ac52 <xmp3_UnpackScaleFactors+0x22a>
 800af30:	ae0a      	add	r6, sp, #40	; 0x28
 800af32:	46b4      	mov	ip, r6
 800af34:	e8bc 000f 	ldmia.w	ip!, {r0, r1, r2, r3}
 800af38:	ad12      	add	r5, sp, #72	; 0x48
 800af3a:	f8ca 70f8 	str.w	r7, [sl, #248]	; 0xf8
 800af3e:	f8ca 00fc 	str.w	r0, [sl, #252]	; 0xfc
 800af42:	462f      	mov	r7, r5
 800af44:	f8ca 1100 	str.w	r1, [sl, #256]	; 0x100
 800af48:	f8ca 2104 	str.w	r2, [sl, #260]	; 0x104
 800af4c:	f8ca 3108 	str.w	r3, [sl, #264]	; 0x108
 800af50:	cf0f      	ldmia	r7!, {r0, r1, r2, r3}
 800af52:	f8ca 010c 	str.w	r0, [sl, #268]	; 0x10c
 800af56:	f8ca 1110 	str.w	r1, [sl, #272]	; 0x110
 800af5a:	f8ca 2114 	str.w	r2, [sl, #276]	; 0x114
 800af5e:	f8ca 3118 	str.w	r3, [sl, #280]	; 0x118
 800af62:	e692      	b.n	800ac8a <xmp3_UnpackScaleFactors+0x262>
 800af64:	6c1b      	ldr	r3, [r3, #64]	; 0x40
 800af66:	2b00      	cmp	r3, #0
 800af68:	f000 8140 	beq.w	800b1ec <xmp3_UnpackScaleFactors+0x7c4>
 800af6c:	2306      	movs	r3, #6
 800af6e:	9308      	str	r3, [sp, #32]
 800af70:	9b08      	ldr	r3, [sp, #32]
 800af72:	9312      	str	r3, [sp, #72]	; 0x48
 800af74:	9b06      	ldr	r3, [sp, #24]
 800af76:	9313      	str	r3, [sp, #76]	; 0x4c
 800af78:	9b05      	ldr	r3, [sp, #20]
 800af7a:	9314      	str	r3, [sp, #80]	; 0x50
 800af7c:	9b09      	ldr	r3, [sp, #36]	; 0x24
 800af7e:	9315      	str	r3, [sp, #84]	; 0x54
 800af80:	f1bb 0f00 	cmp.w	fp, #0
 800af84:	f47f ae7b 	bne.w	800ac7e <xmp3_UnpackScaleFactors+0x256>
 800af88:	9a22      	ldr	r2, [sp, #136]	; 0x88
 800af8a:	9b02      	ldr	r3, [sp, #8]
 800af8c:	4413      	add	r3, r2
 800af8e:	9a03      	ldr	r2, [sp, #12]
 800af90:	011b      	lsls	r3, r3, #4
 800af92:	444a      	add	r2, r9
 800af94:	eb03 03c2 	add.w	r3, r3, r2, lsl #3
 800af98:	9a01      	ldr	r2, [sp, #4]
 800af9a:	4413      	add	r3, r2
 800af9c:	ae0a      	add	r6, sp, #40	; 0x28
 800af9e:	f8c3 e064 	str.w	lr, [r3, #100]	; 0x64
 800afa2:	ad12      	add	r5, sp, #72	; 0x48
 800afa4:	9a22      	ldr	r2, [sp, #136]	; 0x88
 800afa6:	9b02      	ldr	r3, [sp, #8]
 800afa8:	4413      	add	r3, r2
 800afaa:	9a03      	ldr	r2, [sp, #12]
 800afac:	011b      	lsls	r3, r3, #4
 800afae:	444a      	add	r2, r9
 800afb0:	eb03 03c2 	add.w	r3, r3, r2, lsl #3
 800afb4:	9a01      	ldr	r2, [sp, #4]
 800afb6:	4413      	add	r3, r2
 800afb8:	6c1b      	ldr	r3, [r3, #64]	; 0x40
 800afba:	2b00      	cmp	r3, #0
 800afbc:	f000 810e 	beq.w	800b1dc <xmp3_UnpackScaleFactors+0x7b4>
 800afc0:	9b22      	ldr	r3, [sp, #136]	; 0x88
 800afc2:	ebc3 1343 	rsb	r3, r3, r3, lsl #5
 800afc6:	009b      	lsls	r3, r3, #2
 800afc8:	ebc9 1449 	rsb	r4, r9, r9, lsl #5
 800afcc:	eb03 0744 	add.w	r7, r3, r4, lsl #1
 800afd0:	ea4f 1349 	mov.w	r3, r9, lsl #5
 800afd4:	9305      	str	r3, [sp, #20]
 800afd6:	9b22      	ldr	r3, [sp, #136]	; 0x88
 800afd8:	463c      	mov	r4, r7
 800afda:	3405      	adds	r4, #5
 800afdc:	3f01      	subs	r7, #1
 800afde:	015b      	lsls	r3, r3, #5
 800afe0:	4457      	add	r7, sl
 800afe2:	4454      	add	r4, sl
 800afe4:	9306      	str	r3, [sp, #24]
 800afe6:	4641      	mov	r1, r8
 800afe8:	a80e      	add	r0, sp, #56	; 0x38
 800afea:	f7fa f84f 	bl	800508c <xmp3_GetBits>
 800afee:	f807 0f01 	strb.w	r0, [r7, #1]!
 800aff2:	42a7      	cmp	r7, r4
 800aff4:	d1f7      	bne.n	800afe6 <xmp3_UnpackScaleFactors+0x5be>
 800aff6:	f04f 0b03 	mov.w	fp, #3
 800affa:	2301      	movs	r3, #1
 800affc:	9a22      	ldr	r2, [sp, #136]	; 0x88
 800affe:	f8cd 908c 	str.w	r9, [sp, #140]	; 0x8c
 800b002:	eb05 0783 	add.w	r7, r5, r3, lsl #2
 800b006:	eb06 0683 	add.w	r6, r6, r3, lsl #2
 800b00a:	9b06      	ldr	r3, [sp, #24]
 800b00c:	1a9b      	subs	r3, r3, r2
 800b00e:	009a      	lsls	r2, r3, #2
 800b010:	9b05      	ldr	r3, [sp, #20]
 800b012:	eba3 0309 	sub.w	r3, r3, r9
 800b016:	eb02 0343 	add.w	r3, r2, r3, lsl #1
 800b01a:	eb0a 0203 	add.w	r2, sl, r3
 800b01e:	9308      	str	r3, [sp, #32]
 800b020:	465b      	mov	r3, fp
 800b022:	4693      	mov	fp, r2
 800b024:	f857 5b04 	ldr.w	r5, [r7], #4
 800b028:	2d00      	cmp	r5, #0
 800b02a:	dd22      	ble.n	800b072 <xmp3_UnpackScaleFactors+0x64a>
 800b02c:	9a08      	ldr	r2, [sp, #32]
 800b02e:	f8d6 9000 	ldr.w	r9, [r6]
 800b032:	441d      	add	r5, r3
 800b034:	eb03 0343 	add.w	r3, r3, r3, lsl #1
 800b038:	4413      	add	r3, r2
 800b03a:	eb05 0445 	add.w	r4, r5, r5, lsl #1
 800b03e:	eb0a 0803 	add.w	r8, sl, r3
 800b042:	445c      	add	r4, fp
 800b044:	4649      	mov	r1, r9
 800b046:	a80e      	add	r0, sp, #56	; 0x38
 800b048:	f7fa f820 	bl	800508c <xmp3_GetBits>
 800b04c:	4649      	mov	r1, r9
 800b04e:	f888 0017 	strb.w	r0, [r8, #23]
 800b052:	a80e      	add	r0, sp, #56	; 0x38
 800b054:	f7fa f81a 	bl	800508c <xmp3_GetBits>
 800b058:	4649      	mov	r1, r9
 800b05a:	f888 0018 	strb.w	r0, [r8, #24]
 800b05e:	a80e      	add	r0, sp, #56	; 0x38
 800b060:	f7fa f814 	bl	800508c <xmp3_GetBits>
 800b064:	f108 0803 	add.w	r8, r8, #3
 800b068:	f888 0016 	strb.w	r0, [r8, #22]
 800b06c:	45a0      	cmp	r8, r4
 800b06e:	d1e9      	bne.n	800b044 <xmp3_UnpackScaleFactors+0x61c>
 800b070:	462b      	mov	r3, r5
 800b072:	aa16      	add	r2, sp, #88	; 0x58
 800b074:	4297      	cmp	r7, r2
 800b076:	f106 0604 	add.w	r6, r6, #4
 800b07a:	d1d3      	bne.n	800b024 <xmp3_UnpackScaleFactors+0x5fc>
 800b07c:	f8dd 908c 	ldr.w	r9, [sp, #140]	; 0x8c
 800b080:	9a22      	ldr	r2, [sp, #136]	; 0x88
 800b082:	9b06      	ldr	r3, [sp, #24]
 800b084:	1a9b      	subs	r3, r3, r2
 800b086:	9a05      	ldr	r2, [sp, #20]
 800b088:	009b      	lsls	r3, r3, #2
 800b08a:	eba2 0209 	sub.w	r2, r2, r9
 800b08e:	eb03 0342 	add.w	r3, r3, r2, lsl #1
 800b092:	f103 0234 	add.w	r2, r3, #52	; 0x34
 800b096:	4452      	add	r2, sl
 800b098:	4453      	add	r3, sl
 800b09a:	2100      	movs	r1, #0
 800b09c:	f883 103d 	strb.w	r1, [r3, #61]	; 0x3d
 800b0a0:	f8a2 1007 	strh.w	r1, [r2, #7]
 800b0a4:	e63f      	b.n	800ad26 <xmp3_UnpackScaleFactors+0x2fe>
 800b0a6:	bf00      	nop
 800b0a8:	aaaaaaab 	.word	0xaaaaaaab
 800b0ac:	cccccccd 	.word	0xcccccccd
 800b0b0:	6c1f      	ldr	r7, [r3, #64]	; 0x40
 800b0b2:	2f00      	cmp	r7, #0
 800b0b4:	d175      	bne.n	800b1a2 <xmp3_UnpackScaleFactors+0x77a>
 800b0b6:	ea4f 1349 	mov.w	r3, r9, lsl #5
 800b0ba:	9305      	str	r3, [sp, #20]
 800b0bc:	9b22      	ldr	r3, [sp, #136]	; 0x88
 800b0be:	015b      	lsls	r3, r3, #5
 800b0c0:	9306      	str	r3, [sp, #24]
 800b0c2:	9a22      	ldr	r2, [sp, #136]	; 0x88
 800b0c4:	9b06      	ldr	r3, [sp, #24]
 800b0c6:	1a9b      	subs	r3, r3, r2
 800b0c8:	9a05      	ldr	r2, [sp, #20]
 800b0ca:	009b      	lsls	r3, r3, #2
 800b0cc:	eba2 0609 	sub.w	r6, r2, r9
 800b0d0:	eb03 0446 	add.w	r4, r3, r6, lsl #1
 800b0d4:	eb07 0747 	add.w	r7, r7, r7, lsl #1
 800b0d8:	4626      	mov	r6, r4
 800b0da:	4427      	add	r7, r4
 800b0dc:	3612      	adds	r6, #18
 800b0de:	4457      	add	r7, sl
 800b0e0:	4456      	add	r6, sl
 800b0e2:	4641      	mov	r1, r8
 800b0e4:	a80e      	add	r0, sp, #56	; 0x38
 800b0e6:	f7f9 ffd1 	bl	800508c <xmp3_GetBits>
 800b0ea:	4641      	mov	r1, r8
 800b0ec:	75f8      	strb	r0, [r7, #23]
 800b0ee:	a80e      	add	r0, sp, #56	; 0x38
 800b0f0:	f7f9 ffcc 	bl	800508c <xmp3_GetBits>
 800b0f4:	4641      	mov	r1, r8
 800b0f6:	7638      	strb	r0, [r7, #24]
 800b0f8:	a80e      	add	r0, sp, #56	; 0x38
 800b0fa:	f7f9 ffc7 	bl	800508c <xmp3_GetBits>
 800b0fe:	3703      	adds	r7, #3
 800b100:	75b8      	strb	r0, [r7, #22]
 800b102:	42be      	cmp	r6, r7
 800b104:	d1ed      	bne.n	800b0e2 <xmp3_UnpackScaleFactors+0x6ba>
 800b106:	4454      	add	r4, sl
 800b108:	4629      	mov	r1, r5
 800b10a:	a80e      	add	r0, sp, #56	; 0x38
 800b10c:	f7f9 ffbe 	bl	800508c <xmp3_GetBits>
 800b110:	4629      	mov	r1, r5
 800b112:	f884 0029 	strb.w	r0, [r4, #41]	; 0x29
 800b116:	a80e      	add	r0, sp, #56	; 0x38
 800b118:	f7f9 ffb8 	bl	800508c <xmp3_GetBits>
 800b11c:	4629      	mov	r1, r5
 800b11e:	f884 002a 	strb.w	r0, [r4, #42]	; 0x2a
 800b122:	a80e      	add	r0, sp, #56	; 0x38
 800b124:	f7f9 ffb2 	bl	800508c <xmp3_GetBits>
 800b128:	3403      	adds	r4, #3
 800b12a:	f884 0028 	strb.w	r0, [r4, #40]	; 0x28
 800b12e:	42b4      	cmp	r4, r6
 800b130:	d1ea      	bne.n	800b108 <xmp3_UnpackScaleFactors+0x6e0>
 800b132:	e7a5      	b.n	800b080 <xmp3_UnpackScaleFactors+0x658>
 800b134:	ebc9 1449 	rsb	r4, r9, r9, lsl #5
 800b138:	0064      	lsls	r4, r4, #1
 800b13a:	1e67      	subs	r7, r4, #1
 800b13c:	f104 060a 	add.w	r6, r4, #10
 800b140:	4457      	add	r7, sl
 800b142:	4456      	add	r6, sl
 800b144:	4641      	mov	r1, r8
 800b146:	a80e      	add	r0, sp, #56	; 0x38
 800b148:	f7f9 ffa0 	bl	800508c <xmp3_GetBits>
 800b14c:	f807 0f01 	strb.w	r0, [r7, #1]!
 800b150:	42b7      	cmp	r7, r6
 800b152:	d1f7      	bne.n	800b144 <xmp3_UnpackScaleFactors+0x71c>
 800b154:	f104 060b 	add.w	r6, r4, #11
 800b158:	3415      	adds	r4, #21
 800b15a:	4456      	add	r6, sl
 800b15c:	4454      	add	r4, sl
 800b15e:	4629      	mov	r1, r5
 800b160:	a80e      	add	r0, sp, #56	; 0x38
 800b162:	f7f9 ff93 	bl	800508c <xmp3_GetBits>
 800b166:	f806 0b01 	strb.w	r0, [r6], #1
 800b16a:	42b4      	cmp	r4, r6
 800b16c:	d1f7      	bne.n	800b15e <xmp3_UnpackScaleFactors+0x736>
 800b16e:	e5da      	b.n	800ad26 <xmp3_UnpackScaleFactors+0x2fe>
 800b170:	9b05      	ldr	r3, [sp, #20]
 800b172:	9a06      	ldr	r2, [sp, #24]
 800b174:	9922      	ldr	r1, [sp, #136]	; 0x88
 800b176:	eba3 0309 	sub.w	r3, r3, r9
 800b17a:	005b      	lsls	r3, r3, #1
 800b17c:	1a54      	subs	r4, r2, r1
 800b17e:	f103 0610 	add.w	r6, r3, #16
 800b182:	3315      	adds	r3, #21
 800b184:	eb06 0684 	add.w	r6, r6, r4, lsl #2
 800b188:	eb03 0484 	add.w	r4, r3, r4, lsl #2
 800b18c:	4456      	add	r6, sl
 800b18e:	4454      	add	r4, sl
 800b190:	4629      	mov	r1, r5
 800b192:	a80e      	add	r0, sp, #56	; 0x38
 800b194:	f7f9 ff7a 	bl	800508c <xmp3_GetBits>
 800b198:	f806 0b01 	strb.w	r0, [r6], #1
 800b19c:	42b4      	cmp	r4, r6
 800b19e:	d1f7      	bne.n	800b190 <xmp3_UnpackScaleFactors+0x768>
 800b1a0:	e5b4      	b.n	800ad0c <xmp3_UnpackScaleFactors+0x2e4>
 800b1a2:	9b22      	ldr	r3, [sp, #136]	; 0x88
 800b1a4:	ebc3 1343 	rsb	r3, r3, r3, lsl #5
 800b1a8:	009b      	lsls	r3, r3, #2
 800b1aa:	ebc9 1449 	rsb	r4, r9, r9, lsl #5
 800b1ae:	eb03 0644 	add.w	r6, r3, r4, lsl #1
 800b1b2:	ea4f 1349 	mov.w	r3, r9, lsl #5
 800b1b6:	9305      	str	r3, [sp, #20]
 800b1b8:	9b22      	ldr	r3, [sp, #136]	; 0x88
 800b1ba:	4634      	mov	r4, r6
 800b1bc:	3407      	adds	r4, #7
 800b1be:	3e01      	subs	r6, #1
 800b1c0:	015b      	lsls	r3, r3, #5
 800b1c2:	4456      	add	r6, sl
 800b1c4:	4454      	add	r4, sl
 800b1c6:	9306      	str	r3, [sp, #24]
 800b1c8:	4641      	mov	r1, r8
 800b1ca:	a80e      	add	r0, sp, #56	; 0x38
 800b1cc:	f7f9 ff5e 	bl	800508c <xmp3_GetBits>
 800b1d0:	f806 0f01 	strb.w	r0, [r6, #1]!
 800b1d4:	42b4      	cmp	r4, r6
 800b1d6:	d1f7      	bne.n	800b1c8 <xmp3_UnpackScaleFactors+0x7a0>
 800b1d8:	2703      	movs	r7, #3
 800b1da:	e772      	b.n	800b0c2 <xmp3_UnpackScaleFactors+0x69a>
 800b1dc:	ea4f 1249 	mov.w	r2, r9, lsl #5
 800b1e0:	9205      	str	r2, [sp, #20]
 800b1e2:	9a22      	ldr	r2, [sp, #136]	; 0x88
 800b1e4:	0152      	lsls	r2, r2, #5
 800b1e6:	469b      	mov	fp, r3
 800b1e8:	9206      	str	r2, [sp, #24]
 800b1ea:	e707      	b.n	800affc <xmp3_UnpackScaleFactors+0x5d4>
 800b1ec:	e9cd 2c05 	strd	r2, ip, [sp, #20]
 800b1f0:	e6be      	b.n	800af70 <xmp3_UnpackScaleFactors+0x548>
 800b1f2:	f04f 0c06 	mov.w	ip, #6
 800b1f6:	2303      	movs	r3, #3
 800b1f8:	4602      	mov	r2, r0
 800b1fa:	4601      	mov	r1, r0
 800b1fc:	9009      	str	r0, [sp, #36]	; 0x24
 800b1fe:	4607      	mov	r7, r0
 800b200:	f8cd c020 	str.w	ip, [sp, #32]
 800b204:	260a      	movs	r6, #10
 800b206:	250b      	movs	r5, #11
 800b208:	f8cd c014 	str.w	ip, [sp, #20]
 800b20c:	9306      	str	r3, [sp, #24]
 800b20e:	f04f 0e01 	mov.w	lr, #1
 800b212:	e51e      	b.n	800ac52 <xmp3_UnpackScaleFactors+0x22a>
 800b214:	4a48      	ldr	r2, [pc, #288]	; (800b338 <xmp3_UnpackScaleFactors+0x910>)
 800b216:	17db      	asrs	r3, r3, #31
 800b218:	fb82 2801 	smull	r2, r8, r2, r1
 800b21c:	ebc3 08e8 	rsb	r8, r3, r8, asr #3
 800b220:	4a46      	ldr	r2, [pc, #280]	; (800b33c <xmp3_UnpackScaleFactors+0x914>)
 800b222:	f8cd 8028 	str.w	r8, [sp, #40]	; 0x28
 800b226:	eb08 03c8 	add.w	r3, r8, r8, lsl #3
 800b22a:	eba1 0383 	sub.w	r3, r1, r3, lsl #2
 800b22e:	fb82 1203 	smull	r1, r2, r2, r3
 800b232:	eba2 72e3 	sub.w	r2, r2, r3, asr #31
 800b236:	920b      	str	r2, [sp, #44]	; 0x2c
 800b238:	eb02 0242 	add.w	r2, r2, r2, lsl #1
 800b23c:	eba3 0242 	sub.w	r2, r3, r2, lsl #1
 800b240:	2100      	movs	r1, #0
 800b242:	2007      	movs	r0, #7
 800b244:	920c      	str	r2, [sp, #48]	; 0x30
 800b246:	2305      	movs	r3, #5
 800b248:	2204      	movs	r2, #4
 800b24a:	910d      	str	r1, [sp, #52]	; 0x34
 800b24c:	4694      	mov	ip, r2
 800b24e:	9208      	str	r2, [sp, #32]
 800b250:	4606      	mov	r6, r0
 800b252:	4605      	mov	r5, r0
 800b254:	9109      	str	r1, [sp, #36]	; 0x24
 800b256:	9205      	str	r2, [sp, #20]
 800b258:	9306      	str	r3, [sp, #24]
 800b25a:	468e      	mov	lr, r1
 800b25c:	e4f9      	b.n	800ac52 <xmp3_UnpackScaleFactors+0x22a>
 800b25e:	f04f 30ff 	mov.w	r0, #4294967295
 800b262:	e581      	b.n	800ad68 <xmp3_UnpackScaleFactors+0x340>
 800b264:	4413      	add	r3, r2
 800b266:	4452      	add	r2, sl
 800b268:	4453      	add	r3, sl
 800b26a:	7991      	ldrb	r1, [r2, #6]
 800b26c:	7199      	strb	r1, [r3, #6]
 800b26e:	79d1      	ldrb	r1, [r2, #7]
 800b270:	71d9      	strb	r1, [r3, #7]
 800b272:	7a11      	ldrb	r1, [r2, #8]
 800b274:	7219      	strb	r1, [r3, #8]
 800b276:	7a51      	ldrb	r1, [r2, #9]
 800b278:	7259      	strb	r1, [r3, #9]
 800b27a:	7a92      	ldrb	r2, [r2, #10]
 800b27c:	729a      	strb	r2, [r3, #10]
 800b27e:	e46c      	b.n	800ab5a <xmp3_UnpackScaleFactors+0x132>
 800b280:	ebc9 1149 	rsb	r1, r9, r9, lsl #5
 800b284:	eb02 0341 	add.w	r3, r2, r1, lsl #1
 800b288:	f81a 2011 	ldrb.w	r2, [sl, r1, lsl #1]
 800b28c:	f80a 2003 	strb.w	r2, [sl, r3]
 800b290:	eb0a 0241 	add.w	r2, sl, r1, lsl #1
 800b294:	4453      	add	r3, sl
 800b296:	7851      	ldrb	r1, [r2, #1]
 800b298:	7059      	strb	r1, [r3, #1]
 800b29a:	7891      	ldrb	r1, [r2, #2]
 800b29c:	7099      	strb	r1, [r3, #2]
 800b29e:	78d1      	ldrb	r1, [r2, #3]
 800b2a0:	70d9      	strb	r1, [r3, #3]
 800b2a2:	7911      	ldrb	r1, [r2, #4]
 800b2a4:	7119      	strb	r1, [r3, #4]
 800b2a6:	7952      	ldrb	r2, [r2, #5]
 800b2a8:	715a      	strb	r2, [r3, #5]
 800b2aa:	ea4f 1349 	mov.w	r3, r9, lsl #5
 800b2ae:	9305      	str	r3, [sp, #20]
 800b2b0:	e434      	b.n	800ab1c <xmp3_UnpackScaleFactors+0xf4>
 800b2b2:	f8df 808c 	ldr.w	r8, [pc, #140]	; 800b340 <xmp3_UnpackScaleFactors+0x918>
 800b2b6:	f1a1 03f4 	sub.w	r3, r1, #244	; 0xf4
 800b2ba:	fba8 2803 	umull	r2, r8, r8, r3
 800b2be:	ea4f 0858 	mov.w	r8, r8, lsr #1
 800b2c2:	eb08 0248 	add.w	r2, r8, r8, lsl #1
 800b2c6:	1a9b      	subs	r3, r3, r2
 800b2c8:	ed9f 7b19 	vldr	d7, [pc, #100]	; 800b330 <xmp3_UnpackScaleFactors+0x908>
 800b2cc:	930b      	str	r3, [sp, #44]	; 0x2c
 800b2ce:	2305      	movs	r3, #5
 800b2d0:	2100      	movs	r1, #0
 800b2d2:	2203      	movs	r2, #3
 800b2d4:	9308      	str	r3, [sp, #32]
 800b2d6:	2608      	movs	r6, #8
 800b2d8:	4618      	mov	r0, r3
 800b2da:	2306      	movs	r3, #6
 800b2dc:	ed8d 7b0c 	vstr	d7, [sp, #48]	; 0x30
 800b2e0:	f8cd 8028 	str.w	r8, [sp, #40]	; 0x28
 800b2e4:	f04f 0c04 	mov.w	ip, #4
 800b2e8:	4635      	mov	r5, r6
 800b2ea:	9109      	str	r1, [sp, #36]	; 0x24
 800b2ec:	9205      	str	r2, [sp, #20]
 800b2ee:	9306      	str	r3, [sp, #24]
 800b2f0:	468e      	mov	lr, r1
 800b2f2:	e4ae      	b.n	800ac52 <xmp3_UnpackScaleFactors+0x22a>
 800b2f4:	4413      	add	r3, r2
 800b2f6:	4452      	add	r2, sl
 800b2f8:	4453      	add	r3, sl
 800b2fa:	7c11      	ldrb	r1, [r2, #16]
 800b2fc:	7419      	strb	r1, [r3, #16]
 800b2fe:	7c51      	ldrb	r1, [r2, #17]
 800b300:	7459      	strb	r1, [r3, #17]
 800b302:	7c91      	ldrb	r1, [r2, #18]
 800b304:	7499      	strb	r1, [r3, #18]
 800b306:	7cd1      	ldrb	r1, [r2, #19]
 800b308:	74d9      	strb	r1, [r3, #19]
 800b30a:	7d12      	ldrb	r2, [r2, #20]
 800b30c:	751a      	strb	r2, [r3, #20]
 800b30e:	e4fd      	b.n	800ad0c <xmp3_UnpackScaleFactors+0x2e4>
 800b310:	4413      	add	r3, r2
 800b312:	4452      	add	r2, sl
 800b314:	4453      	add	r3, sl
 800b316:	7ad1      	ldrb	r1, [r2, #11]
 800b318:	72d9      	strb	r1, [r3, #11]
 800b31a:	7b11      	ldrb	r1, [r2, #12]
 800b31c:	7319      	strb	r1, [r3, #12]
 800b31e:	7b51      	ldrb	r1, [r2, #13]
 800b320:	7359      	strb	r1, [r3, #13]
 800b322:	7b91      	ldrb	r1, [r2, #14]
 800b324:	7399      	strb	r1, [r3, #14]
 800b326:	7bd2      	ldrb	r2, [r2, #15]
 800b328:	73da      	strb	r2, [r3, #15]
 800b32a:	e436      	b.n	800ab9a <xmp3_UnpackScaleFactors+0x172>
 800b32c:	f3af 8000 	nop.w
	...
 800b338:	38e38e39 	.word	0x38e38e39
 800b33c:	2aaaaaab 	.word	0x2aaaaaab
 800b340:	aaaaaaab 	.word	0xaaaaaaab

0800b344 <xmp3_MidSideProc>:
 800b344:	2900      	cmp	r1, #0
 800b346:	e92d 43f0 	stmdb	sp!, {r4, r5, r6, r7, r8, r9, lr}
 800b34a:	dd2c      	ble.n	800b3a6 <xmp3_MidSideProc+0x62>
 800b34c:	2600      	movs	r6, #0
 800b34e:	f1a0 0c04 	sub.w	ip, r0, #4
 800b352:	f600 0efc 	addw	lr, r0, #2300	; 0x8fc
 800b356:	4637      	mov	r7, r6
 800b358:	4634      	mov	r4, r6
 800b35a:	46b0      	mov	r8, r6
 800b35c:	f85c 3f04 	ldr.w	r3, [ip, #4]!
 800b360:	f85e 5f04 	ldr.w	r5, [lr, #4]!
 800b364:	eb03 0905 	add.w	r9, r3, r5
 800b368:	1b5b      	subs	r3, r3, r5
 800b36a:	f8cc 9000 	str.w	r9, [ip]
 800b36e:	f8ce 3000 	str.w	r3, [lr]
 800b372:	f8dc 5000 	ldr.w	r5, [ip]
 800b376:	4640      	mov	r0, r8
 800b378:	ea85 70e5 	eor.w	r0, r5, r5, asr #31
 800b37c:	eba0 70e5 	sub.w	r0, r0, r5, asr #31
 800b380:	4307      	orrs	r7, r0
 800b382:	4640      	mov	r0, r8
 800b384:	ea83 70e3 	eor.w	r0, r3, r3, asr #31
 800b388:	eba0 70e3 	sub.w	r0, r0, r3, asr #31
 800b38c:	3401      	adds	r4, #1
 800b38e:	42a1      	cmp	r1, r4
 800b390:	ea46 0600 	orr.w	r6, r6, r0
 800b394:	d1e2      	bne.n	800b35c <xmp3_MidSideProc+0x18>
 800b396:	e9d2 1300 	ldrd	r1, r3, [r2]
 800b39a:	4339      	orrs	r1, r7
 800b39c:	4333      	orrs	r3, r6
 800b39e:	e9c2 1300 	strd	r1, r3, [r2]
 800b3a2:	e8bd 83f0 	ldmia.w	sp!, {r4, r5, r6, r7, r8, r9, pc}
 800b3a6:	2600      	movs	r6, #0
 800b3a8:	4637      	mov	r7, r6
 800b3aa:	e7f4      	b.n	800b396 <xmp3_MidSideProc+0x52>

0800b3ac <xmp3_IntensityProcMPEG1>:
 800b3ac:	e92d 4ff0 	stmdb	sp!, {r4, r5, r6, r7, r8, r9, sl, fp, lr}
 800b3b0:	b08f      	sub	sp, #60	; 0x3c
 800b3b2:	9d18      	ldr	r5, [sp, #96]	; 0x60
 800b3b4:	900b      	str	r0, [sp, #44]	; 0x2c
 800b3b6:	f8d5 a018 	ldr.w	sl, [r5, #24]
 800b3ba:	f1ba 0f00 	cmp.w	sl, #0
 800b3be:	d170      	bne.n	800b4a2 <xmp3_IntensityProcMPEG1+0xf6>
 800b3c0:	6aef      	ldr	r7, [r5, #44]	; 0x2c
 800b3c2:	696c      	ldr	r4, [r5, #20]
 800b3c4:	9d19      	ldr	r5, [sp, #100]	; 0x64
 800b3c6:	4874      	ldr	r0, [pc, #464]	; (800b598 <xmp3_IntensityProcMPEG1+0x1ec>)
 800b3c8:	6b56      	ldr	r6, [r2, #52]	; 0x34
 800b3ca:	f107 0801 	add.w	r8, r7, #1
 800b3ce:	ebc5 05c5 	rsb	r5, r5, r5, lsl #3
 800b3d2:	eb00 0085 	add.w	r0, r0, r5, lsl #2
 800b3d6:	f936 2018 	ldrsh.w	r2, [r6, r8, lsl #1]
 800b3da:	9001      	str	r0, [sp, #4]
 800b3dc:	9819      	ldr	r0, [sp, #100]	; 0x64
 800b3de:	42a7      	cmp	r7, r4
 800b3e0:	eba1 0102 	sub.w	r1, r1, r2
 800b3e4:	ea4f 00c0 	mov.w	r0, r0, lsl #3
 800b3e8:	f280 8178 	bge.w	800b6dc <xmp3_IntensityProcMPEG1+0x330>
 800b3ec:	2900      	cmp	r1, #0
 800b3ee:	f340 8175 	ble.w	800b6dc <xmp3_IntensityProcMPEG1+0x330>
 800b3f2:	eb03 0b08 	add.w	fp, r3, r8
 800b3f6:	3301      	adds	r3, #1
 800b3f8:	4423      	add	r3, r4
 800b3fa:	9302      	str	r3, [sp, #8]
 800b3fc:	4b67      	ldr	r3, [pc, #412]	; (800b59c <xmp3_IntensityProcMPEG1+0x1f0>)
 800b3fe:	4403      	add	r3, r0
 800b400:	9303      	str	r3, [sp, #12]
 800b402:	f81b 3b01 	ldrb.w	r3, [fp], #1
 800b406:	2b07      	cmp	r3, #7
 800b408:	eb06 0e48 	add.w	lr, r6, r8, lsl #1
 800b40c:	46d0      	mov	r8, sl
 800b40e:	4656      	mov	r6, sl
 800b410:	d040      	beq.n	800b494 <xmp3_IntensityProcMPEG1+0xe8>
 800b412:	9801      	ldr	r0, [sp, #4]
 800b414:	f850 5023 	ldr.w	r5, [r0, r3, lsl #2]
 800b418:	6984      	ldr	r4, [r0, #24]
 800b41a:	1b64      	subs	r4, r4, r5
 800b41c:	4673      	mov	r3, lr
 800b41e:	f9be 7002 	ldrsh.w	r7, [lr, #2]
 800b422:	f9b3 3000 	ldrsh.w	r3, [r3]
 800b426:	1aff      	subs	r7, r7, r3
 800b428:	2f00      	cmp	r7, #0
 800b42a:	f10e 0e02 	add.w	lr, lr, #2
 800b42e:	f340 8144 	ble.w	800b6ba <xmp3_IntensityProcMPEG1+0x30e>
 800b432:	9b0b      	ldr	r3, [sp, #44]	; 0x2c
 800b434:	eb03 0082 	add.w	r0, r3, r2, lsl #2
 800b438:	1bcf      	subs	r7, r1, r7
 800b43a:	3804      	subs	r0, #4
 800b43c:	eb02 0c01 	add.w	ip, r2, r1
 800b440:	e000      	b.n	800b444 <xmp3_IntensityProcMPEG1+0x98>
 800b442:	b3a9      	cbz	r1, 800b4b0 <xmp3_IntensityProcMPEG1+0x104>
 800b444:	f850 3f04 	ldr.w	r3, [r0, #4]!
 800b448:	461a      	mov	r2, r3
 800b44a:	fb84 9202 	smull	r9, r2, r4, r2
 800b44e:	0092      	lsls	r2, r2, #2
 800b450:	f8c0 2900 	str.w	r2, [r0, #2304]	; 0x900
 800b454:	46b1      	mov	r9, r6
 800b456:	ea82 79e2 	eor.w	r9, r2, r2, asr #31
 800b45a:	eba9 79e2 	sub.w	r9, r9, r2, asr #31
 800b45e:	ea48 0809 	orr.w	r8, r8, r9
 800b462:	fb85 2303 	smull	r2, r3, r5, r3
 800b466:	009b      	lsls	r3, r3, #2
 800b468:	6003      	str	r3, [r0, #0]
 800b46a:	4632      	mov	r2, r6
 800b46c:	ea83 72e3 	eor.w	r2, r3, r3, asr #31
 800b470:	eba2 72e3 	sub.w	r2, r2, r3, asr #31
 800b474:	3901      	subs	r1, #1
 800b476:	42b9      	cmp	r1, r7
 800b478:	ea4a 0a02 	orr.w	sl, sl, r2
 800b47c:	ebac 0201 	sub.w	r2, ip, r1
 800b480:	d1df      	bne.n	800b442 <xmp3_IntensityProcMPEG1+0x96>
 800b482:	9b02      	ldr	r3, [sp, #8]
 800b484:	459b      	cmp	fp, r3
 800b486:	d013      	beq.n	800b4b0 <xmp3_IntensityProcMPEG1+0x104>
 800b488:	b197      	cbz	r7, 800b4b0 <xmp3_IntensityProcMPEG1+0x104>
 800b48a:	4639      	mov	r1, r7
 800b48c:	f81b 3b01 	ldrb.w	r3, [fp], #1
 800b490:	2b07      	cmp	r3, #7
 800b492:	d1be      	bne.n	800b412 <xmp3_IntensityProcMPEG1+0x66>
 800b494:	4b41      	ldr	r3, [pc, #260]	; (800b59c <xmp3_IntensityProcMPEG1+0x1f0>)
 800b496:	9819      	ldr	r0, [sp, #100]	; 0x64
 800b498:	f853 5030 	ldr.w	r5, [r3, r0, lsl #3]
 800b49c:	9b03      	ldr	r3, [sp, #12]
 800b49e:	685c      	ldr	r4, [r3, #4]
 800b4a0:	e7bc      	b.n	800b41c <xmp3_IntensityProcMPEG1+0x70>
 800b4a2:	f10a 30ff 	add.w	r0, sl, #4294967295
 800b4a6:	2801      	cmp	r0, #1
 800b4a8:	d908      	bls.n	800b4bc <xmp3_IntensityProcMPEG1+0x110>
 800b4aa:	f04f 0800 	mov.w	r8, #0
 800b4ae:	46c2      	mov	sl, r8
 800b4b0:	9b1b      	ldr	r3, [sp, #108]	; 0x6c
 800b4b2:	e9c3 a800 	strd	sl, r8, [r3]
 800b4b6:	b00f      	add	sp, #60	; 0x3c
 800b4b8:	e8bd 8ff0 	ldmia.w	sp!, {r4, r5, r6, r7, r8, r9, sl, fp, pc}
 800b4bc:	6aac      	ldr	r4, [r5, #40]	; 0x28
 800b4be:	f8d2 c034 	ldr.w	ip, [r2, #52]	; 0x34
 800b4c2:	9819      	ldr	r0, [sp, #100]	; 0x64
 800b4c4:	692f      	ldr	r7, [r5, #16]
 800b4c6:	eb0c 0244 	add.w	r2, ip, r4, lsl #1
 800b4ca:	ebc0 00c0 	rsb	r0, r0, r0, lsl #3
 800b4ce:	f9b2 2030 	ldrsh.w	r2, [r2, #48]	; 0x30
 800b4d2:	eb02 0242 	add.w	r2, r2, r2, lsl #1
 800b4d6:	1a8e      	subs	r6, r1, r2
 800b4d8:	492f      	ldr	r1, [pc, #188]	; (800b598 <xmp3_IntensityProcMPEG1+0x1ec>)
 800b4da:	eb01 0180 	add.w	r1, r1, r0, lsl #2
 800b4de:	9819      	ldr	r0, [sp, #100]	; 0x64
 800b4e0:	910a      	str	r1, [sp, #40]	; 0x28
 800b4e2:	42bc      	cmp	r4, r7
 800b4e4:	f104 0501 	add.w	r5, r4, #1
 800b4e8:	f107 0101 	add.w	r1, r7, #1
 800b4ec:	ea4f 00c0 	mov.w	r0, r0, lsl #3
 800b4f0:	dadb      	bge.n	800b4aa <xmp3_IntensityProcMPEG1+0xfe>
 800b4f2:	2e02      	cmp	r6, #2
 800b4f4:	ddd9      	ble.n	800b4aa <xmp3_IntensityProcMPEG1+0xfe>
 800b4f6:	3418      	adds	r4, #24
 800b4f8:	eb0c 0444 	add.w	r4, ip, r4, lsl #1
 800b4fc:	eb05 0545 	add.w	r5, r5, r5, lsl #1
 800b500:	9409      	str	r4, [sp, #36]	; 0x24
 800b502:	eb01 0141 	add.w	r1, r1, r1, lsl #1
 800b506:	195c      	adds	r4, r3, r5
 800b508:	3b03      	subs	r3, #3
 800b50a:	440b      	add	r3, r1
 800b50c:	930d      	str	r3, [sp, #52]	; 0x34
 800b50e:	4b23      	ldr	r3, [pc, #140]	; (800b59c <xmp3_IntensityProcMPEG1+0x1f0>)
 800b510:	9408      	str	r4, [sp, #32]
 800b512:	4403      	add	r3, r0
 800b514:	930c      	str	r3, [sp, #48]	; 0x30
 800b516:	9b08      	ldr	r3, [sp, #32]
 800b518:	7ddb      	ldrb	r3, [r3, #23]
 800b51a:	f04f 0800 	mov.w	r8, #0
 800b51e:	2b07      	cmp	r3, #7
 800b520:	46c2      	mov	sl, r8
 800b522:	4644      	mov	r4, r8
 800b524:	f000 80a7 	beq.w	800b676 <xmp3_IntensityProcMPEG1+0x2ca>
 800b528:	990a      	ldr	r1, [sp, #40]	; 0x28
 800b52a:	f851 0023 	ldr.w	r0, [r1, r3, lsl #2]
 800b52e:	698b      	ldr	r3, [r1, #24]
 800b530:	9006      	str	r0, [sp, #24]
 800b532:	1a1b      	subs	r3, r3, r0
 800b534:	9305      	str	r3, [sp, #20]
 800b536:	9b08      	ldr	r3, [sp, #32]
 800b538:	7e1b      	ldrb	r3, [r3, #24]
 800b53a:	2b07      	cmp	r3, #7
 800b53c:	f000 80a8 	beq.w	800b690 <xmp3_IntensityProcMPEG1+0x2e4>
 800b540:	990a      	ldr	r1, [sp, #40]	; 0x28
 800b542:	f851 0023 	ldr.w	r0, [r1, r3, lsl #2]
 800b546:	698b      	ldr	r3, [r1, #24]
 800b548:	9004      	str	r0, [sp, #16]
 800b54a:	1a1b      	subs	r3, r3, r0
 800b54c:	9303      	str	r3, [sp, #12]
 800b54e:	9b08      	ldr	r3, [sp, #32]
 800b550:	7e5b      	ldrb	r3, [r3, #25]
 800b552:	2b07      	cmp	r3, #7
 800b554:	f000 80a9 	beq.w	800b6aa <xmp3_IntensityProcMPEG1+0x2fe>
 800b558:	990a      	ldr	r1, [sp, #40]	; 0x28
 800b55a:	f851 9023 	ldr.w	r9, [r1, r3, lsl #2]
 800b55e:	698b      	ldr	r3, [r1, #24]
 800b560:	eba3 0309 	sub.w	r3, r3, r9
 800b564:	9302      	str	r3, [sp, #8]
 800b566:	9909      	ldr	r1, [sp, #36]	; 0x24
 800b568:	460b      	mov	r3, r1
 800b56a:	f9b1 e002 	ldrsh.w	lr, [r1, #2]
 800b56e:	f9b3 3000 	ldrsh.w	r3, [r3]
 800b572:	ebae 0e03 	sub.w	lr, lr, r3
 800b576:	3102      	adds	r1, #2
 800b578:	f1be 0f00 	cmp.w	lr, #0
 800b57c:	9109      	str	r1, [sp, #36]	; 0x24
 800b57e:	f340 80a3 	ble.w	800b6c8 <xmp3_IntensityProcMPEG1+0x31c>
 800b582:	9b0b      	ldr	r3, [sp, #44]	; 0x2c
 800b584:	eb0e 0e4e 	add.w	lr, lr, lr, lsl #1
 800b588:	eb03 0382 	add.w	r3, r3, r2, lsl #2
 800b58c:	4432      	add	r2, r6
 800b58e:	eba6 0e0e 	sub.w	lr, r6, lr
 800b592:	9207      	str	r2, [sp, #28]
 800b594:	e006      	b.n	800b5a4 <xmp3_IntensityProcMPEG1+0x1f8>
 800b596:	bf00      	nop
 800b598:	08013f58 	.word	0x08013f58
 800b59c:	08013f48 	.word	0x08013f48
 800b5a0:	2e02      	cmp	r6, #2
 800b5a2:	dd85      	ble.n	800b4b0 <xmp3_IntensityProcMPEG1+0x104>
 800b5a4:	681a      	ldr	r2, [r3, #0]
 800b5a6:	9d05      	ldr	r5, [sp, #20]
 800b5a8:	4611      	mov	r1, r2
 800b5aa:	fb85 0101 	smull	r0, r1, r5, r1
 800b5ae:	0089      	lsls	r1, r1, #2
 800b5b0:	f8c3 1900 	str.w	r1, [r3, #2304]	; 0x900
 800b5b4:	46a4      	mov	ip, r4
 800b5b6:	ea81 7ce1 	eor.w	ip, r1, r1, asr #31
 800b5ba:	ebac 7ce1 	sub.w	ip, ip, r1, asr #31
 800b5be:	9806      	ldr	r0, [sp, #24]
 800b5c0:	fb80 1202 	smull	r1, r2, r0, r2
 800b5c4:	0092      	lsls	r2, r2, #2
 800b5c6:	601a      	str	r2, [r3, #0]
 800b5c8:	4627      	mov	r7, r4
 800b5ca:	ea82 77e2 	eor.w	r7, r2, r2, asr #31
 800b5ce:	eba7 77e2 	sub.w	r7, r7, r2, asr #31
 800b5d2:	685a      	ldr	r2, [r3, #4]
 800b5d4:	9d03      	ldr	r5, [sp, #12]
 800b5d6:	4611      	mov	r1, r2
 800b5d8:	fb85 0101 	smull	r0, r1, r5, r1
 800b5dc:	0089      	lsls	r1, r1, #2
 800b5de:	f8c3 1904 	str.w	r1, [r3, #2308]	; 0x904
 800b5e2:	4620      	mov	r0, r4
 800b5e4:	ea81 70e1 	eor.w	r0, r1, r1, asr #31
 800b5e8:	eba0 70e1 	sub.w	r0, r0, r1, asr #31
 800b5ec:	9d04      	ldr	r5, [sp, #16]
 800b5ee:	fb85 1202 	smull	r1, r2, r5, r2
 800b5f2:	0092      	lsls	r2, r2, #2
 800b5f4:	605a      	str	r2, [r3, #4]
 800b5f6:	4621      	mov	r1, r4
 800b5f8:	ea82 71e2 	eor.w	r1, r2, r2, asr #31
 800b5fc:	eba1 71e2 	sub.w	r1, r1, r2, asr #31
 800b600:	689a      	ldr	r2, [r3, #8]
 800b602:	9201      	str	r2, [sp, #4]
 800b604:	4615      	mov	r5, r2
 800b606:	9a02      	ldr	r2, [sp, #8]
 800b608:	fb82 b505 	smull	fp, r5, r2, r5
 800b60c:	00ad      	lsls	r5, r5, #2
 800b60e:	f8c3 5908 	str.w	r5, [r3, #2312]	; 0x908
 800b612:	46a3      	mov	fp, r4
 800b614:	ea85 7be5 	eor.w	fp, r5, r5, asr #31
 800b618:	ebab 7be5 	sub.w	fp, fp, r5, asr #31
 800b61c:	ea40 000c 	orr.w	r0, r0, ip
 800b620:	ea40 000b 	orr.w	r0, r0, fp
 800b624:	9a01      	ldr	r2, [sp, #4]
 800b626:	ea48 0800 	orr.w	r8, r8, r0
 800b62a:	fb89 0202 	smull	r0, r2, r9, r2
 800b62e:	0092      	lsls	r2, r2, #2
 800b630:	609a      	str	r2, [r3, #8]
 800b632:	4620      	mov	r0, r4
 800b634:	ea82 70e2 	eor.w	r0, r2, r2, asr #31
 800b638:	eba0 70e2 	sub.w	r0, r0, r2, asr #31
 800b63c:	3e03      	subs	r6, #3
 800b63e:	9a07      	ldr	r2, [sp, #28]
 800b640:	4339      	orrs	r1, r7
 800b642:	4301      	orrs	r1, r0
 800b644:	4576      	cmp	r6, lr
 800b646:	ea4a 0a01 	orr.w	sl, sl, r1
 800b64a:	eba2 0206 	sub.w	r2, r2, r6
 800b64e:	f103 030c 	add.w	r3, r3, #12
 800b652:	d1a5      	bne.n	800b5a0 <xmp3_IntensityProcMPEG1+0x1f4>
 800b654:	9b08      	ldr	r3, [sp, #32]
 800b656:	990d      	ldr	r1, [sp, #52]	; 0x34
 800b658:	428b      	cmp	r3, r1
 800b65a:	f43f af29 	beq.w	800b4b0 <xmp3_IntensityProcMPEG1+0x104>
 800b65e:	3303      	adds	r3, #3
 800b660:	f1be 0f02 	cmp.w	lr, #2
 800b664:	9308      	str	r3, [sp, #32]
 800b666:	f77f af23 	ble.w	800b4b0 <xmp3_IntensityProcMPEG1+0x104>
 800b66a:	4676      	mov	r6, lr
 800b66c:	9b08      	ldr	r3, [sp, #32]
 800b66e:	7ddb      	ldrb	r3, [r3, #23]
 800b670:	2b07      	cmp	r3, #7
 800b672:	f47f af59 	bne.w	800b528 <xmp3_IntensityProcMPEG1+0x17c>
 800b676:	4b1a      	ldr	r3, [pc, #104]	; (800b6e0 <xmp3_IntensityProcMPEG1+0x334>)
 800b678:	9919      	ldr	r1, [sp, #100]	; 0x64
 800b67a:	f853 3031 	ldr.w	r3, [r3, r1, lsl #3]
 800b67e:	9306      	str	r3, [sp, #24]
 800b680:	9b0c      	ldr	r3, [sp, #48]	; 0x30
 800b682:	685b      	ldr	r3, [r3, #4]
 800b684:	9305      	str	r3, [sp, #20]
 800b686:	9b08      	ldr	r3, [sp, #32]
 800b688:	7e1b      	ldrb	r3, [r3, #24]
 800b68a:	2b07      	cmp	r3, #7
 800b68c:	f47f af58 	bne.w	800b540 <xmp3_IntensityProcMPEG1+0x194>
 800b690:	4b13      	ldr	r3, [pc, #76]	; (800b6e0 <xmp3_IntensityProcMPEG1+0x334>)
 800b692:	9919      	ldr	r1, [sp, #100]	; 0x64
 800b694:	f853 3031 	ldr.w	r3, [r3, r1, lsl #3]
 800b698:	9304      	str	r3, [sp, #16]
 800b69a:	9b0c      	ldr	r3, [sp, #48]	; 0x30
 800b69c:	685b      	ldr	r3, [r3, #4]
 800b69e:	9303      	str	r3, [sp, #12]
 800b6a0:	9b08      	ldr	r3, [sp, #32]
 800b6a2:	7e5b      	ldrb	r3, [r3, #25]
 800b6a4:	2b07      	cmp	r3, #7
 800b6a6:	f47f af57 	bne.w	800b558 <xmp3_IntensityProcMPEG1+0x1ac>
 800b6aa:	4b0d      	ldr	r3, [pc, #52]	; (800b6e0 <xmp3_IntensityProcMPEG1+0x334>)
 800b6ac:	9919      	ldr	r1, [sp, #100]	; 0x64
 800b6ae:	f853 9031 	ldr.w	r9, [r3, r1, lsl #3]
 800b6b2:	9b0c      	ldr	r3, [sp, #48]	; 0x30
 800b6b4:	685b      	ldr	r3, [r3, #4]
 800b6b6:	9302      	str	r3, [sp, #8]
 800b6b8:	e755      	b.n	800b566 <xmp3_IntensityProcMPEG1+0x1ba>
 800b6ba:	9b02      	ldr	r3, [sp, #8]
 800b6bc:	459b      	cmp	fp, r3
 800b6be:	f43f aef7 	beq.w	800b4b0 <xmp3_IntensityProcMPEG1+0x104>
 800b6c2:	460f      	mov	r7, r1
 800b6c4:	4639      	mov	r1, r7
 800b6c6:	e6e1      	b.n	800b48c <xmp3_IntensityProcMPEG1+0xe0>
 800b6c8:	9b08      	ldr	r3, [sp, #32]
 800b6ca:	990d      	ldr	r1, [sp, #52]	; 0x34
 800b6cc:	428b      	cmp	r3, r1
 800b6ce:	f43f aeef 	beq.w	800b4b0 <xmp3_IntensityProcMPEG1+0x104>
 800b6d2:	3303      	adds	r3, #3
 800b6d4:	46b6      	mov	lr, r6
 800b6d6:	9308      	str	r3, [sp, #32]
 800b6d8:	4676      	mov	r6, lr
 800b6da:	e7c7      	b.n	800b66c <xmp3_IntensityProcMPEG1+0x2c0>
 800b6dc:	46d0      	mov	r8, sl
 800b6de:	e6e7      	b.n	800b4b0 <xmp3_IntensityProcMPEG1+0x104>
 800b6e0:	08013f48 	.word	0x08013f48

0800b6e4 <xmp3_IntensityProcMPEG2>:
 800b6e4:	e92d 4ff0 	stmdb	sp!, {r4, r5, r6, r7, r8, r9, sl, fp, lr}
 800b6e8:	b0a1      	sub	sp, #132	; 0x84
 800b6ea:	e9dd a42a 	ldrd	sl, r4, [sp, #168]	; 0xa8
 800b6ee:	46a4      	mov	ip, r4
 800b6f0:	9d2c      	ldr	r5, [sp, #176]	; 0xb0
 800b6f2:	f104 0814 	add.w	r8, r4, #20
 800b6f6:	f85c 4b04 	ldr.w	r4, [ip], #4
 800b6fa:	eb05 0444 	add.w	r4, r5, r4, lsl #1
 800b6fe:	4d97      	ldr	r5, [pc, #604]	; (800b95c <xmp3_IntensityProcMPEG2+0x278>)
 800b700:	eb05 1484 	add.w	r4, r5, r4, lsl #6
 800b704:	9403      	str	r4, [sp, #12]
 800b706:	f04f 0e01 	mov.w	lr, #1
 800b70a:	2400      	movs	r4, #0
 800b70c:	f85c 5b04 	ldr.w	r5, [ip], #4
 800b710:	f8dc 700c 	ldr.w	r7, [ip, #12]
 800b714:	fa0e f505 	lsl.w	r5, lr, r5
 800b718:	2f00      	cmp	r7, #0
 800b71a:	f105 35ff 	add.w	r5, r5, #4294967295
 800b71e:	dd0a      	ble.n	800b736 <xmp3_IntensityProcMPEG2+0x52>
 800b720:	4427      	add	r7, r4
 800b722:	ae09      	add	r6, sp, #36	; 0x24
 800b724:	eb06 0484 	add.w	r4, r6, r4, lsl #2
 800b728:	eb06 0687 	add.w	r6, r6, r7, lsl #2
 800b72c:	f844 5b04 	str.w	r5, [r4], #4
 800b730:	42b4      	cmp	r4, r6
 800b732:	d1fb      	bne.n	800b72c <xmp3_IntensityProcMPEG2+0x48>
 800b734:	463c      	mov	r4, r7
 800b736:	45c4      	cmp	ip, r8
 800b738:	d1e8      	bne.n	800b70c <xmp3_IntensityProcMPEG2+0x28>
 800b73a:	f8da 4018 	ldr.w	r4, [sl, #24]
 800b73e:	2c00      	cmp	r4, #0
 800b740:	f040 8082 	bne.w	800b848 <xmp3_IntensityProcMPEG2+0x164>
 800b744:	6b56      	ldr	r6, [r2, #52]	; 0x34
 800b746:	f8da 202c 	ldr.w	r2, [sl, #44]	; 0x2c
 800b74a:	f8da 5014 	ldr.w	r5, [sl, #20]
 800b74e:	9502      	str	r5, [sp, #8]
 800b750:	eb03 0902 	add.w	r9, r3, r2
 800b754:	f1c3 0301 	rsb	r3, r3, #1
 800b758:	9304      	str	r3, [sp, #16]
 800b75a:	2301      	movs	r3, #1
 800b75c:	1c55      	adds	r5, r2, #1
 800b75e:	e9cd 331e 	strd	r3, r3, [sp, #120]	; 0x78
 800b762:	ab09      	add	r3, sp, #36	; 0x24
 800b764:	eb03 0385 	add.w	r3, r3, r5, lsl #2
 800b768:	f936 2015 	ldrsh.w	r2, [r6, r5, lsl #1]
 800b76c:	9301      	str	r3, [sp, #4]
 800b76e:	eb06 0a45 	add.w	sl, r6, r5, lsl #1
 800b772:	4b7b      	ldr	r3, [pc, #492]	; (800b960 <xmp3_IntensityProcMPEG2+0x27c>)
 800b774:	9d2c      	ldr	r5, [sp, #176]	; 0xb0
 800b776:	9005      	str	r0, [sp, #20]
 800b778:	eb03 03c5 	add.w	r3, r3, r5, lsl #3
 800b77c:	eba1 0802 	sub.w	r8, r1, r2
 800b780:	9306      	str	r3, [sp, #24]
 800b782:	4621      	mov	r1, r4
 800b784:	4627      	mov	r7, r4
 800b786:	9b04      	ldr	r3, [sp, #16]
 800b788:	9802      	ldr	r0, [sp, #8]
 800b78a:	444b      	add	r3, r9
 800b78c:	4298      	cmp	r0, r3
 800b78e:	db49      	blt.n	800b824 <xmp3_IntensityProcMPEG2+0x140>
 800b790:	9d01      	ldr	r5, [sp, #4]
 800b792:	f819 0f01 	ldrb.w	r0, [r9, #1]!
 800b796:	f855 3b04 	ldr.w	r3, [r5], #4
 800b79a:	9501      	str	r5, [sp, #4]
 800b79c:	4283      	cmp	r3, r0
 800b79e:	d047      	beq.n	800b830 <xmp3_IntensityProcMPEG2+0x14c>
 800b7a0:	1c43      	adds	r3, r0, #1
 800b7a2:	07c6      	lsls	r6, r0, #31
 800b7a4:	ea4f 0363 	mov.w	r3, r3, asr #1
 800b7a8:	d549      	bpl.n	800b83e <xmp3_IntensityProcMPEG2+0x15a>
 800b7aa:	9d03      	ldr	r5, [sp, #12]
 800b7ac:	f855 0023 	ldr.w	r0, [r5, r3, lsl #2]
 800b7b0:	462b      	mov	r3, r5
 800b7b2:	681d      	ldr	r5, [r3, #0]
 800b7b4:	f9ba c002 	ldrsh.w	ip, [sl, #2]
 800b7b8:	4653      	mov	r3, sl
 800b7ba:	f10a 0a02 	add.w	sl, sl, #2
 800b7be:	f9b3 3000 	ldrsh.w	r3, [r3]
 800b7c2:	ebac 0c03 	sub.w	ip, ip, r3
 800b7c6:	45c4      	cmp	ip, r8
 800b7c8:	bfa8      	it	ge
 800b7ca:	46c4      	movge	ip, r8
 800b7cc:	f1bc 0f00 	cmp.w	ip, #0
 800b7d0:	dd25      	ble.n	800b81e <xmp3_IntensityProcMPEG2+0x13a>
 800b7d2:	9b05      	ldr	r3, [sp, #20]
 800b7d4:	eb0c 0e02 	add.w	lr, ip, r2
 800b7d8:	eb03 068e 	add.w	r6, r3, lr, lsl #2
 800b7dc:	eb03 0282 	add.w	r2, r3, r2, lsl #2
 800b7e0:	f852 3b04 	ldr.w	r3, [r2], #4
 800b7e4:	fb85 b303 	smull	fp, r3, r5, r3
 800b7e8:	009b      	lsls	r3, r3, #2
 800b7ea:	f8c2 38fc 	str.w	r3, [r2, #2300]	; 0x8fc
 800b7ee:	46bb      	mov	fp, r7
 800b7f0:	ea83 7be3 	eor.w	fp, r3, r3, asr #31
 800b7f4:	ebab 7be3 	sub.w	fp, fp, r3, asr #31
 800b7f8:	f852 3c04 	ldr.w	r3, [r2, #-4]
 800b7fc:	ea41 010b 	orr.w	r1, r1, fp
 800b800:	fb80 b303 	smull	fp, r3, r0, r3
 800b804:	009b      	lsls	r3, r3, #2
 800b806:	f842 3c04 	str.w	r3, [r2, #-4]
 800b80a:	46bb      	mov	fp, r7
 800b80c:	ea83 7be3 	eor.w	fp, r3, r3, asr #31
 800b810:	ebab 7be3 	sub.w	fp, fp, r3, asr #31
 800b814:	4296      	cmp	r6, r2
 800b816:	ea44 040b 	orr.w	r4, r4, fp
 800b81a:	d1e1      	bne.n	800b7e0 <xmp3_IntensityProcMPEG2+0xfc>
 800b81c:	4672      	mov	r2, lr
 800b81e:	ebb8 080c 	subs.w	r8, r8, ip
 800b822:	d1b0      	bne.n	800b786 <xmp3_IntensityProcMPEG2+0xa2>
 800b824:	9b2e      	ldr	r3, [sp, #184]	; 0xb8
 800b826:	e9c3 4100 	strd	r4, r1, [r3]
 800b82a:	b021      	add	sp, #132	; 0x84
 800b82c:	e8bd 8ff0 	ldmia.w	sp!, {r4, r5, r6, r7, r8, r9, sl, fp, pc}
 800b830:	4b4b      	ldr	r3, [pc, #300]	; (800b960 <xmp3_IntensityProcMPEG2+0x27c>)
 800b832:	982c      	ldr	r0, [sp, #176]	; 0xb0
 800b834:	f853 0030 	ldr.w	r0, [r3, r0, lsl #3]
 800b838:	9b06      	ldr	r3, [sp, #24]
 800b83a:	685d      	ldr	r5, [r3, #4]
 800b83c:	e7ba      	b.n	800b7b4 <xmp3_IntensityProcMPEG2+0xd0>
 800b83e:	9803      	ldr	r0, [sp, #12]
 800b840:	eb00 0383 	add.w	r3, r0, r3, lsl #2
 800b844:	6800      	ldr	r0, [r0, #0]
 800b846:	e7b4      	b.n	800b7b2 <xmp3_IntensityProcMPEG2+0xce>
 800b848:	6b52      	ldr	r2, [r2, #52]	; 0x34
 800b84a:	9207      	str	r2, [sp, #28]
 800b84c:	3317      	adds	r3, #23
 800b84e:	f10a 0204 	add.w	r2, sl, #4
 800b852:	9301      	str	r3, [sp, #4]
 800b854:	2301      	movs	r3, #1
 800b856:	9206      	str	r2, [sp, #24]
 800b858:	9315      	str	r3, [sp, #84]	; 0x54
 800b85a:	9a2c      	ldr	r2, [sp, #176]	; 0xb0
 800b85c:	4b40      	ldr	r3, [pc, #256]	; (800b960 <xmp3_IntensityProcMPEG2+0x27c>)
 800b85e:	2100      	movs	r1, #0
 800b860:	eb03 03c2 	add.w	r3, r3, r2, lsl #3
 800b864:	460c      	mov	r4, r1
 800b866:	9104      	str	r1, [sp, #16]
 800b868:	9305      	str	r3, [sp, #20]
 800b86a:	f500 6a10 	add.w	sl, r0, #2304	; 0x900
 800b86e:	468e      	mov	lr, r1
 800b870:	9a06      	ldr	r2, [sp, #24]
 800b872:	9e07      	ldr	r6, [sp, #28]
 800b874:	6993      	ldr	r3, [r2, #24]
 800b876:	f852 5b04 	ldr.w	r5, [r2], #4
 800b87a:	9206      	str	r2, [sp, #24]
 800b87c:	eb06 0243 	add.w	r2, r6, r3, lsl #1
 800b880:	2703      	movs	r7, #3
 800b882:	46bc      	mov	ip, r7
 800b884:	8e12      	ldrh	r2, [r2, #48]	; 0x30
 800b886:	9f04      	ldr	r7, [sp, #16]
 800b888:	9502      	str	r5, [sp, #8]
 800b88a:	fb12 720c 	smlabb	r2, r2, ip, r7
 800b88e:	f103 0c01 	add.w	ip, r3, #1
 800b892:	4565      	cmp	r5, ip
 800b894:	db48      	blt.n	800b928 <xmp3_IntensityProcMPEG2+0x244>
 800b896:	3318      	adds	r3, #24
 800b898:	eb06 0843 	add.w	r8, r6, r3, lsl #1
 800b89c:	ab09      	add	r3, sp, #36	; 0x24
 800b89e:	eb03 098c 	add.w	r9, r3, ip, lsl #2
 800b8a2:	eb0c 034c 	add.w	r3, ip, ip, lsl #1
 800b8a6:	9d01      	ldr	r5, [sp, #4]
 800b8a8:	5ced      	ldrb	r5, [r5, r3]
 800b8aa:	f859 3b04 	ldr.w	r3, [r9], #4
 800b8ae:	42ab      	cmp	r3, r5
 800b8b0:	d048      	beq.n	800b944 <xmp3_IntensityProcMPEG2+0x260>
 800b8b2:	1c6b      	adds	r3, r5, #1
 800b8b4:	07ed      	lsls	r5, r5, #31
 800b8b6:	ea4f 0363 	mov.w	r3, r3, asr #1
 800b8ba:	d54a      	bpl.n	800b952 <xmp3_IntensityProcMPEG2+0x26e>
 800b8bc:	9e03      	ldr	r6, [sp, #12]
 800b8be:	f856 5023 	ldr.w	r5, [r6, r3, lsl #2]
 800b8c2:	4633      	mov	r3, r6
 800b8c4:	681e      	ldr	r6, [r3, #0]
 800b8c6:	f9b8 7002 	ldrsh.w	r7, [r8, #2]
 800b8ca:	4643      	mov	r3, r8
 800b8cc:	f10c 0c01 	add.w	ip, ip, #1
 800b8d0:	f9b3 3000 	ldrsh.w	r3, [r3]
 800b8d4:	1aff      	subs	r7, r7, r3
 800b8d6:	2f00      	cmp	r7, #0
 800b8d8:	f108 0802 	add.w	r8, r8, #2
 800b8dc:	dd21      	ble.n	800b922 <xmp3_IntensityProcMPEG2+0x23e>
 800b8de:	eb07 0747 	add.w	r7, r7, r7, lsl #1
 800b8e2:	4417      	add	r7, r2
 800b8e4:	f850 3022 	ldr.w	r3, [r0, r2, lsl #2]
 800b8e8:	fb86 b303 	smull	fp, r3, r6, r3
 800b8ec:	009b      	lsls	r3, r3, #2
 800b8ee:	f84a 3022 	str.w	r3, [sl, r2, lsl #2]
 800b8f2:	46f3      	mov	fp, lr
 800b8f4:	ea83 7be3 	eor.w	fp, r3, r3, asr #31
 800b8f8:	ebab 7be3 	sub.w	fp, fp, r3, asr #31
 800b8fc:	f850 3022 	ldr.w	r3, [r0, r2, lsl #2]
 800b900:	ea41 010b 	orr.w	r1, r1, fp
 800b904:	fb85 b303 	smull	fp, r3, r5, r3
 800b908:	009b      	lsls	r3, r3, #2
 800b90a:	f840 3022 	str.w	r3, [r0, r2, lsl #2]
 800b90e:	46f3      	mov	fp, lr
 800b910:	ea83 7be3 	eor.w	fp, r3, r3, asr #31
 800b914:	ebab 7be3 	sub.w	fp, fp, r3, asr #31
 800b918:	3203      	adds	r2, #3
 800b91a:	42ba      	cmp	r2, r7
 800b91c:	ea44 040b 	orr.w	r4, r4, fp
 800b920:	d1e0      	bne.n	800b8e4 <xmp3_IntensityProcMPEG2+0x200>
 800b922:	9b02      	ldr	r3, [sp, #8]
 800b924:	4563      	cmp	r3, ip
 800b926:	dabc      	bge.n	800b8a2 <xmp3_IntensityProcMPEG2+0x1be>
 800b928:	9b04      	ldr	r3, [sp, #16]
 800b92a:	9a01      	ldr	r2, [sp, #4]
 800b92c:	3301      	adds	r3, #1
 800b92e:	3201      	adds	r2, #1
 800b930:	2b03      	cmp	r3, #3
 800b932:	9304      	str	r3, [sp, #16]
 800b934:	9201      	str	r2, [sp, #4]
 800b936:	d19b      	bne.n	800b870 <xmp3_IntensityProcMPEG2+0x18c>
 800b938:	9b2e      	ldr	r3, [sp, #184]	; 0xb8
 800b93a:	e9c3 4100 	strd	r4, r1, [r3]
 800b93e:	b021      	add	sp, #132	; 0x84
 800b940:	e8bd 8ff0 	ldmia.w	sp!, {r4, r5, r6, r7, r8, r9, sl, fp, pc}
 800b944:	4b06      	ldr	r3, [pc, #24]	; (800b960 <xmp3_IntensityProcMPEG2+0x27c>)
 800b946:	9d2c      	ldr	r5, [sp, #176]	; 0xb0
 800b948:	f853 5035 	ldr.w	r5, [r3, r5, lsl #3]
 800b94c:	9b05      	ldr	r3, [sp, #20]
 800b94e:	685e      	ldr	r6, [r3, #4]
 800b950:	e7b9      	b.n	800b8c6 <xmp3_IntensityProcMPEG2+0x1e2>
 800b952:	9d03      	ldr	r5, [sp, #12]
 800b954:	eb05 0383 	add.w	r3, r5, r3, lsl #2
 800b958:	682d      	ldr	r5, [r5, #0]
 800b95a:	e7b3      	b.n	800b8c4 <xmp3_IntensityProcMPEG2+0x1e0>
 800b95c:	08013f90 	.word	0x08013f90
 800b960:	08013f48 	.word	0x08013f48

0800b964 <xmp3_Subband>:
 800b964:	2800      	cmp	r0, #0
 800b966:	f000 8086 	beq.w	800ba76 <xmp3_Subband+0x112>
 800b96a:	68c3      	ldr	r3, [r0, #12]
 800b96c:	2b00      	cmp	r3, #0
 800b96e:	f000 8082 	beq.w	800ba76 <xmp3_Subband+0x112>
 800b972:	e92d 4ff0 	stmdb	sp!, {r4, r5, r6, r7, r8, r9, sl, fp, lr}
 800b976:	6946      	ldr	r6, [r0, #20]
 800b978:	b085      	sub	sp, #20
 800b97a:	2e00      	cmp	r6, #0
 800b97c:	d078      	beq.n	800ba70 <xmp3_Subband+0x10c>
 800b97e:	6987      	ldr	r7, [r0, #24]
 800b980:	2f00      	cmp	r7, #0
 800b982:	d075      	beq.n	800ba70 <xmp3_Subband+0x10c>
 800b984:	f8d0 37bc 	ldr.w	r3, [r0, #1980]	; 0x7bc
 800b988:	f507 5400 	add.w	r4, r7, #8192	; 0x2000
 800b98c:	2b02      	cmp	r3, #2
 800b98e:	f8d4 2200 	ldr.w	r2, [r4, #512]	; 0x200
 800b992:	460d      	mov	r5, r1
 800b994:	d031      	beq.n	800b9fa <xmp3_Subband+0x96>
 800b996:	f8df a0e4 	ldr.w	sl, [pc, #228]	; 800ba7c <xmp3_Subband+0x118>
 800b99a:	9603      	str	r6, [sp, #12]
 800b99c:	f04f 0900 	mov.w	r9, #0
 800b9a0:	f506 5880 	add.w	r8, r6, #4096	; 0x1000
 800b9a4:	9b03      	ldr	r3, [sp, #12]
 800b9a6:	f8d8 6b18 	ldr.w	r6, [r8, #2840]	; 0xb18
 800b9aa:	9600      	str	r6, [sp, #0]
 800b9ac:	f009 0b01 	and.w	fp, r9, #1
 800b9b0:	eb03 10c9 	add.w	r0, r3, r9, lsl #7
 800b9b4:	4639      	mov	r1, r7
 800b9b6:	465b      	mov	r3, fp
 800b9b8:	f7fa fda2 	bl	8006500 <xmp3_FDCT32>
 800b9bc:	f8d4 1200 	ldr.w	r1, [r4, #512]	; 0x200
 800b9c0:	eb0b 130b 	add.w	r3, fp, fp, lsl #4
 800b9c4:	eb01 1183 	add.w	r1, r1, r3, lsl #6
 800b9c8:	4628      	mov	r0, r5
 800b9ca:	4652      	mov	r2, sl
 800b9cc:	eb07 0181 	add.w	r1, r7, r1, lsl #2
 800b9d0:	f7f4 fe6c 	bl	80006ac <xmp3_PolyphaseMono>
 800b9d4:	f8d4 2200 	ldr.w	r2, [r4, #512]	; 0x200
 800b9d8:	f109 0901 	add.w	r9, r9, #1
 800b9dc:	eba2 020b 	sub.w	r2, r2, fp
 800b9e0:	f002 0207 	and.w	r2, r2, #7
 800b9e4:	f1b9 0f12 	cmp.w	r9, #18
 800b9e8:	f8c4 2200 	str.w	r2, [r4, #512]	; 0x200
 800b9ec:	f105 0540 	add.w	r5, r5, #64	; 0x40
 800b9f0:	d1d8      	bne.n	800b9a4 <xmp3_Subband+0x40>
 800b9f2:	2000      	movs	r0, #0
 800b9f4:	b005      	add	sp, #20
 800b9f6:	e8bd 8ff0 	ldmia.w	sp!, {r4, r5, r6, r7, r8, r9, sl, fp, pc}
 800b9fa:	f506 6310 	add.w	r3, r6, #2304	; 0x900
 800b9fe:	f107 0a80 	add.w	sl, r7, #128	; 0x80
 800ba02:	9303      	str	r3, [sp, #12]
 800ba04:	f04f 0900 	mov.w	r9, #0
 800ba08:	f506 5880 	add.w	r8, r6, #4096	; 0x1000
 800ba0c:	f009 0b01 	and.w	fp, r9, #1
 800ba10:	f8d8 1b18 	ldr.w	r1, [r8, #2840]	; 0xb18
 800ba14:	9100      	str	r1, [sp, #0]
 800ba16:	4630      	mov	r0, r6
 800ba18:	465b      	mov	r3, fp
 800ba1a:	4639      	mov	r1, r7
 800ba1c:	f7fa fd70 	bl	8006500 <xmp3_FDCT32>
 800ba20:	f8d8 1b1c 	ldr.w	r1, [r8, #2844]	; 0xb1c
 800ba24:	f8d4 2200 	ldr.w	r2, [r4, #512]	; 0x200
 800ba28:	9100      	str	r1, [sp, #0]
 800ba2a:	465b      	mov	r3, fp
 800ba2c:	f506 6010 	add.w	r0, r6, #2304	; 0x900
 800ba30:	4651      	mov	r1, sl
 800ba32:	f7fa fd65 	bl	8006500 <xmp3_FDCT32>
 800ba36:	f8d4 1200 	ldr.w	r1, [r4, #512]	; 0x200
 800ba3a:	eb0b 120b 	add.w	r2, fp, fp, lsl #4
 800ba3e:	eb01 1182 	add.w	r1, r1, r2, lsl #6
 800ba42:	4628      	mov	r0, r5
 800ba44:	4a0d      	ldr	r2, [pc, #52]	; (800ba7c <xmp3_Subband+0x118>)
 800ba46:	eb07 0181 	add.w	r1, r7, r1, lsl #2
 800ba4a:	f7f4 fbc9 	bl	80001e0 <xmp3_PolyphaseStereo>
 800ba4e:	f8d4 2200 	ldr.w	r2, [r4, #512]	; 0x200
 800ba52:	9b03      	ldr	r3, [sp, #12]
 800ba54:	3680      	adds	r6, #128	; 0x80
 800ba56:	eba2 020b 	sub.w	r2, r2, fp
 800ba5a:	f002 0207 	and.w	r2, r2, #7
 800ba5e:	42b3      	cmp	r3, r6
 800ba60:	f109 0901 	add.w	r9, r9, #1
 800ba64:	f105 0580 	add.w	r5, r5, #128	; 0x80
 800ba68:	f8c4 2200 	str.w	r2, [r4, #512]	; 0x200
 800ba6c:	d1ce      	bne.n	800ba0c <xmp3_Subband+0xa8>
 800ba6e:	e7c0      	b.n	800b9f2 <xmp3_Subband+0x8e>
 800ba70:	f04f 30ff 	mov.w	r0, #4294967295
 800ba74:	e7be      	b.n	800b9f4 <xmp3_Subband+0x90>
 800ba76:	f04f 30ff 	mov.w	r0, #4294967295
 800ba7a:	4770      	bx	lr
 800ba7c:	08014310 	.word	0x08014310

0800ba80 <mp3_start_play_callback>:
 800ba80:	6a43      	ldr	r3, [r0, #36]	; 0x24
 800ba82:	b570      	push	{r4, r5, r6, lr}
 800ba84:	e9d3 5600 	ldrd	r5, r6, [r3]
 800ba88:	4604      	mov	r4, r0
 800ba8a:	f7fe fd4d 	bl	800a528 <MP3InitDecoder>
 800ba8e:	6030      	str	r0, [r6, #0]
 800ba90:	b150      	cbz	r0, 800baa8 <mp3_start_play_callback+0x28>
 800ba92:	68ab      	ldr	r3, [r5, #8]
 800ba94:	6829      	ldr	r1, [r5, #0]
 800ba96:	60eb      	str	r3, [r5, #12]
 800ba98:	2201      	movs	r2, #1
 800ba9a:	f44f 6390 	mov.w	r3, #1152	; 0x480
 800ba9e:	6069      	str	r1, [r5, #4]
 800baa0:	2000      	movs	r0, #0
 800baa2:	6022      	str	r2, [r4, #0]
 800baa4:	60e3      	str	r3, [r4, #12]
 800baa6:	bd70      	pop	{r4, r5, r6, pc}
 800baa8:	2001      	movs	r0, #1
 800baaa:	bd70      	pop	{r4, r5, r6, pc}

0800baac <mp3_update_play_callback>:
 800baac:	e92d 43f0 	stmdb	sp!, {r4, r5, r6, r7, r8, r9, lr}
 800bab0:	6a43      	ldr	r3, [r0, #36]	; 0x24
 800bab2:	e9d3 4800 	ldrd	r4, r8, [r3]
 800bab6:	b083      	sub	sp, #12
 800bab8:	4605      	mov	r5, r0
 800baba:	f104 090c 	add.w	r9, r4, #12
 800babe:	1d27      	adds	r7, r4, #4
 800bac0:	2600      	movs	r6, #0
 800bac2:	68e1      	ldr	r1, [r4, #12]
 800bac4:	b1b1      	cbz	r1, 800baf4 <mp3_update_play_callback+0x48>
 800bac6:	6860      	ldr	r0, [r4, #4]
 800bac8:	f7fe fd34 	bl	800a534 <MP3FindSyncWord>
 800bacc:	1e03      	subs	r3, r0, #0
 800bace:	db11      	blt.n	800baf4 <mp3_update_play_callback+0x48>
 800bad0:	6862      	ldr	r2, [r4, #4]
 800bad2:	68e0      	ldr	r0, [r4, #12]
 800bad4:	441a      	add	r2, r3
 800bad6:	1ac0      	subs	r0, r0, r3
 800bad8:	6062      	str	r2, [r4, #4]
 800bada:	60e0      	str	r0, [r4, #12]
 800badc:	f8d8 0000 	ldr.w	r0, [r8]
 800bae0:	9600      	str	r6, [sp, #0]
 800bae2:	692b      	ldr	r3, [r5, #16]
 800bae4:	464a      	mov	r2, r9
 800bae6:	4639      	mov	r1, r7
 800bae8:	f7fe fd3e 	bl	800a568 <MP3Decode>
 800baec:	1cc3      	adds	r3, r0, #3
 800baee:	b128      	cbz	r0, 800bafc <mp3_update_play_callback+0x50>
 800baf0:	2b01      	cmp	r3, #1
 800baf2:	d9e6      	bls.n	800bac2 <mp3_update_play_callback+0x16>
 800baf4:	2002      	movs	r0, #2
 800baf6:	b003      	add	sp, #12
 800baf8:	e8bd 83f0 	ldmia.w	sp!, {r4, r5, r6, r7, r8, r9, pc}
 800bafc:	682b      	ldr	r3, [r5, #0]
 800bafe:	2b01      	cmp	r3, #1
 800bb00:	d001      	beq.n	800bb06 <mp3_update_play_callback+0x5a>
 800bb02:	2000      	movs	r0, #0
 800bb04:	e7f7      	b.n	800baf6 <mp3_update_play_callback+0x4a>
 800bb06:	e9d5 2403 	ldrd	r2, r4, [r5, #12]
 800bb0a:	2a00      	cmp	r2, #0
 800bb0c:	ddf9      	ble.n	800bb02 <mp3_update_play_callback+0x56>
 800bb0e:	1e50      	subs	r0, r2, #1
 800bb10:	eb04 0080 	add.w	r0, r4, r0, lsl #2
 800bb14:	eb04 0242 	add.w	r2, r4, r2, lsl #1
 800bb18:	f832 1d02 	ldrh.w	r1, [r2, #-2]!
 800bb1c:	2300      	movs	r3, #0
 800bb1e:	f361 030f 	bfi	r3, r1, #0, #16
 800bb22:	f361 431f 	bfi	r3, r1, #16, #16
 800bb26:	4294      	cmp	r4, r2
 800bb28:	f840 3904 	str.w	r3, [r0], #-4
 800bb2c:	d1f4      	bne.n	800bb18 <mp3_update_play_callback+0x6c>
 800bb2e:	e7e8      	b.n	800bb02 <mp3_update_play_callback+0x56>

0800bb30 <mp3_stop_callback>:
 800bb30:	b508      	push	{r3, lr}
 800bb32:	6a43      	ldr	r3, [r0, #36]	; 0x24
 800bb34:	685b      	ldr	r3, [r3, #4]
 800bb36:	6818      	ldr	r0, [r3, #0]
 800bb38:	f7fe fcf8 	bl	800a52c <MP3FreeDecoder>
 800bb3c:	2000      	movs	r0, #0
 800bb3e:	bd08      	pop	{r3, pc}

0800bb40 <PlayerAdd>:
 800bb40:	b5f8      	push	{r3, r4, r5, r6, r7, lr}
 800bb42:	4605      	mov	r5, r0
 800bb44:	460f      	mov	r7, r1
 800bb46:	2001      	movs	r0, #1
 800bb48:	2134      	movs	r1, #52	; 0x34
 800bb4a:	f001 facf 	bl	800d0ec <calloc>
 800bb4e:	2108      	movs	r1, #8
 800bb50:	4604      	mov	r4, r0
 800bb52:	2001      	movs	r0, #1
 800bb54:	f001 faca 	bl	800d0ec <calloc>
 800bb58:	4606      	mov	r6, r0
 800bb5a:	2010      	movs	r0, #16
 800bb5c:	f001 faf8 	bl	800d150 <malloc>
 800bb60:	e9d5 1200 	ldrd	r1, r2, [r5]
 800bb64:	4603      	mov	r3, r0
 800bb66:	7a28      	ldrb	r0, [r5, #8]
 800bb68:	6327      	str	r7, [r4, #48]	; 0x30
 800bb6a:	e9c3 1100 	strd	r1, r1, [r3]
 800bb6e:	e9c3 2202 	strd	r2, r2, [r3, #8]
 800bb72:	6033      	str	r3, [r6, #0]
 800bb74:	b190      	cbz	r0, 800bb9c <PlayerAdd+0x5c>
 800bb76:	2801      	cmp	r0, #1
 800bb78:	d020      	beq.n	800bbbc <PlayerAdd+0x7c>
 800bb7a:	6963      	ldr	r3, [r4, #20]
 800bb7c:	2203      	movs	r2, #3
 800bb7e:	f884 2020 	strb.w	r2, [r4, #32]
 800bb82:	4620      	mov	r0, r4
 800bb84:	4798      	blx	r3
 800bb86:	4a13      	ldr	r2, [pc, #76]	; (800bbd4 <PlayerAdd+0x94>)
 800bb88:	6813      	ldr	r3, [r2, #0]
 800bb8a:	b1a3      	cbz	r3, 800bbb6 <PlayerAdd+0x76>
 800bb8c:	461a      	mov	r2, r3
 800bb8e:	6a9b      	ldr	r3, [r3, #40]	; 0x28
 800bb90:	2b00      	cmp	r3, #0
 800bb92:	d1fb      	bne.n	800bb8c <PlayerAdd+0x4c>
 800bb94:	62e2      	str	r2, [r4, #44]	; 0x2c
 800bb96:	2000      	movs	r0, #0
 800bb98:	6294      	str	r4, [r2, #40]	; 0x28
 800bb9a:	bdf8      	pop	{r3, r4, r5, r6, r7, pc}
 800bb9c:	2120      	movs	r1, #32
 800bb9e:	2001      	movs	r0, #1
 800bba0:	f001 faa4 	bl	800d0ec <calloc>
 800bba4:	4a0c      	ldr	r2, [pc, #48]	; (800bbd8 <PlayerAdd+0x98>)
 800bba6:	4b0d      	ldr	r3, [pc, #52]	; (800bbdc <PlayerAdd+0x9c>)
 800bba8:	6070      	str	r0, [r6, #4]
 800bbaa:	e9c4 3205 	strd	r3, r2, [r4, #20]
 800bbae:	4a0c      	ldr	r2, [pc, #48]	; (800bbe0 <PlayerAdd+0xa0>)
 800bbb0:	61e2      	str	r2, [r4, #28]
 800bbb2:	6266      	str	r6, [r4, #36]	; 0x24
 800bbb4:	e7e2      	b.n	800bb7c <PlayerAdd+0x3c>
 800bbb6:	6014      	str	r4, [r2, #0]
 800bbb8:	2000      	movs	r0, #0
 800bbba:	bdf8      	pop	{r3, r4, r5, r6, r7, pc}
 800bbbc:	2104      	movs	r1, #4
 800bbbe:	f001 fa95 	bl	800d0ec <calloc>
 800bbc2:	4a08      	ldr	r2, [pc, #32]	; (800bbe4 <PlayerAdd+0xa4>)
 800bbc4:	4b08      	ldr	r3, [pc, #32]	; (800bbe8 <PlayerAdd+0xa8>)
 800bbc6:	6070      	str	r0, [r6, #4]
 800bbc8:	e9c4 3205 	strd	r3, r2, [r4, #20]
 800bbcc:	4a07      	ldr	r2, [pc, #28]	; (800bbec <PlayerAdd+0xac>)
 800bbce:	61e2      	str	r2, [r4, #28]
 800bbd0:	6266      	str	r6, [r4, #36]	; 0x24
 800bbd2:	e7d3      	b.n	800bb7c <PlayerAdd+0x3c>
 800bbd4:	200001a0 	.word	0x200001a0
 800bbd8:	0800baad 	.word	0x0800baad
 800bbdc:	0800ba81 	.word	0x0800ba81
 800bbe0:	0800bb31 	.word	0x0800bb31
 800bbe4:	0800bf7d 	.word	0x0800bf7d
 800bbe8:	0800be49 	.word	0x0800be49
 800bbec:	0800be6d 	.word	0x0800be6d

0800bbf0 <PlayerDel>:
 800bbf0:	b310      	cbz	r0, 800bc38 <PlayerDel+0x48>
 800bbf2:	b538      	push	{r3, r4, r5, lr}
 800bbf4:	e9d0 320a 	ldrd	r3, r2, [r0, #40]	; 0x28
 800bbf8:	4604      	mov	r4, r0
 800bbfa:	b1d2      	cbz	r2, 800bc32 <PlayerDel+0x42>
 800bbfc:	6293      	str	r3, [r2, #40]	; 0x28
 800bbfe:	b103      	cbz	r3, 800bc02 <PlayerDel+0x12>
 800bc00:	62da      	str	r2, [r3, #44]	; 0x2c
 800bc02:	2205      	movs	r2, #5
 800bc04:	69e3      	ldr	r3, [r4, #28]
 800bc06:	f884 2020 	strb.w	r2, [r4, #32]
 800bc0a:	4620      	mov	r0, r4
 800bc0c:	4798      	blx	r3
 800bc0e:	6a65      	ldr	r5, [r4, #36]	; 0x24
 800bc10:	b155      	cbz	r5, 800bc28 <PlayerDel+0x38>
 800bc12:	6868      	ldr	r0, [r5, #4]
 800bc14:	b108      	cbz	r0, 800bc1a <PlayerDel+0x2a>
 800bc16:	f001 faa3 	bl	800d160 <free>
 800bc1a:	6828      	ldr	r0, [r5, #0]
 800bc1c:	b108      	cbz	r0, 800bc22 <PlayerDel+0x32>
 800bc1e:	f001 fa9f 	bl	800d160 <free>
 800bc22:	4628      	mov	r0, r5
 800bc24:	f001 fa9c 	bl	800d160 <free>
 800bc28:	4620      	mov	r0, r4
 800bc2a:	e8bd 4038 	ldmia.w	sp!, {r3, r4, r5, lr}
 800bc2e:	f001 ba97 	b.w	800d160 <free>
 800bc32:	4902      	ldr	r1, [pc, #8]	; (800bc3c <PlayerDel+0x4c>)
 800bc34:	600b      	str	r3, [r1, #0]
 800bc36:	e7e2      	b.n	800bbfe <PlayerDel+0xe>
 800bc38:	4770      	bx	lr
 800bc3a:	bf00      	nop
 800bc3c:	200001a0 	.word	0x200001a0

0800bc40 <PlayerDelAll>:
 800bc40:	e92d 41f0 	stmdb	sp!, {r4, r5, r6, r7, r8, lr}
 800bc44:	b672      	cpsid	i
 800bc46:	f3bf 8f4f 	dsb	sy
 800bc4a:	f3bf 8f6f 	isb	sy
 800bc4e:	f8df 8084 	ldr.w	r8, [pc, #132]	; 800bcd4 <PlayerDelAll+0x94>
 800bc52:	f8d8 4000 	ldr.w	r4, [r8]
 800bc56:	2c00      	cmp	r4, #0
 800bc58:	d030      	beq.n	800bcbc <PlayerDelAll+0x7c>
 800bc5a:	e9d4 530a 	ldrd	r5, r3, [r4, #40]	; 0x28
 800bc5e:	2705      	movs	r7, #5
 800bc60:	b1eb      	cbz	r3, 800bc9e <PlayerDelAll+0x5e>
 800bc62:	629d      	str	r5, [r3, #40]	; 0x28
 800bc64:	b1fd      	cbz	r5, 800bca6 <PlayerDelAll+0x66>
 800bc66:	62eb      	str	r3, [r5, #44]	; 0x2c
 800bc68:	4620      	mov	r0, r4
 800bc6a:	69e3      	ldr	r3, [r4, #28]
 800bc6c:	f884 7020 	strb.w	r7, [r4, #32]
 800bc70:	4798      	blx	r3
 800bc72:	6a66      	ldr	r6, [r4, #36]	; 0x24
 800bc74:	b346      	cbz	r6, 800bcc8 <PlayerDelAll+0x88>
 800bc76:	6870      	ldr	r0, [r6, #4]
 800bc78:	b108      	cbz	r0, 800bc7e <PlayerDelAll+0x3e>
 800bc7a:	f001 fa71 	bl	800d160 <free>
 800bc7e:	6830      	ldr	r0, [r6, #0]
 800bc80:	b108      	cbz	r0, 800bc86 <PlayerDelAll+0x46>
 800bc82:	f001 fa6d 	bl	800d160 <free>
 800bc86:	4630      	mov	r0, r6
 800bc88:	f001 fa6a 	bl	800d160 <free>
 800bc8c:	4620      	mov	r0, r4
 800bc8e:	f001 fa67 	bl	800d160 <free>
 800bc92:	b19d      	cbz	r5, 800bcbc <PlayerDelAll+0x7c>
 800bc94:	462c      	mov	r4, r5
 800bc96:	e9d4 530a 	ldrd	r5, r3, [r4, #40]	; 0x28
 800bc9a:	2b00      	cmp	r3, #0
 800bc9c:	d1e1      	bne.n	800bc62 <PlayerDelAll+0x22>
 800bc9e:	f8c8 5000 	str.w	r5, [r8]
 800bca2:	2d00      	cmp	r5, #0
 800bca4:	d1df      	bne.n	800bc66 <PlayerDelAll+0x26>
 800bca6:	69e3      	ldr	r3, [r4, #28]
 800bca8:	f884 7020 	strb.w	r7, [r4, #32]
 800bcac:	4620      	mov	r0, r4
 800bcae:	4798      	blx	r3
 800bcb0:	6a66      	ldr	r6, [r4, #36]	; 0x24
 800bcb2:	2e00      	cmp	r6, #0
 800bcb4:	d1df      	bne.n	800bc76 <PlayerDelAll+0x36>
 800bcb6:	4620      	mov	r0, r4
 800bcb8:	f001 fa52 	bl	800d160 <free>
 800bcbc:	2300      	movs	r3, #0
 800bcbe:	f8c8 3000 	str.w	r3, [r8]
 800bcc2:	b662      	cpsie	i
 800bcc4:	e8bd 81f0 	ldmia.w	sp!, {r4, r5, r6, r7, r8, pc}
 800bcc8:	4620      	mov	r0, r4
 800bcca:	f001 fa49 	bl	800d160 <free>
 800bcce:	462c      	mov	r4, r5
 800bcd0:	e7e1      	b.n	800bc96 <PlayerDelAll+0x56>
 800bcd2:	bf00      	nop
 800bcd4:	200001a0 	.word	0x200001a0

0800bcd8 <PlayersUpdate>:
 800bcd8:	1c43      	adds	r3, r0, #1
 800bcda:	f000 809a 	beq.w	800be12 <PlayersUpdate+0x13a>
 800bcde:	e92d 4ff0 	stmdb	sp!, {r4, r5, r6, r7, r8, r9, sl, fp, lr}
 800bce2:	4e57      	ldr	r6, [pc, #348]	; (800be40 <PlayersUpdate+0x168>)
 800bce4:	eb00 03c0 	add.w	r3, r0, r0, lsl #3
 800bce8:	6830      	ldr	r0, [r6, #0]
 800bcea:	b083      	sub	sp, #12
 800bcec:	eb00 2043 	add.w	r0, r0, r3, lsl #9
 800bcf0:	f44f 5290 	mov.w	r2, #4608	; 0x1200
 800bcf4:	025b      	lsls	r3, r3, #9
 800bcf6:	2100      	movs	r1, #0
 800bcf8:	9300      	str	r3, [sp, #0]
 800bcfa:	f001 fa61 	bl	800d1c0 <memset>
 800bcfe:	4b51      	ldr	r3, [pc, #324]	; (800be44 <PlayersUpdate+0x16c>)
 800bd00:	f8d3 8000 	ldr.w	r8, [r3]
 800bd04:	f1b8 0f00 	cmp.w	r8, #0
 800bd08:	d028      	beq.n	800bd5c <PlayersUpdate+0x84>
 800bd0a:	9b00      	ldr	r3, [sp, #0]
 800bd0c:	3b02      	subs	r3, #2
 800bd0e:	2500      	movs	r5, #0
 800bd10:	2704      	movs	r7, #4
 800bd12:	9301      	str	r3, [sp, #4]
 800bd14:	f8d8 4028 	ldr.w	r4, [r8, #40]	; 0x28
 800bd18:	2d00      	cmp	r5, #0
 800bd1a:	f040 808d 	bne.w	800be38 <PlayersUpdate+0x160>
 800bd1e:	6833      	ldr	r3, [r6, #0]
 800bd20:	9900      	ldr	r1, [sp, #0]
 800bd22:	f8d8 2018 	ldr.w	r2, [r8, #24]
 800bd26:	f888 7020 	strb.w	r7, [r8, #32]
 800bd2a:	440b      	add	r3, r1
 800bd2c:	f8c8 3010 	str.w	r3, [r8, #16]
 800bd30:	4640      	mov	r0, r8
 800bd32:	4790      	blx	r2
 800bd34:	b1b0      	cbz	r0, 800bd64 <PlayersUpdate+0x8c>
 800bd36:	4623      	mov	r3, r4
 800bd38:	4644      	mov	r4, r8
 800bd3a:	4698      	mov	r8, r3
 800bd3c:	6b23      	ldr	r3, [r4, #48]	; 0x30
 800bd3e:	2b00      	cmp	r3, #0
 800bd40:	d060      	beq.n	800be04 <PlayersUpdate+0x12c>
 800bd42:	6a62      	ldr	r2, [r4, #36]	; 0x24
 800bd44:	6811      	ldr	r1, [r2, #0]
 800bd46:	680a      	ldr	r2, [r1, #0]
 800bd48:	604a      	str	r2, [r1, #4]
 800bd4a:	1c58      	adds	r0, r3, #1
 800bd4c:	688a      	ldr	r2, [r1, #8]
 800bd4e:	60ca      	str	r2, [r1, #12]
 800bd50:	d001      	beq.n	800bd56 <PlayersUpdate+0x7e>
 800bd52:	3b01      	subs	r3, #1
 800bd54:	6323      	str	r3, [r4, #48]	; 0x30
 800bd56:	f1b8 0f00 	cmp.w	r8, #0
 800bd5a:	d1db      	bne.n	800bd14 <PlayersUpdate+0x3c>
 800bd5c:	2000      	movs	r0, #0
 800bd5e:	b003      	add	sp, #12
 800bd60:	e8bd 8ff0 	ldmia.w	sp!, {r4, r5, r6, r7, r8, r9, sl, fp, pc}
 800bd64:	2c00      	cmp	r4, #0
 800bd66:	d0f9      	beq.n	800bd5c <PlayersUpdate+0x84>
 800bd68:	f8d4 8028 	ldr.w	r8, [r4, #40]	; 0x28
 800bd6c:	6833      	ldr	r3, [r6, #0]
 800bd6e:	69a2      	ldr	r2, [r4, #24]
 800bd70:	f884 7020 	strb.w	r7, [r4, #32]
 800bd74:	f503 5310 	add.w	r3, r3, #9216	; 0x2400
 800bd78:	6123      	str	r3, [r4, #16]
 800bd7a:	4620      	mov	r0, r4
 800bd7c:	4790      	blx	r2
 800bd7e:	2800      	cmp	r0, #0
 800bd80:	d13c      	bne.n	800bdfc <PlayersUpdate+0x124>
 800bd82:	6923      	ldr	r3, [r4, #16]
 800bd84:	6832      	ldr	r2, [r6, #0]
 800bd86:	9800      	ldr	r0, [sp, #0]
 800bd88:	1c99      	adds	r1, r3, #2
 800bd8a:	1810      	adds	r0, r2, r0
 800bd8c:	1a41      	subs	r1, r0, r1
 800bd8e:	2904      	cmp	r1, #4
 800bd90:	d941      	bls.n	800be16 <PlayersUpdate+0x13e>
 800bd92:	ea43 0100 	orr.w	r1, r3, r0
 800bd96:	0749      	lsls	r1, r1, #29
 800bd98:	d13d      	bne.n	800be16 <PlayersUpdate+0x13e>
 800bd9a:	f1a3 0108 	sub.w	r1, r3, #8
 800bd9e:	f1a0 0508 	sub.w	r5, r0, #8
 800bda2:	f500 5c90 	add.w	ip, r0, #4608	; 0x1200
 800bda6:	f855 2f08 	ldr.w	r2, [r5, #8]!
 800bdaa:	f851 af08 	ldr.w	sl, [r1, #8]!
 800bdae:	f8d5 e004 	ldr.w	lr, [r5, #4]
 800bdb2:	684b      	ldr	r3, [r1, #4]
 800bdb4:	f04f 0900 	mov.w	r9, #0
 800bdb8:	eb0a 0b02 	add.w	fp, sl, r2
 800bdbc:	f3c2 420f 	ubfx	r2, r2, #16, #16
 800bdc0:	464c      	mov	r4, r9
 800bdc2:	eb02 421a 	add.w	r2, r2, sl, lsr #16
 800bdc6:	f36b 090f 	bfi	r9, fp, #0, #16
 800bdca:	f362 491f 	bfi	r9, r2, #16, #16
 800bdce:	eb0e 0203 	add.w	r2, lr, r3
 800bdd2:	f3c3 430f 	ubfx	r3, r3, #16, #16
 800bdd6:	f362 040f 	bfi	r4, r2, #0, #16
 800bdda:	eb03 431e 	add.w	r3, r3, lr, lsr #16
 800bdde:	f363 441f 	bfi	r4, r3, #16, #16
 800bde2:	f8c0 9000 	str.w	r9, [r0]
 800bde6:	6044      	str	r4, [r0, #4]
 800bde8:	3008      	adds	r0, #8
 800bdea:	4560      	cmp	r0, ip
 800bdec:	d1db      	bne.n	800bda6 <PlayersUpdate+0xce>
 800bdee:	f1b8 0f00 	cmp.w	r8, #0
 800bdf2:	d0b3      	beq.n	800bd5c <PlayersUpdate+0x84>
 800bdf4:	4644      	mov	r4, r8
 800bdf6:	f8d8 8028 	ldr.w	r8, [r8, #40]	; 0x28
 800bdfa:	e7b7      	b.n	800bd6c <PlayersUpdate+0x94>
 800bdfc:	6b23      	ldr	r3, [r4, #48]	; 0x30
 800bdfe:	2501      	movs	r5, #1
 800be00:	2b00      	cmp	r3, #0
 800be02:	d19e      	bne.n	800bd42 <PlayersUpdate+0x6a>
 800be04:	4620      	mov	r0, r4
 800be06:	f7ff fef3 	bl	800bbf0 <PlayerDel>
 800be0a:	f1b8 0f00 	cmp.w	r8, #0
 800be0e:	d181      	bne.n	800bd14 <PlayersUpdate+0x3c>
 800be10:	e7a4      	b.n	800bd5c <PlayersUpdate+0x84>
 800be12:	2001      	movs	r0, #1
 800be14:	4770      	bx	lr
 800be16:	9901      	ldr	r1, [sp, #4]
 800be18:	f502 548f 	add.w	r4, r2, #4576	; 0x11e0
 800be1c:	440a      	add	r2, r1
 800be1e:	9900      	ldr	r1, [sp, #0]
 800be20:	341e      	adds	r4, #30
 800be22:	3b02      	subs	r3, #2
 800be24:	440c      	add	r4, r1
 800be26:	f832 1f02 	ldrh.w	r1, [r2, #2]!
 800be2a:	f833 0f02 	ldrh.w	r0, [r3, #2]!
 800be2e:	42a2      	cmp	r2, r4
 800be30:	4401      	add	r1, r0
 800be32:	8011      	strh	r1, [r2, #0]
 800be34:	d1f7      	bne.n	800be26 <PlayersUpdate+0x14e>
 800be36:	e7da      	b.n	800bdee <PlayersUpdate+0x116>
 800be38:	4623      	mov	r3, r4
 800be3a:	4644      	mov	r4, r8
 800be3c:	4698      	mov	r8, r3
 800be3e:	e795      	b.n	800bd6c <PlayersUpdate+0x94>
 800be40:	2000019c 	.word	0x2000019c
 800be44:	200001a0 	.word	0x200001a0

0800be48 <wav_start_play_callback>:
 800be48:	6a42      	ldr	r2, [r0, #36]	; 0x24
 800be4a:	b430      	push	{r4, r5}
 800be4c:	6812      	ldr	r2, [r2, #0]
 800be4e:	4603      	mov	r3, r0
 800be50:	6810      	ldr	r0, [r2, #0]
 800be52:	6050      	str	r0, [r2, #4]
 800be54:	2501      	movs	r5, #1
 800be56:	6890      	ldr	r0, [r2, #8]
 800be58:	60d0      	str	r0, [r2, #12]
 800be5a:	f44f 6490 	mov.w	r4, #1152	; 0x480
 800be5e:	2108      	movs	r1, #8
 800be60:	2000      	movs	r0, #0
 800be62:	601d      	str	r5, [r3, #0]
 800be64:	60dc      	str	r4, [r3, #12]
 800be66:	6059      	str	r1, [r3, #4]
 800be68:	bc30      	pop	{r4, r5}
 800be6a:	4770      	bx	lr

0800be6c <wav_stop_callback>:
 800be6c:	2000      	movs	r0, #0
 800be6e:	4770      	bx	lr

0800be70 <WAV_Decoder>:
 800be70:	e92d 4ff0 	stmdb	sp!, {r4, r5, r6, r7, r8, r9, sl, fp, lr}
 800be74:	e9d0 7500 	ldrd	r7, r5, [r0]
 800be78:	f8dd c024 	ldr.w	ip, [sp, #36]	; 0x24
 800be7c:	6814      	ldr	r4, [r2, #0]
 800be7e:	fb05 f607 	mul.w	r6, r5, r7
 800be82:	08f6      	lsrs	r6, r6, #3
 800be84:	fbb4 f8f6 	udiv	r8, r4, r6
 800be88:	f1bc 0f00 	cmp.w	ip, #0
 800be8c:	d070      	beq.n	800bf70 <WAV_Decoder+0x100>
 800be8e:	42b4      	cmp	r4, r6
 800be90:	4660      	mov	r0, ip
 800be92:	d348      	bcc.n	800bf26 <WAV_Decoder+0xb6>
 800be94:	fa5f f987 	uxtb.w	r9, r7
 800be98:	f109 3eff 	add.w	lr, r9, #4294967295
 800be9c:	fa5f fe8e 	uxtb.w	lr, lr
 800bea0:	f10e 0e01 	add.w	lr, lr, #1
 800bea4:	ed9f 7a34 	vldr	s14, [pc, #208]	; 800bf78 <WAV_Decoder+0x108>
 800bea8:	eba8 080c 	sub.w	r8, r8, ip
 800beac:	ea4f 0e4e 	mov.w	lr, lr, lsl #1
 800beb0:	f1b9 0f00 	cmp.w	r9, #0
 800beb4:	d05a      	beq.n	800bf6c <WAV_Decoder+0xfc>
 800beb6:	eb03 0c0e 	add.w	ip, r3, lr
 800beba:	e014      	b.n	800bee6 <WAV_Decoder+0x76>
 800bebc:	2d18      	cmp	r5, #24
 800bebe:	d034      	beq.n	800bf2a <WAV_Decoder+0xba>
 800bec0:	2d10      	cmp	r5, #16
 800bec2:	d044      	beq.n	800bf4e <WAV_Decoder+0xde>
 800bec4:	2d08      	cmp	r5, #8
 800bec6:	d10b      	bne.n	800bee0 <WAV_Decoder+0x70>
 800bec8:	f8d1 a000 	ldr.w	sl, [r1]
 800becc:	f81a 6b01 	ldrb.w	r6, [sl], #1
 800bed0:	f1c6 0680 	rsb	r6, r6, #128	; 0x80
 800bed4:	3c01      	subs	r4, #1
 800bed6:	0236      	lsls	r6, r6, #8
 800bed8:	801e      	strh	r6, [r3, #0]
 800beda:	f8c1 a000 	str.w	sl, [r1]
 800bede:	6014      	str	r4, [r2, #0]
 800bee0:	3302      	adds	r3, #2
 800bee2:	4563      	cmp	r3, ip
 800bee4:	d012      	beq.n	800bf0c <WAV_Decoder+0x9c>
 800bee6:	2d20      	cmp	r5, #32
 800bee8:	d1e8      	bne.n	800bebc <WAV_Decoder+0x4c>
 800beea:	680e      	ldr	r6, [r1, #0]
 800beec:	ecf6 7a01 	vldmia	r6!, {s15}
 800bef0:	ee67 7a87 	vmul.f32	s15, s15, s14
 800bef4:	3302      	adds	r3, #2
 800bef6:	eefd 7ae7 	vcvt.s32.f32	s15, s15
 800befa:	3c04      	subs	r4, #4
 800befc:	ee17 aa90 	vmov	sl, s15
 800bf00:	f823 ac02 	strh.w	sl, [r3, #-2]
 800bf04:	4563      	cmp	r3, ip
 800bf06:	600e      	str	r6, [r1, #0]
 800bf08:	6014      	str	r4, [r2, #0]
 800bf0a:	d1ec      	bne.n	800bee6 <WAV_Decoder+0x76>
 800bf0c:	2f01      	cmp	r7, #1
 800bf0e:	bf03      	ittte	eq
 800bf10:	4663      	moveq	r3, ip
 800bf12:	f83c 6c02 	ldrheq.w	r6, [ip, #-2]
 800bf16:	f823 6b02 	strheq.w	r6, [r3], #2
 800bf1a:	4663      	movne	r3, ip
 800bf1c:	3801      	subs	r0, #1
 800bf1e:	d027      	beq.n	800bf70 <WAV_Decoder+0x100>
 800bf20:	eb18 0f00 	cmn.w	r8, r0
 800bf24:	d1c4      	bne.n	800beb0 <WAV_Decoder+0x40>
 800bf26:	e8bd 8ff0 	ldmia.w	sp!, {r4, r5, r6, r7, r8, r9, sl, fp, pc}
 800bf2a:	680e      	ldr	r6, [r1, #0]
 800bf2c:	f106 0a01 	add.w	sl, r6, #1
 800bf30:	f8c1 a000 	str.w	sl, [r1]
 800bf34:	f896 b002 	ldrb.w	fp, [r6, #2]
 800bf38:	f896 a001 	ldrb.w	sl, [r6, #1]
 800bf3c:	3c03      	subs	r4, #3
 800bf3e:	3603      	adds	r6, #3
 800bf40:	eb0a 2a0b 	add.w	sl, sl, fp, lsl #8
 800bf44:	f8a3 a000 	strh.w	sl, [r3]
 800bf48:	600e      	str	r6, [r1, #0]
 800bf4a:	6014      	str	r4, [r2, #0]
 800bf4c:	e7c8      	b.n	800bee0 <WAV_Decoder+0x70>
 800bf4e:	f8d1 a000 	ldr.w	sl, [r1]
 800bf52:	4656      	mov	r6, sl
 800bf54:	f89a b001 	ldrb.w	fp, [sl, #1]
 800bf58:	f816 ab02 	ldrb.w	sl, [r6], #2
 800bf5c:	3c02      	subs	r4, #2
 800bf5e:	eb0a 2a0b 	add.w	sl, sl, fp, lsl #8
 800bf62:	f8a3 a000 	strh.w	sl, [r3]
 800bf66:	600e      	str	r6, [r1, #0]
 800bf68:	6014      	str	r4, [r2, #0]
 800bf6a:	e7b9      	b.n	800bee0 <WAV_Decoder+0x70>
 800bf6c:	469c      	mov	ip, r3
 800bf6e:	e7cd      	b.n	800bf0c <WAV_Decoder+0x9c>
 800bf70:	2000      	movs	r0, #0
 800bf72:	e8bd 8ff0 	ldmia.w	sp!, {r4, r5, r6, r7, r8, r9, sl, fp, pc}
 800bf76:	bf00      	nop
 800bf78:	46fffe00 	.word	0x46fffe00

0800bf7c <wav_update_play_callback>:
 800bf7c:	b510      	push	{r4, lr}
 800bf7e:	6a43      	ldr	r3, [r0, #36]	; 0x24
 800bf80:	68c2      	ldr	r2, [r0, #12]
 800bf82:	6819      	ldr	r1, [r3, #0]
 800bf84:	6903      	ldr	r3, [r0, #16]
 800bf86:	b082      	sub	sp, #8
 800bf88:	4604      	mov	r4, r0
 800bf8a:	9200      	str	r2, [sp, #0]
 800bf8c:	f101 020c 	add.w	r2, r1, #12
 800bf90:	3104      	adds	r1, #4
 800bf92:	f7ff ff6d 	bl	800be70 <WAV_Decoder>
 800bf96:	4602      	mov	r2, r0
 800bf98:	b908      	cbnz	r0, 800bf9e <wav_update_play_callback+0x22>
 800bf9a:	b002      	add	sp, #8
 800bf9c:	bd10      	pop	{r4, pc}
 800bf9e:	e9d4 3003 	ldrd	r3, r0, [r4, #12]
 800bfa2:	1a9b      	subs	r3, r3, r2
 800bfa4:	eb00 0083 	add.w	r0, r0, r3, lsl #2
 800bfa8:	0092      	lsls	r2, r2, #2
 800bfaa:	2100      	movs	r1, #0
 800bfac:	f001 f908 	bl	800d1c0 <memset>
 800bfb0:	2002      	movs	r0, #2
 800bfb2:	b002      	add	sp, #8
 800bfb4:	bd10      	pop	{r4, pc}
 800bfb6:	bf00      	nop

0800bfb8 <I2S3_Init>:
 800bfb8:	b530      	push	{r4, r5, lr}
 800bfba:	2300      	movs	r3, #0
 800bfbc:	b091      	sub	sp, #68	; 0x44
 800bfbe:	e9cd 3304 	strd	r3, r3, [sp, #16]
 800bfc2:	e9cd 3306 	strd	r3, r3, [sp, #24]
 800bfc6:	e9cd 3308 	strd	r3, r3, [sp, #32]
 800bfca:	e9cd 330a 	strd	r3, r3, [sp, #40]	; 0x28
 800bfce:	e9cd 330c 	strd	r3, r3, [sp, #48]	; 0x30
 800bfd2:	e9cd 330e 	strd	r3, r3, [sp, #56]	; 0x38
 800bfd6:	4c5e      	ldr	r4, [pc, #376]	; (800c150 <I2S3_Init+0x198>)
 800bfd8:	4a5e      	ldr	r2, [pc, #376]	; (800c154 <I2S3_Init+0x19c>)
 800bfda:	6c23      	ldr	r3, [r4, #64]	; 0x40
 800bfdc:	f443 4300 	orr.w	r3, r3, #32768	; 0x8000
 800bfe0:	6423      	str	r3, [r4, #64]	; 0x40
 800bfe2:	6c23      	ldr	r3, [r4, #64]	; 0x40
 800bfe4:	f403 4300 	and.w	r3, r3, #32768	; 0x8000
 800bfe8:	9302      	str	r3, [sp, #8]
 800bfea:	9b02      	ldr	r3, [sp, #8]
 800bfec:	6b23      	ldr	r3, [r4, #48]	; 0x30
 800bfee:	f043 0302 	orr.w	r3, r3, #2
 800bff2:	6323      	str	r3, [r4, #48]	; 0x30
 800bff4:	6b23      	ldr	r3, [r4, #48]	; 0x30
 800bff6:	f003 0302 	and.w	r3, r3, #2
 800bffa:	9301      	str	r3, [sp, #4]
 800bffc:	9b01      	ldr	r3, [sp, #4]
 800bffe:	6b23      	ldr	r3, [r4, #48]	; 0x30
 800c000:	f043 0301 	orr.w	r3, r3, #1
 800c004:	6323      	str	r3, [r4, #48]	; 0x30
 800c006:	6b23      	ldr	r3, [r4, #48]	; 0x30
 800c008:	f003 0301 	and.w	r3, r3, #1
 800c00c:	9300      	str	r3, [sp, #0]
 800c00e:	9b00      	ldr	r3, [sp, #0]
 800c010:	f8d2 3804 	ldr.w	r3, [r2, #2052]	; 0x804
 800c014:	f443 0380 	orr.w	r3, r3, #4194304	; 0x400000
 800c018:	f8c2 3804 	str.w	r3, [r2, #2052]	; 0x804
 800c01c:	6862      	ldr	r2, [r4, #4]
 800c01e:	4b4e      	ldr	r3, [pc, #312]	; (800c158 <I2S3_Init+0x1a0>)
 800c020:	f022 023f 	bic.w	r2, r2, #63	; 0x3f
 800c024:	f042 0219 	orr.w	r2, r2, #25
 800c028:	6062      	str	r2, [r4, #4]
 800c02a:	f8d4 2084 	ldr.w	r2, [r4, #132]	; 0x84
 800c02e:	4013      	ands	r3, r2
 800c030:	f043 5300 	orr.w	r3, r3, #536870912	; 0x20000000
 800c034:	f443 4397 	orr.w	r3, r3, #19328	; 0x4b80
 800c038:	f8c4 3084 	str.w	r3, [r4, #132]	; 0x84
 800c03c:	6823      	ldr	r3, [r4, #0]
 800c03e:	f043 6380 	orr.w	r3, r3, #67108864	; 0x4000000
 800c042:	6023      	str	r3, [r4, #0]
 800c044:	6823      	ldr	r3, [r4, #0]
 800c046:	011b      	lsls	r3, r3, #4
 800c048:	d5fc      	bpl.n	800c044 <I2S3_Init+0x8c>
 800c04a:	68a3      	ldr	r3, [r4, #8]
 800c04c:	4843      	ldr	r0, [pc, #268]	; (800c15c <I2S3_Init+0x1a4>)
 800c04e:	f423 0300 	bic.w	r3, r3, #8388608	; 0x800000
 800c052:	60a3      	str	r3, [r4, #8]
 800c054:	2228      	movs	r2, #40	; 0x28
 800c056:	2302      	movs	r3, #2
 800c058:	e9cd 230a 	strd	r2, r3, [sp, #40]	; 0x28
 800c05c:	2203      	movs	r2, #3
 800c05e:	2300      	movs	r3, #0
 800c060:	e9cd 230c 	strd	r2, r3, [sp, #48]	; 0x30
 800c064:	a90a      	add	r1, sp, #40	; 0x28
 800c066:	2200      	movs	r2, #0
 800c068:	2306      	movs	r3, #6
 800c06a:	e9cd 230e 	strd	r2, r3, [sp, #56]	; 0x38
 800c06e:	f7f8 fd57 	bl	8004b20 <LL_GPIO_Init>
 800c072:	a90a      	add	r1, sp, #40	; 0x28
 800c074:	f44f 4300 	mov.w	r3, #32768	; 0x8000
 800c078:	4839      	ldr	r0, [pc, #228]	; (800c160 <I2S3_Init+0x1a8>)
 800c07a:	930a      	str	r3, [sp, #40]	; 0x28
 800c07c:	f7f8 fd50 	bl	8004b20 <LL_GPIO_Init>
 800c080:	6b23      	ldr	r3, [r4, #48]	; 0x30
 800c082:	4a38      	ldr	r2, [pc, #224]	; (800c164 <I2S3_Init+0x1ac>)
 800c084:	f443 1300 	orr.w	r3, r3, #2097152	; 0x200000
 800c088:	6323      	str	r3, [r4, #48]	; 0x30
 800c08a:	6b23      	ldr	r3, [r4, #48]	; 0x30
 800c08c:	4c36      	ldr	r4, [pc, #216]	; (800c168 <I2S3_Init+0x1b0>)
 800c08e:	f403 1300 	and.w	r3, r3, #2097152	; 0x200000
 800c092:	9303      	str	r3, [sp, #12]
 800c094:	2000      	movs	r0, #0
 800c096:	4b35      	ldr	r3, [pc, #212]	; (800c16c <I2S3_Init+0x1b4>)
 800c098:	9d03      	ldr	r5, [sp, #12]
 800c09a:	68e4      	ldr	r4, [r4, #12]
 800c09c:	f882 0310 	strb.w	r0, [r2, #784]	; 0x310
 800c0a0:	f44f 3180 	mov.w	r1, #65536	; 0x10000
 800c0a4:	6011      	str	r1, [r2, #0]
 800c0a6:	f8d3 2088 	ldr.w	r2, [r3, #136]	; 0x88
 800c0aa:	4831      	ldr	r0, [pc, #196]	; (800c170 <I2S3_Init+0x1b8>)
 800c0ac:	f022 6260 	bic.w	r2, r2, #234881024	; 0xe000000
 800c0b0:	f8c3 2088 	str.w	r2, [r3, #136]	; 0x88
 800c0b4:	f8d3 2088 	ldr.w	r2, [r3, #136]	; 0x88
 800c0b8:	f022 02c0 	bic.w	r2, r2, #192	; 0xc0
 800c0bc:	f042 0240 	orr.w	r2, r2, #64	; 0x40
 800c0c0:	f8c3 2088 	str.w	r2, [r3, #136]	; 0x88
 800c0c4:	f8d3 2088 	ldr.w	r2, [r3, #136]	; 0x88
 800c0c8:	f442 3240 	orr.w	r2, r2, #196608	; 0x30000
 800c0cc:	f8c3 2088 	str.w	r2, [r3, #136]	; 0x88
 800c0d0:	f8d3 2088 	ldr.w	r2, [r3, #136]	; 0x88
 800c0d4:	f422 7290 	bic.w	r2, r2, #288	; 0x120
 800c0d8:	f442 7280 	orr.w	r2, r2, #256	; 0x100
 800c0dc:	f8c3 2088 	str.w	r2, [r3, #136]	; 0x88
 800c0e0:	f8d3 2088 	ldr.w	r2, [r3, #136]	; 0x88
 800c0e4:	f422 7200 	bic.w	r2, r2, #512	; 0x200
 800c0e8:	f8c3 2088 	str.w	r2, [r3, #136]	; 0x88
 800c0ec:	f8d3 2088 	ldr.w	r2, [r3, #136]	; 0x88
 800c0f0:	f442 6280 	orr.w	r2, r2, #1024	; 0x400
 800c0f4:	f8c3 2088 	str.w	r2, [r3, #136]	; 0x88
 800c0f8:	f8d3 2088 	ldr.w	r2, [r3, #136]	; 0x88
 800c0fc:	f422 52c0 	bic.w	r2, r2, #6144	; 0x1800
 800c100:	f442 6200 	orr.w	r2, r2, #2048	; 0x800
 800c104:	f8c3 2088 	str.w	r2, [r3, #136]	; 0x88
 800c108:	f8d3 2088 	ldr.w	r2, [r3, #136]	; 0x88
 800c10c:	f422 42c0 	bic.w	r2, r2, #24576	; 0x6000
 800c110:	f442 5200 	orr.w	r2, r2, #8192	; 0x2000
 800c114:	f8c3 2088 	str.w	r2, [r3, #136]	; 0x88
 800c118:	f8d3 209c 	ldr.w	r2, [r3, #156]	; 0x9c
 800c11c:	ed9f 7b0a 	vldr	d7, [pc, #40]	; 800c148 <I2S3_Init+0x190>
 800c120:	f022 0204 	bic.w	r2, r2, #4
 800c124:	f8c3 209c 	str.w	r2, [r3, #156]	; 0x9c
 800c128:	2201      	movs	r2, #1
 800c12a:	2300      	movs	r3, #0
 800c12c:	e9cd 2306 	strd	r2, r3, [sp, #24]
 800c130:	a904      	add	r1, sp, #16
 800c132:	f64a 4244 	movw	r2, #44100	; 0xac44
 800c136:	2300      	movs	r3, #0
 800c138:	ed8d 7b04 	vstr	d7, [sp, #16]
 800c13c:	e9cd 2308 	strd	r2, r3, [sp, #32]
 800c140:	f7f8 fdfe 	bl	8004d40 <LL_I2S_Init>
 800c144:	b011      	add	sp, #68	; 0x44
 800c146:	bd30      	pop	{r4, r5, pc}
 800c148:	00000200 	.word	0x00000200
 800c14c:	00000000 	.word	0x00000000
 800c150:	40023800 	.word	0x40023800
 800c154:	40023000 	.word	0x40023000
 800c158:	8fff803f 	.word	0x8fff803f
 800c15c:	40020400 	.word	0x40020400
 800c160:	40020000 	.word	0x40020000
 800c164:	e000e100 	.word	0xe000e100
 800c168:	e000ed00 	.word	0xe000ed00
 800c16c:	40026000 	.word	0x40026000
 800c170:	40003c00 	.word	0x40003c00

0800c174 <Start_DAC_DMA>:
 800c174:	e92d 47f0 	stmdb	sp!, {r4, r5, r6, r7, r8, r9, sl, lr}
 800c178:	b0b0      	sub	sp, #192	; 0xc0
 800c17a:	461e      	mov	r6, r3
 800c17c:	4680      	mov	r8, r0
 800c17e:	2300      	movs	r3, #0
 800c180:	460f      	mov	r7, r1
 800c182:	4691      	mov	r9, r2
 800c184:	496b      	ldr	r1, [pc, #428]	; (800c334 <Start_DAC_DMA+0x1c0>)
 800c186:	22a0      	movs	r2, #160	; 0xa0
 800c188:	a808      	add	r0, sp, #32
 800c18a:	e9cd 3302 	strd	r3, r3, [sp, #8]
 800c18e:	e9cd 3304 	strd	r3, r3, [sp, #16]
 800c192:	e9cd 3306 	strd	r3, r3, [sp, #24]
 800c196:	f000 ffeb 	bl	800d170 <memcpy>
 800c19a:	f5b6 5ffa 	cmp.w	r6, #8000	; 0x1f40
 800c19e:	d023      	beq.n	800c1e8 <Start_DAC_DMA+0x74>
 800c1a0:	f5b6 5f7a 	cmp.w	r6, #16000	; 0x3e80
 800c1a4:	f000 80ba 	beq.w	800c31c <Start_DAC_DMA+0x1a8>
 800c1a8:	f245 6322 	movw	r3, #22050	; 0x5622
 800c1ac:	429e      	cmp	r6, r3
 800c1ae:	f000 80b7 	beq.w	800c320 <Start_DAC_DMA+0x1ac>
 800c1b2:	f5b6 4ffa 	cmp.w	r6, #32000	; 0x7d00
 800c1b6:	f000 80b5 	beq.w	800c324 <Start_DAC_DMA+0x1b0>
 800c1ba:	f64a 4344 	movw	r3, #44100	; 0xac44
 800c1be:	429e      	cmp	r6, r3
 800c1c0:	f000 80b2 	beq.w	800c328 <Start_DAC_DMA+0x1b4>
 800c1c4:	f64b 3380 	movw	r3, #48000	; 0xbb80
 800c1c8:	429e      	cmp	r6, r3
 800c1ca:	f000 80af 	beq.w	800c32c <Start_DAC_DMA+0x1b8>
 800c1ce:	4b5a      	ldr	r3, [pc, #360]	; (800c338 <Start_DAC_DMA+0x1c4>)
 800c1d0:	429e      	cmp	r6, r3
 800c1d2:	f000 80ad 	beq.w	800c330 <Start_DAC_DMA+0x1bc>
 800c1d6:	4b59      	ldr	r3, [pc, #356]	; (800c33c <Start_DAC_DMA+0x1c8>)
 800c1d8:	429e      	cmp	r6, r3
 800c1da:	bf08      	it	eq
 800c1dc:	aa2b      	addeq	r2, sp, #172	; 0xac
 800c1de:	d004      	beq.n	800c1ea <Start_DAC_DMA+0x76>
 800c1e0:	2001      	movs	r0, #1
 800c1e2:	b030      	add	sp, #192	; 0xc0
 800c1e4:	e8bd 87f0 	ldmia.w	sp!, {r4, r5, r6, r7, r8, r9, sl, pc}
 800c1e8:	aa08      	add	r2, sp, #32
 800c1ea:	9b38      	ldr	r3, [sp, #224]	; 0xe0
 800c1ec:	2b01      	cmp	r3, #1
 800c1ee:	bf95      	itete	ls
 800c1f0:	e9d2 1001 	ldrdls	r1, r0, [r2, #4]
 800c1f4:	e9d2 1003 	ldrdhi	r1, r0, [r2, #12]
 800c1f8:	f04f 0a02 	movls.w	sl, #2
 800c1fc:	f04f 0a01 	movhi.w	sl, #1
 800c200:	2900      	cmp	r1, #0
 800c202:	d0ed      	beq.n	800c1e0 <Start_DAC_DMA+0x6c>
 800c204:	f8d8 301c 	ldr.w	r3, [r8, #28]
 800c208:	4c4d      	ldr	r4, [pc, #308]	; (800c340 <Start_DAC_DMA+0x1cc>)
 800c20a:	4d4e      	ldr	r5, [pc, #312]	; (800c344 <Start_DAC_DMA+0x1d0>)
 800c20c:	f423 6380 	bic.w	r3, r3, #1024	; 0x400
 800c210:	f8c8 301c 	str.w	r3, [r8, #28]
 800c214:	6823      	ldr	r3, [r4, #0]
 800c216:	f023 6380 	bic.w	r3, r3, #67108864	; 0x4000000
 800c21a:	6023      	str	r3, [r4, #0]
 800c21c:	f8d5 2804 	ldr.w	r2, [r5, #2052]	; 0x804
 800c220:	4b49      	ldr	r3, [pc, #292]	; (800c348 <Start_DAC_DMA+0x1d4>)
 800c222:	f442 0280 	orr.w	r2, r2, #4194304	; 0x400000
 800c226:	f8c5 2804 	str.w	r2, [r5, #2052]	; 0x804
 800c22a:	6862      	ldr	r2, [r4, #4]
 800c22c:	f022 023f 	bic.w	r2, r2, #63	; 0x3f
 800c230:	f042 0219 	orr.w	r2, r2, #25
 800c234:	6062      	str	r2, [r4, #4]
 800c236:	f8d4 2084 	ldr.w	r2, [r4, #132]	; 0x84
 800c23a:	4013      	ands	r3, r2
 800c23c:	4303      	orrs	r3, r0
 800c23e:	ea43 1381 	orr.w	r3, r3, r1, lsl #6
 800c242:	f8c4 3084 	str.w	r3, [r4, #132]	; 0x84
 800c246:	f04f 6380 	mov.w	r3, #67108864	; 0x4000000
 800c24a:	6023      	str	r3, [r4, #0]
 800c24c:	6823      	ldr	r3, [r4, #0]
 800c24e:	0118      	lsls	r0, r3, #4
 800c250:	d403      	bmi.n	800c25a <Start_DAC_DMA+0xe6>
 800c252:	bf00      	nop
 800c254:	6825      	ldr	r5, [r4, #0]
 800c256:	0129      	lsls	r1, r5, #4
 800c258:	d5fb      	bpl.n	800c252 <Start_DAC_DMA+0xde>
 800c25a:	9b38      	ldr	r3, [sp, #224]	; 0xe0
 800c25c:	9304      	str	r3, [sp, #16]
 800c25e:	2300      	movs	r3, #0
 800c260:	f44f 7200 	mov.w	r2, #512	; 0x200
 800c264:	a902      	add	r1, sp, #8
 800c266:	9305      	str	r3, [sp, #20]
 800c268:	9307      	str	r3, [sp, #28]
 800c26a:	4640      	mov	r0, r8
 800c26c:	2300      	movs	r3, #0
 800c26e:	e9cd 2302 	strd	r2, r3, [sp, #8]
 800c272:	9606      	str	r6, [sp, #24]
 800c274:	f7f8 fd64 	bl	8004d40 <LL_I2S_Init>
 800c278:	f8d8 301c 	ldr.w	r3, [r8, #28]
 800c27c:	9a3a      	ldr	r2, [sp, #232]	; 0xe8
 800c27e:	f443 6340 	orr.w	r3, r3, #3072	; 0xc00
 800c282:	fb0a f502 	mul.w	r5, sl, r2
 800c286:	4a31      	ldr	r2, [pc, #196]	; (800c34c <Start_DAC_DMA+0x1d8>)
 800c288:	f8c8 301c 	str.w	r3, [r8, #28]
 800c28c:	4b30      	ldr	r3, [pc, #192]	; (800c350 <Start_DAC_DMA+0x1dc>)
 800c28e:	e892 0003 	ldmia.w	r2, {r0, r1}
 800c292:	f813 4009 	ldrb.w	r4, [r3, r9]
 800c296:	f1b9 0f03 	cmp.w	r9, #3
 800c29a:	466b      	mov	r3, sp
 800c29c:	e883 0003 	stmia.w	r3, {r0, r1}
 800c2a0:	eb07 0104 	add.w	r1, r7, r4
 800c2a4:	d937      	bls.n	800c316 <Start_DAC_DMA+0x1a2>
 800c2a6:	f107 000c 	add.w	r0, r7, #12
 800c2aa:	593b      	ldr	r3, [r7, r4]
 800c2ac:	f023 0301 	bic.w	r3, r3, #1
 800c2b0:	513b      	str	r3, [r7, r4]
 800c2b2:	593b      	ldr	r3, [r7, r4]
 800c2b4:	07da      	lsls	r2, r3, #31
 800c2b6:	d503      	bpl.n	800c2c0 <Start_DAC_DMA+0x14c>
 800c2b8:	bf00      	nop
 800c2ba:	680b      	ldr	r3, [r1, #0]
 800c2bc:	07db      	lsls	r3, r3, #31
 800c2be:	d4fb      	bmi.n	800c2b8 <Start_DAC_DMA+0x144>
 800c2c0:	f109 03c0 	add.w	r3, r9, #192	; 0xc0
 800c2c4:	eb0d 0903 	add.w	r9, sp, r3
 800c2c8:	233f      	movs	r3, #63	; 0x3f
 800c2ca:	f819 2cc0 	ldrb.w	r2, [r9, #-192]
 800c2ce:	4093      	lsls	r3, r2
 800c2d0:	6003      	str	r3, [r0, #0]
 800c2d2:	f8d8 3004 	ldr.w	r3, [r8, #4]
 800c2d6:	f043 0302 	orr.w	r3, r3, #2
 800c2da:	f8c8 3004 	str.w	r3, [r8, #4]
 800c2de:	593b      	ldr	r3, [r7, r4]
 800c2e0:	f423 2380 	bic.w	r3, r3, #262144	; 0x40000
 800c2e4:	f023 0306 	bic.w	r3, r3, #6
 800c2e8:	513b      	str	r3, [r7, r4]
 800c2ea:	694b      	ldr	r3, [r1, #20]
 800c2ec:	f023 0380 	bic.w	r3, r3, #128	; 0x80
 800c2f0:	614b      	str	r3, [r1, #20]
 800c2f2:	593b      	ldr	r3, [r7, r4]
 800c2f4:	f043 0318 	orr.w	r3, r3, #24
 800c2f8:	513b      	str	r3, [r7, r4]
 800c2fa:	f108 020c 	add.w	r2, r8, #12
 800c2fe:	9b39      	ldr	r3, [sp, #228]	; 0xe4
 800c300:	608a      	str	r2, [r1, #8]
 800c302:	60cb      	str	r3, [r1, #12]
 800c304:	604d      	str	r5, [r1, #4]
 800c306:	593b      	ldr	r3, [r7, r4]
 800c308:	2000      	movs	r0, #0
 800c30a:	f043 0301 	orr.w	r3, r3, #1
 800c30e:	513b      	str	r3, [r7, r4]
 800c310:	b030      	add	sp, #192	; 0xc0
 800c312:	e8bd 87f0 	ldmia.w	sp!, {r4, r5, r6, r7, r8, r9, sl, pc}
 800c316:	f107 0008 	add.w	r0, r7, #8
 800c31a:	e7c6      	b.n	800c2aa <Start_DAC_DMA+0x136>
 800c31c:	aa0d      	add	r2, sp, #52	; 0x34
 800c31e:	e764      	b.n	800c1ea <Start_DAC_DMA+0x76>
 800c320:	aa12      	add	r2, sp, #72	; 0x48
 800c322:	e762      	b.n	800c1ea <Start_DAC_DMA+0x76>
 800c324:	aa17      	add	r2, sp, #92	; 0x5c
 800c326:	e760      	b.n	800c1ea <Start_DAC_DMA+0x76>
 800c328:	aa1c      	add	r2, sp, #112	; 0x70
 800c32a:	e75e      	b.n	800c1ea <Start_DAC_DMA+0x76>
 800c32c:	aa21      	add	r2, sp, #132	; 0x84
 800c32e:	e75c      	b.n	800c1ea <Start_DAC_DMA+0x76>
 800c330:	aa26      	add	r2, sp, #152	; 0x98
 800c332:	e75a      	b.n	800c1ea <Start_DAC_DMA+0x76>
 800c334:	0800e42c 	.word	0x0800e42c
 800c338:	00017700 	.word	0x00017700
 800c33c:	0002ee00 	.word	0x0002ee00
 800c340:	40023800 	.word	0x40023800
 800c344:	40023000 	.word	0x40023000
 800c348:	8fff803f 	.word	0x8fff803f
 800c34c:	0800e4cc 	.word	0x0800e4cc
 800c350:	0803cac0 	.word	0x0803cac0

0800c354 <XPT2046_CalibrateTouch>:
 800c354:	e92d 4ff0 	stmdb	sp!, {r4, r5, r6, r7, r8, r9, sl, fp, lr}
 800c358:	88ca      	ldrh	r2, [r1, #6]
 800c35a:	888b      	ldrh	r3, [r1, #4]
 800c35c:	b0c3      	sub	sp, #268	; 0x10c
 800c35e:	4688      	mov	r8, r1
 800c360:	f1a2 010a 	sub.w	r1, r2, #10
 800c364:	0852      	lsrs	r2, r2, #1
 800c366:	3a05      	subs	r2, #5
 800c368:	f8ad 20b6 	strh.w	r2, [sp, #182]	; 0xb6
 800c36c:	085a      	lsrs	r2, r3, #1
 800c36e:	3b0a      	subs	r3, #10
 800c370:	4604      	mov	r4, r0
 800c372:	b29b      	uxth	r3, r3
 800c374:	2000      	movs	r0, #0
 800c376:	b289      	uxth	r1, r1
 800c378:	f8ad 30ac 	strh.w	r3, [sp, #172]	; 0xac
 800c37c:	f8ad 30b0 	strh.w	r3, [sp, #176]	; 0xb0
 800c380:	2301      	movs	r3, #1
 800c382:	9029      	str	r0, [sp, #164]	; 0xa4
 800c384:	f8ad 00a8 	strh.w	r0, [sp, #168]	; 0xa8
 800c388:	f8ad 00ae 	strh.w	r0, [sp, #174]	; 0xae
 800c38c:	3a05      	subs	r2, #5
 800c38e:	f8ad 10aa 	strh.w	r1, [sp, #170]	; 0xaa
 800c392:	f8ad 10b2 	strh.w	r1, [sp, #178]	; 0xb2
 800c396:	f884 3028 	strb.w	r3, [r4, #40]	; 0x28
 800c39a:	f06f 417f 	mvn.w	r1, #4278190080	; 0xff000000
 800c39e:	4640      	mov	r0, r8
 800c3a0:	f8ad 20b4 	strh.w	r2, [sp, #180]	; 0xb4
 800c3a4:	f7f8 f94e 	bl	8004644 <LCD_Fill>
 800c3a8:	ad2a      	add	r5, sp, #168	; 0xa8
 800c3aa:	af2e      	add	r7, sp, #184	; 0xb8
 800c3ac:	ae38      	add	r6, sp, #224	; 0xe0
 800c3ae:	f10d 0bbc 	add.w	fp, sp, #188	; 0xbc
 800c3b2:	f104 0918 	add.w	r9, r4, #24
 800c3b6:	f44f 0a7f 	mov.w	sl, #16711680	; 0xff0000
 800c3ba:	f835 0c02 	ldrh.w	r0, [r5, #-2]
 800c3be:	f835 1c04 	ldrh.w	r1, [r5, #-4]
 800c3c2:	f935 2c02 	ldrsh.w	r2, [r5, #-2]
 800c3c6:	3009      	adds	r0, #9
 800c3c8:	f101 0309 	add.w	r3, r1, #9
 800c3cc:	b200      	sxth	r0, r0
 800c3ce:	e9cd 0a00 	strd	r0, sl, [sp]
 800c3d2:	b21b      	sxth	r3, r3
 800c3d4:	b209      	sxth	r1, r1
 800c3d6:	4640      	mov	r0, r8
 800c3d8:	f7f8 f944 	bl	8004664 <LCD_DrawFilledRectangle>
 800c3dc:	f894 3029 	ldrb.w	r3, [r4, #41]	; 0x29
 800c3e0:	b153      	cbz	r3, 800c3f8 <XPT2046_CalibrateTouch+0xa4>
 800c3e2:	f894 3028 	ldrb.w	r3, [r4, #40]	; 0x28
 800c3e6:	b15b      	cbz	r3, 800c400 <XPT2046_CalibrateTouch+0xac>
 800c3e8:	bf00      	nop
 800c3ea:	f894 3029 	ldrb.w	r3, [r4, #41]	; 0x29
 800c3ee:	2b00      	cmp	r3, #0
 800c3f0:	d1f7      	bne.n	800c3e2 <XPT2046_CalibrateTouch+0x8e>
 800c3f2:	6a23      	ldr	r3, [r4, #32]
 800c3f4:	2b03      	cmp	r3, #3
 800c3f6:	d80e      	bhi.n	800c416 <XPT2046_CalibrateTouch+0xc2>
 800c3f8:	bf00      	nop
 800c3fa:	f894 3029 	ldrb.w	r3, [r4, #41]	; 0x29
 800c3fe:	e7ef      	b.n	800c3e0 <XPT2046_CalibrateTouch+0x8c>
 800c400:	4620      	mov	r0, r4
 800c402:	f000 fccb 	bl	800cd9c <XPT2046_GetTouch>
 800c406:	bf00      	nop
 800c408:	f894 3029 	ldrb.w	r3, [r4, #41]	; 0x29
 800c40c:	2b00      	cmp	r3, #0
 800c40e:	d1e8      	bne.n	800c3e2 <XPT2046_CalibrateTouch+0x8e>
 800c410:	6a23      	ldr	r3, [r4, #32]
 800c412:	2b03      	cmp	r3, #3
 800c414:	d9f0      	bls.n	800c3f8 <XPT2046_CalibrateTouch+0xa4>
 800c416:	e899 0003 	ldmia.w	r9, {r0, r1}
 800c41a:	f835 2c04 	ldrh.w	r2, [r5, #-4]
 800c41e:	f835 3c02 	ldrh.w	r3, [r5, #-2]
 800c422:	3205      	adds	r2, #5
 800c424:	3305      	adds	r3, #5
 800c426:	e886 0003 	stmia.w	r6, {r0, r1}
 800c42a:	e9c7 2300 	strd	r2, r3, [r7]
 800c42e:	f06f 417f 	mvn.w	r1, #4278190080	; 0xff000000
 800c432:	4640      	mov	r0, r8
 800c434:	f7f8 f906 	bl	8004644 <LCD_Fill>
 800c438:	3504      	adds	r5, #4
 800c43a:	f240 5014 	movw	r0, #1300	; 0x514
 800c43e:	f7f8 fe07 	bl	8005050 <LL_mDelay>
 800c442:	455d      	cmp	r5, fp
 800c444:	f107 0708 	add.w	r7, r7, #8
 800c448:	f106 0608 	add.w	r6, r6, #8
 800c44c:	d1b5      	bne.n	800c3ba <XPT2046_CalibrateTouch+0x66>
 800c44e:	e9dd 1338 	ldrd	r1, r3, [sp, #224]	; 0xe0
 800c452:	e9dd 023a 	ldrd	r0, r2, [sp, #232]	; 0xe8
 800c456:	fb01 f501 	mul.w	r5, r1, r1
 800c45a:	fb00 f700 	mul.w	r7, r0, r0
 800c45e:	eb17 0b05 	adds.w	fp, r7, r5
 800c462:	ea4f 75e5 	mov.w	r5, r5, asr #31
 800c466:	eb45 75e7 	adc.w	r5, r5, r7, asr #31
 800c46a:	fb02 fc02 	mul.w	ip, r2, r2
 800c46e:	fb03 f703 	mul.w	r7, r3, r3
 800c472:	eb1c 0a07 	adds.w	sl, ip, r7
 800c476:	ea4f 77e7 	mov.w	r7, r7, asr #31
 800c47a:	eb47 77ec 	adc.w	r7, r7, ip, asr #31
 800c47e:	970a      	str	r7, [sp, #40]	; 0x28
 800c480:	fb00 f802 	mul.w	r8, r0, r2
 800c484:	fb01 f703 	mul.w	r7, r1, r3
 800c488:	9511      	str	r5, [sp, #68]	; 0x44
 800c48a:	eb18 0507 	adds.w	r5, r8, r7
 800c48e:	ea4f 77e7 	mov.w	r7, r7, asr #31
 800c492:	eb47 77e8 	adc.w	r7, r7, r8, asr #31
 800c496:	e9dd e62e 	ldrd	lr, r6, [sp, #184]	; 0xb8
 800c49a:	9508      	str	r5, [sp, #32]
 800c49c:	9709      	str	r7, [sp, #36]	; 0x24
 800c49e:	1845      	adds	r5, r0, r1
 800c4a0:	ea4f 77e1 	mov.w	r7, r1, asr #31
 800c4a4:	f8dd c0c0 	ldr.w	ip, [sp, #192]	; 0xc0
 800c4a8:	9506      	str	r5, [sp, #24]
 800c4aa:	eb47 78e0 	adc.w	r8, r7, r0, asr #31
 800c4ae:	18d7      	adds	r7, r2, r3
 800c4b0:	9704      	str	r7, [sp, #16]
 800c4b2:	ea4f 77e3 	mov.w	r7, r3, asr #31
 800c4b6:	fb00 f90c 	mul.w	r9, r0, ip
 800c4ba:	eb47 75e2 	adc.w	r5, r7, r2, asr #31
 800c4be:	f8cd 801c 	str.w	r8, [sp, #28]
 800c4c2:	fb01 f80e 	mul.w	r8, r1, lr
 800c4c6:	9505      	str	r5, [sp, #20]
 800c4c8:	eb19 0508 	adds.w	r5, r9, r8
 800c4cc:	ea4f 78e8 	mov.w	r8, r8, asr #31
 800c4d0:	eb48 78e9 	adc.w	r8, r8, r9, asr #31
 800c4d4:	9f31      	ldr	r7, [sp, #196]	; 0xc4
 800c4d6:	f8cd 8040 	str.w	r8, [sp, #64]	; 0x40
 800c4da:	fb02 f90c 	mul.w	r9, r2, ip
 800c4de:	fb03 f80e 	mul.w	r8, r3, lr
 800c4e2:	950f      	str	r5, [sp, #60]	; 0x3c
 800c4e4:	eb19 0508 	adds.w	r5, r9, r8
 800c4e8:	ea4f 78e8 	mov.w	r8, r8, asr #31
 800c4ec:	fb07 f000 	mul.w	r0, r7, r0
 800c4f0:	fb06 f101 	mul.w	r1, r6, r1
 800c4f4:	eb48 79e9 	adc.w	r9, r8, r9, asr #31
 800c4f8:	ea4f 78ee 	mov.w	r8, lr, asr #31
 800c4fc:	eb1c 0e0e 	adds.w	lr, ip, lr
 800c500:	fb07 f202 	mul.w	r2, r7, r2
 800c504:	fb06 f303 	mul.w	r3, r6, r3
 800c508:	950e      	str	r5, [sp, #56]	; 0x38
 800c50a:	eb48 78ec 	adc.w	r8, r8, ip, asr #31
 800c50e:	1845      	adds	r5, r0, r1
 800c510:	ea4f 71e1 	mov.w	r1, r1, asr #31
 800c514:	f8dd c0f0 	ldr.w	ip, [sp, #240]	; 0xf0
 800c518:	950c      	str	r5, [sp, #48]	; 0x30
 800c51a:	eb41 71e0 	adc.w	r1, r1, r0, asr #31
 800c51e:	18d0      	adds	r0, r2, r3
 800c520:	ea4f 73e3 	mov.w	r3, r3, asr #31
 800c524:	eb43 73e2 	adc.w	r3, r3, r2, asr #31
 800c528:	910d      	str	r1, [sp, #52]	; 0x34
 800c52a:	19ba      	adds	r2, r7, r6
 800c52c:	993d      	ldr	r1, [sp, #244]	; 0xf4
 800c52e:	9003      	str	r0, [sp, #12]
 800c530:	930b      	str	r3, [sp, #44]	; 0x2c
 800c532:	9811      	ldr	r0, [sp, #68]	; 0x44
 800c534:	9202      	str	r2, [sp, #8]
 800c536:	fb0c f30c 	mul.w	r3, ip, ip
 800c53a:	ea4f 76e6 	mov.w	r6, r6, asr #31
 800c53e:	eb46 76e7 	adc.w	r6, r6, r7, asr #31
 800c542:	eb13 0b0b 	adds.w	fp, r3, fp
 800c546:	9a0a      	ldr	r2, [sp, #40]	; 0x28
 800c548:	9d08      	ldr	r5, [sp, #32]
 800c54a:	eb40 77e3 	adc.w	r7, r0, r3, asr #31
 800c54e:	fb01 f301 	mul.w	r3, r1, r1
 800c552:	eb13 0a0a 	adds.w	sl, r3, sl
 800c556:	eb42 73e3 	adc.w	r3, r2, r3, asr #31
 800c55a:	930a      	str	r3, [sp, #40]	; 0x28
 800c55c:	9a09      	ldr	r2, [sp, #36]	; 0x24
 800c55e:	fb0c f301 	mul.w	r3, ip, r1
 800c562:	1958      	adds	r0, r3, r5
 800c564:	eb42 73e3 	adc.w	r3, r2, r3, asr #31
 800c568:	9008      	str	r0, [sp, #32]
 800c56a:	9309      	str	r3, [sp, #36]	; 0x24
 800c56c:	9d06      	ldr	r5, [sp, #24]
 800c56e:	9b07      	ldr	r3, [sp, #28]
 800c570:	980f      	ldr	r0, [sp, #60]	; 0x3c
 800c572:	eb1c 0205 	adds.w	r2, ip, r5
 800c576:	eb43 73ec 	adc.w	r3, r3, ip, asr #31
 800c57a:	9307      	str	r3, [sp, #28]
 800c57c:	9b04      	ldr	r3, [sp, #16]
 800c57e:	9d05      	ldr	r5, [sp, #20]
 800c580:	9206      	str	r2, [sp, #24]
 800c582:	18cb      	adds	r3, r1, r3
 800c584:	9304      	str	r3, [sp, #16]
 800c586:	eb45 73e1 	adc.w	r3, r5, r1, asr #31
 800c58a:	9305      	str	r3, [sp, #20]
 800c58c:	e9dd 2332 	ldrd	r2, r3, [sp, #200]	; 0xc8
 800c590:	fb02 f50c 	mul.w	r5, r2, ip
 800c594:	1828      	adds	r0, r5, r0
 800c596:	900f      	str	r0, [sp, #60]	; 0x3c
 800c598:	9810      	ldr	r0, [sp, #64]	; 0x40
 800c59a:	eb40 75e5 	adc.w	r5, r0, r5, asr #31
 800c59e:	980e      	ldr	r0, [sp, #56]	; 0x38
 800c5a0:	9510      	str	r5, [sp, #64]	; 0x40
 800c5a2:	fb02 f501 	mul.w	r5, r2, r1
 800c5a6:	1828      	adds	r0, r5, r0
 800c5a8:	eb49 79e5 	adc.w	r9, r9, r5, asr #31
 800c5ac:	9d0c      	ldr	r5, [sp, #48]	; 0x30
 800c5ae:	900e      	str	r0, [sp, #56]	; 0x38
 800c5b0:	eb12 0e0e 	adds.w	lr, r2, lr
 800c5b4:	fb03 fc0c 	mul.w	ip, r3, ip
 800c5b8:	eb48 78e2 	adc.w	r8, r8, r2, asr #31
 800c5bc:	9a0d      	ldr	r2, [sp, #52]	; 0x34
 800c5be:	eb1c 0505 	adds.w	r5, ip, r5
 800c5c2:	eb42 70ec 	adc.w	r0, r2, ip, asr #31
 800c5c6:	9a03      	ldr	r2, [sp, #12]
 800c5c8:	900c      	str	r0, [sp, #48]	; 0x30
 800c5ca:	fb03 f101 	mul.w	r1, r3, r1
 800c5ce:	eb11 0c02 	adds.w	ip, r1, r2
 800c5d2:	9a0b      	ldr	r2, [sp, #44]	; 0x2c
 800c5d4:	eb42 72e1 	adc.w	r2, r2, r1, asr #31
 800c5d8:	920b      	str	r2, [sp, #44]	; 0x2c
 800c5da:	9a02      	ldr	r2, [sp, #8]
 800c5dc:	189a      	adds	r2, r3, r2
 800c5de:	eb46 76e3 	adc.w	r6, r6, r3, asr #31
 800c5e2:	9202      	str	r2, [sp, #8]
 800c5e4:	e9dd 233e 	ldrd	r2, r3, [sp, #248]	; 0xf8
 800c5e8:	fb02 f102 	mul.w	r1, r2, r2
 800c5ec:	eb11 0b0b 	adds.w	fp, r1, fp
 800c5f0:	eb47 77e1 	adc.w	r7, r7, r1, asr #31
 800c5f4:	9603      	str	r6, [sp, #12]
 800c5f6:	fb03 f103 	mul.w	r1, r3, r3
 800c5fa:	9e0a      	ldr	r6, [sp, #40]	; 0x28
 800c5fc:	970d      	str	r7, [sp, #52]	; 0x34
 800c5fe:	eb11 0a0a 	adds.w	sl, r1, sl
 800c602:	eb46 77e1 	adc.w	r7, r6, r1, asr #31
 800c606:	9e08      	ldr	r6, [sp, #32]
 800c608:	970a      	str	r7, [sp, #40]	; 0x28
 800c60a:	fb03 f102 	mul.w	r1, r3, r2
 800c60e:	198e      	adds	r6, r1, r6
 800c610:	9608      	str	r6, [sp, #32]
 800c612:	9e09      	ldr	r6, [sp, #36]	; 0x24
 800c614:	980f      	ldr	r0, [sp, #60]	; 0x3c
 800c616:	eb46 76e1 	adc.w	r6, r6, r1, asr #31
 800c61a:	9906      	ldr	r1, [sp, #24]
 800c61c:	9609      	str	r6, [sp, #36]	; 0x24
 800c61e:	1851      	adds	r1, r2, r1
 800c620:	9106      	str	r1, [sp, #24]
 800c622:	9907      	ldr	r1, [sp, #28]
 800c624:	eb41 71e2 	adc.w	r1, r1, r2, asr #31
 800c628:	9107      	str	r1, [sp, #28]
 800c62a:	9904      	ldr	r1, [sp, #16]
 800c62c:	185e      	adds	r6, r3, r1
 800c62e:	9905      	ldr	r1, [sp, #20]
 800c630:	9611      	str	r6, [sp, #68]	; 0x44
 800c632:	eb41 77e3 	adc.w	r7, r1, r3, asr #31
 800c636:	e9dd 6134 	ldrd	r6, r1, [sp, #208]	; 0xd0
 800c63a:	9712      	str	r7, [sp, #72]	; 0x48
 800c63c:	fb06 f702 	mul.w	r7, r6, r2
 800c640:	1838      	adds	r0, r7, r0
 800c642:	900f      	str	r0, [sp, #60]	; 0x3c
 800c644:	9810      	ldr	r0, [sp, #64]	; 0x40
 800c646:	eb40 70e7 	adc.w	r0, r0, r7, asr #31
 800c64a:	9010      	str	r0, [sp, #64]	; 0x40
 800c64c:	980e      	ldr	r0, [sp, #56]	; 0x38
 800c64e:	fb06 f703 	mul.w	r7, r6, r3
 800c652:	1838      	adds	r0, r7, r0
 800c654:	fb01 f202 	mul.w	r2, r1, r2
 800c658:	eb49 79e7 	adc.w	r9, r9, r7, asr #31
 800c65c:	900e      	str	r0, [sp, #56]	; 0x38
 800c65e:	eb16 0e0e 	adds.w	lr, r6, lr
 800c662:	980c      	ldr	r0, [sp, #48]	; 0x30
 800c664:	f8cd e050 	str.w	lr, [sp, #80]	; 0x50
 800c668:	eb48 7ee6 	adc.w	lr, r8, r6, asr #31
 800c66c:	1955      	adds	r5, r2, r5
 800c66e:	fb01 f303 	mul.w	r3, r1, r3
 800c672:	9516      	str	r5, [sp, #88]	; 0x58
 800c674:	eb40 75e2 	adc.w	r5, r0, r2, asr #31
 800c678:	9a0b      	ldr	r2, [sp, #44]	; 0x2c
 800c67a:	9e03      	ldr	r6, [sp, #12]
 800c67c:	f8cd 904c 	str.w	r9, [sp, #76]	; 0x4c
 800c680:	eb13 0c0c 	adds.w	ip, r3, ip
 800c684:	f8cd c05c 	str.w	ip, [sp, #92]	; 0x5c
 800c688:	eb42 7ce3 	adc.w	ip, r2, r3, asr #31
 800c68c:	9a02      	ldr	r2, [sp, #8]
 800c68e:	f8cd c060 	str.w	ip, [sp, #96]	; 0x60
 800c692:	188a      	adds	r2, r1, r2
 800c694:	eb46 7ce1 	adc.w	ip, r6, r1, asr #31
 800c698:	f8cd e054 	str.w	lr, [sp, #84]	; 0x54
 800c69c:	9219      	str	r2, [sp, #100]	; 0x64
 800c69e:	f8cd c068 	str.w	ip, [sp, #104]	; 0x68
 800c6a2:	950c      	str	r5, [sp, #48]	; 0x30
 800c6a4:	e9dd 0540 	ldrd	r0, r5, [sp, #256]	; 0x100
 800c6a8:	9f0d      	ldr	r7, [sp, #52]	; 0x34
 800c6aa:	9906      	ldr	r1, [sp, #24]
 800c6ac:	fb00 f300 	mul.w	r3, r0, r0
 800c6b0:	eb13 0c0b 	adds.w	ip, r3, fp
 800c6b4:	eb47 7be3 	adc.w	fp, r7, r3, asr #31
 800c6b8:	9f0a      	ldr	r7, [sp, #40]	; 0x28
 800c6ba:	f8cd c014 	str.w	ip, [sp, #20]
 800c6be:	fb05 f305 	mul.w	r3, r5, r5
 800c6c2:	eb13 0c0a 	adds.w	ip, r3, sl
 800c6c6:	eb47 7ae3 	adc.w	sl, r7, r3, asr #31
 800c6ca:	9b08      	ldr	r3, [sp, #32]
 800c6cc:	9f12      	ldr	r7, [sp, #72]	; 0x48
 800c6ce:	fb05 f600 	mul.w	r6, r5, r0
 800c6d2:	18f3      	adds	r3, r6, r3
 800c6d4:	9303      	str	r3, [sp, #12]
 800c6d6:	9b09      	ldr	r3, [sp, #36]	; 0x24
 800c6d8:	eb43 76e6 	adc.w	r6, r3, r6, asr #31
 800c6dc:	1842      	adds	r2, r0, r1
 800c6de:	9907      	ldr	r1, [sp, #28]
 800c6e0:	9204      	str	r2, [sp, #16]
 800c6e2:	eb41 7ee0 	adc.w	lr, r1, r0, asr #31
 800c6e6:	9911      	ldr	r1, [sp, #68]	; 0x44
 800c6e8:	f8cd e01c 	str.w	lr, [sp, #28]
 800c6ec:	186a      	adds	r2, r5, r1
 800c6ee:	eb47 77e5 	adc.w	r7, r7, r5, asr #31
 800c6f2:	9706      	str	r7, [sp, #24]
 800c6f4:	e9dd 8736 	ldrd	r8, r7, [sp, #216]	; 0xd8
 800c6f8:	990f      	ldr	r1, [sp, #60]	; 0x3c
 800c6fa:	9202      	str	r2, [sp, #8]
 800c6fc:	fb08 fe00 	mul.w	lr, r8, r0
 800c700:	9a0e      	ldr	r2, [sp, #56]	; 0x38
 800c702:	eb1e 0901 	adds.w	r9, lr, r1
 800c706:	9910      	ldr	r1, [sp, #64]	; 0x40
 800c708:	464b      	mov	r3, r9
 800c70a:	fb08 f905 	mul.w	r9, r8, r5
 800c70e:	eb41 7eee 	adc.w	lr, r1, lr, asr #31
 800c712:	eb19 0102 	adds.w	r1, r9, r2
 800c716:	9a13      	ldr	r2, [sp, #76]	; 0x4c
 800c718:	9108      	str	r1, [sp, #32]
 800c71a:	9914      	ldr	r1, [sp, #80]	; 0x50
 800c71c:	f8cd e028 	str.w	lr, [sp, #40]	; 0x28
 800c720:	eb42 79e9 	adc.w	r9, r2, r9, asr #31
 800c724:	f8cd 902c 	str.w	r9, [sp, #44]	; 0x2c
 800c728:	eb18 0901 	adds.w	r9, r8, r1
 800c72c:	9915      	ldr	r1, [sp, #84]	; 0x54
 800c72e:	f8cd 9074 	str.w	r9, [sp, #116]	; 0x74
 800c732:	eb41 78e8 	adc.w	r8, r1, r8, asr #31
 800c736:	9916      	ldr	r1, [sp, #88]	; 0x58
 800c738:	f8cd 8038 	str.w	r8, [sp, #56]	; 0x38
 800c73c:	fb07 fe00 	mul.w	lr, r7, r0
 800c740:	eb1e 0801 	adds.w	r8, lr, r1
 800c744:	990c      	ldr	r1, [sp, #48]	; 0x30
 800c746:	f8cd 8024 	str.w	r8, [sp, #36]	; 0x24
 800c74a:	eb41 7eee 	adc.w	lr, r1, lr, asr #31
 800c74e:	f8cd e030 	str.w	lr, [sp, #48]	; 0x30
 800c752:	9917      	ldr	r1, [sp, #92]	; 0x5c
 800c754:	9818      	ldr	r0, [sp, #96]	; 0x60
 800c756:	9a04      	ldr	r2, [sp, #16]
 800c758:	fb07 f505 	mul.w	r5, r7, r5
 800c75c:	1869      	adds	r1, r5, r1
 800c75e:	eb40 7ee5 	adc.w	lr, r0, r5, asr #31
 800c762:	9d19      	ldr	r5, [sp, #100]	; 0x64
 800c764:	9803      	ldr	r0, [sp, #12]
 800c766:	f8cd e034 	str.w	lr, [sp, #52]	; 0x34
 800c76a:	197d      	adds	r5, r7, r5
 800c76c:	950f      	str	r5, [sp, #60]	; 0x3c
 800c76e:	9d1a      	ldr	r5, [sp, #104]	; 0x68
 800c770:	eb45 7ee7 	adc.w	lr, r5, r7, asr #31
 800c774:	9f07      	ldr	r7, [sp, #28]
 800c776:	f8cd e040 	str.w	lr, [sp, #64]	; 0x40
 800c77a:	fb00 f507 	mul.w	r5, r0, r7
 800c77e:	fb02 5206 	mla	r2, r2, r6, r5
 800c782:	9212      	str	r2, [sp, #72]	; 0x48
 800c784:	9a05      	ldr	r2, [sp, #20]
 800c786:	4607      	mov	r7, r0
 800c788:	fb00 f906 	mul.w	r9, r0, r6
 800c78c:	9806      	ldr	r0, [sp, #24]
 800c78e:	fb02 f50a 	mul.w	r5, r2, sl
 800c792:	fb0c 580b 	mla	r8, ip, fp, r5
 800c796:	fb02 f500 	mul.w	r5, r2, r0
 800c79a:	9a02      	ldr	r2, [sp, #8]
 800c79c:	fb02 5e0b 	mla	lr, r2, fp, r5
 800c7a0:	9d07      	ldr	r5, [sp, #28]
 800c7a2:	9a04      	ldr	r2, [sp, #16]
 800c7a4:	f8cd e050 	str.w	lr, [sp, #80]	; 0x50
 800c7a8:	fb0c f505 	mul.w	r5, ip, r5
 800c7ac:	fb02 5e0a 	mla	lr, r2, sl, r5
 800c7b0:	fb07 f500 	mul.w	r5, r7, r0
 800c7b4:	9802      	ldr	r0, [sp, #8]
 800c7b6:	f8cd e054 	str.w	lr, [sp, #84]	; 0x54
 800c7ba:	fb00 5e06 	mla	lr, r0, r6, r5
 800c7be:	9d0a      	ldr	r5, [sp, #40]	; 0x28
 800c7c0:	980b      	ldr	r0, [sp, #44]	; 0x2c
 800c7c2:	f8cd e060 	str.w	lr, [sp, #96]	; 0x60
 800c7c6:	fb0c f505 	mul.w	r5, ip, r5
 800c7ca:	fb03 5e0a 	mla	lr, r3, sl, r5
 800c7ce:	fb07 f500 	mul.w	r5, r7, r0
 800c7d2:	9f08      	ldr	r7, [sp, #32]
 800c7d4:	f8cd e064 	str.w	lr, [sp, #100]	; 0x64
 800c7d8:	fb07 5e06 	mla	lr, r7, r6, r5
 800c7dc:	fb02 f500 	mul.w	r5, r2, r0
 800c7e0:	9807      	ldr	r0, [sp, #28]
 800c7e2:	f8cd e068 	str.w	lr, [sp, #104]	; 0x68
 800c7e6:	fb07 5e00 	mla	lr, r7, r0, r5
 800c7ea:	9802      	ldr	r0, [sp, #8]
 800c7ec:	9d0a      	ldr	r5, [sp, #40]	; 0x28
 800c7ee:	f8cd e058 	str.w	lr, [sp, #88]	; 0x58
 800c7f2:	fb00 f505 	mul.w	r5, r0, r5
 800c7f6:	9806      	ldr	r0, [sp, #24]
 800c7f8:	fb03 5e00 	mla	lr, r3, r0, r5
 800c7fc:	f8cd e05c 	str.w	lr, [sp, #92]	; 0x5c
 800c800:	980b      	ldr	r0, [sp, #44]	; 0x2c
 800c802:	9d05      	ldr	r5, [sp, #20]
 800c804:	9111      	str	r1, [sp, #68]	; 0x44
 800c806:	fb05 f500 	mul.w	r5, r5, r0
 800c80a:	fb07 5e0b 	mla	lr, r7, fp, r5
 800c80e:	9f03      	ldr	r7, [sp, #12]
 800c810:	9d0a      	ldr	r5, [sp, #40]	; 0x28
 800c812:	f8cd e06c 	str.w	lr, [sp, #108]	; 0x6c
 800c816:	fb07 f505 	mul.w	r5, r7, r5
 800c81a:	fb03 5e06 	mla	lr, r3, r6, r5
 800c81e:	9d0c      	ldr	r5, [sp, #48]	; 0x30
 800c820:	9809      	ldr	r0, [sp, #36]	; 0x24
 800c822:	f8cd e070 	str.w	lr, [sp, #112]	; 0x70
 800c826:	fb0c f505 	mul.w	r5, ip, r5
 800c82a:	fb00 5e0a 	mla	lr, r0, sl, r5
 800c82e:	980d      	ldr	r0, [sp, #52]	; 0x34
 800c830:	f8cd e080 	str.w	lr, [sp, #128]	; 0x80
 800c834:	4605      	mov	r5, r0
 800c836:	fb07 f505 	mul.w	r5, r7, r5
 800c83a:	fb01 5e06 	mla	lr, r1, r6, r5
 800c83e:	4605      	mov	r5, r0
 800c840:	9807      	ldr	r0, [sp, #28]
 800c842:	f8cd e084 	str.w	lr, [sp, #132]	; 0x84
 800c846:	fb02 f505 	mul.w	r5, r2, r5
 800c84a:	fb01 5e00 	mla	lr, r1, r0, r5
 800c84e:	990c      	ldr	r1, [sp, #48]	; 0x30
 800c850:	9802      	ldr	r0, [sp, #8]
 800c852:	9f09      	ldr	r7, [sp, #36]	; 0x24
 800c854:	f8cd e078 	str.w	lr, [sp, #120]	; 0x78
 800c858:	fb00 f501 	mul.w	r5, r0, r1
 800c85c:	9806      	ldr	r0, [sp, #24]
 800c85e:	990d      	ldr	r1, [sp, #52]	; 0x34
 800c860:	fb07 5e00 	mla	lr, r7, r0, r5
 800c864:	9d05      	ldr	r5, [sp, #20]
 800c866:	f8cd e07c 	str.w	lr, [sp, #124]	; 0x7c
 800c86a:	fb05 f501 	mul.w	r5, r5, r1
 800c86e:	9911      	ldr	r1, [sp, #68]	; 0x44
 800c870:	fb01 5e0b 	mla	lr, r1, fp, r5
 800c874:	990c      	ldr	r1, [sp, #48]	; 0x30
 800c876:	9d03      	ldr	r5, [sp, #12]
 800c878:	f8cd e08c 	str.w	lr, [sp, #140]	; 0x8c
 800c87c:	fb05 f501 	mul.w	r5, r5, r1
 800c880:	9903      	ldr	r1, [sp, #12]
 800c882:	fb07 5e06 	mla	lr, r7, r6, r5
 800c886:	f8cd e090 	str.w	lr, [sp, #144]	; 0x90
 800c88a:	fba1 e502 	umull	lr, r5, r1, r2
 800c88e:	9a12      	ldr	r2, [sp, #72]	; 0x48
 800c890:	9903      	ldr	r1, [sp, #12]
 800c892:	f8cd e048 	str.w	lr, [sp, #72]	; 0x48
 800c896:	442a      	add	r2, r5
 800c898:	9d02      	ldr	r5, [sp, #8]
 800c89a:	9213      	str	r2, [sp, #76]	; 0x4c
 800c89c:	fb05 f602 	mul.w	r6, r5, r2
 800c8a0:	fb0e 6a00 	mla	sl, lr, r0, r6
 800c8a4:	9805      	ldr	r0, [sp, #20]
 800c8a6:	9a1d      	ldr	r2, [sp, #116]	; 0x74
 800c8a8:	fba0 e70c 	umull	lr, r7, r0, ip
 800c8ac:	fba1 6501 	umull	r6, r5, r1, r1
 800c8b0:	ebbe 0b06 	subs.w	fp, lr, r6
 800c8b4:	eb05 0549 	add.w	r5, r5, r9, lsl #1
 800c8b8:	4447      	add	r7, r8
 800c8ba:	eb67 0705 	sbc.w	r7, r7, r5
 800c8be:	9e0e      	ldr	r6, [sp, #56]	; 0x38
 800c8c0:	990f      	ldr	r1, [sp, #60]	; 0x3c
 800c8c2:	fb02 f507 	mul.w	r5, r2, r7
 800c8c6:	fb0b 5e06 	mla	lr, fp, r6, r5
 800c8ca:	9e10      	ldr	r6, [sp, #64]	; 0x40
 800c8cc:	f8cd e074 	str.w	lr, [sp, #116]	; 0x74
 800c8d0:	fb01 f507 	mul.w	r5, r1, r7
 800c8d4:	fb0b 5e06 	mla	lr, fp, r6, r5
 800c8d8:	4605      	mov	r5, r0
 800c8da:	9802      	ldr	r0, [sp, #8]
 800c8dc:	f8cd e094 	str.w	lr, [sp, #148]	; 0x94
 800c8e0:	fba5 e500 	umull	lr, r5, r5, r0
 800c8e4:	9814      	ldr	r0, [sp, #80]	; 0x50
 800c8e6:	9e12      	ldr	r6, [sp, #72]	; 0x48
 800c8e8:	f8cd e03c 	str.w	lr, [sp, #60]	; 0x3c
 800c8ec:	1945      	adds	r5, r0, r5
 800c8ee:	9802      	ldr	r0, [sp, #8]
 800c8f0:	9514      	str	r5, [sp, #80]	; 0x50
 800c8f2:	fb00 f505 	mul.w	r5, r0, r5
 800c8f6:	9806      	ldr	r0, [sp, #24]
 800c8f8:	fb0e 5500 	mla	r5, lr, r0, r5
 800c8fc:	9802      	ldr	r0, [sp, #8]
 800c8fe:	fba0 e606 	umull	lr, r6, r0, r6
 800c902:	eb1e 0e0e 	adds.w	lr, lr, lr
 800c906:	ea4f 0987 	mov.w	r9, r7, lsl #2
 800c90a:	ea4f 088b 	mov.w	r8, fp, lsl #2
 800c90e:	4456      	add	r6, sl
 800c910:	ea49 799b 	orr.w	r9, r9, fp, lsr #30
 800c914:	4176      	adcs	r6, r6
 800c916:	eb18 080b 	adds.w	r8, r8, fp
 800c91a:	eb47 0709 	adc.w	r7, r7, r9
 800c91e:	eb1e 0e08 	adds.w	lr, lr, r8
 800c922:	eb46 0607 	adc.w	r6, r6, r7
 800c926:	9f04      	ldr	r7, [sp, #16]
 800c928:	fbac 8a07 	umull	r8, sl, ip, r7
 800c92c:	9f15      	ldr	r7, [sp, #84]	; 0x54
 800c92e:	44ba      	add	sl, r7
 800c930:	9f04      	ldr	r7, [sp, #16]
 800c932:	fb07 f90a 	mul.w	r9, r7, sl
 800c936:	9f07      	ldr	r7, [sp, #28]
 800c938:	fb08 9907 	mla	r9, r8, r7, r9
 800c93c:	9f0f      	ldr	r7, [sp, #60]	; 0x3c
 800c93e:	fba0 7007 	umull	r7, r0, r0, r7
 800c942:	ebbe 0707 	subs.w	r7, lr, r7
 800c946:	4405      	add	r5, r0
 800c948:	eb66 0605 	sbc.w	r6, r6, r5
 800c94c:	9d04      	ldr	r5, [sp, #16]
 800c94e:	fba5 5e08 	umull	r5, lr, r5, r8
 800c952:	1b7f      	subs	r7, r7, r5
 800c954:	44f1      	add	r9, lr
 800c956:	eb66 0609 	sbc.w	r6, r6, r9
 800c95a:	e9c4 761a 	strd	r7, r6, [r4, #104]	; 0x68
 800c95e:	e9dd 0702 	ldrd	r0, r7, [sp, #8]
 800c962:	fba7 6500 	umull	r6, r5, r7, r0
 800c966:	9f18      	ldr	r7, [sp, #96]	; 0x60
 800c968:	ebb6 0808 	subs.w	r8, r6, r8
 800c96c:	443d      	add	r5, r7
 800c96e:	eb65 0a0a 	sbc.w	sl, r5, sl
 800c972:	9e0e      	ldr	r6, [sp, #56]	; 0x38
 800c974:	9f09      	ldr	r7, [sp, #36]	; 0x24
 800c976:	fb02 f50a 	mul.w	r5, r2, sl
 800c97a:	fb08 5e06 	mla	lr, r8, r6, r5
 800c97e:	9e0a      	ldr	r6, [sp, #40]	; 0x28
 800c980:	f8cd e054 	str.w	lr, [sp, #84]	; 0x54
 800c984:	fb03 f50a 	mul.w	r5, r3, sl
 800c988:	fb08 5e06 	mla	lr, r8, r6, r5
 800c98c:	9e10      	ldr	r6, [sp, #64]	; 0x40
 800c98e:	f8cd e060 	str.w	lr, [sp, #96]	; 0x60
 800c992:	fb01 f50a 	mul.w	r5, r1, sl
 800c996:	fb08 5e06 	mla	lr, r8, r6, r5
 800c99a:	f8cd e088 	str.w	lr, [sp, #136]	; 0x88
 800c99e:	9e0c      	ldr	r6, [sp, #48]	; 0x30
 800c9a0:	9819      	ldr	r0, [sp, #100]	; 0x64
 800c9a2:	fb07 fa0a 	mul.w	sl, r7, sl
 800c9a6:	fb08 ae06 	mla	lr, r8, r6, sl
 800c9aa:	f8cd e098 	str.w	lr, [sp, #152]	; 0x98
 800c9ae:	fbac 5603 	umull	r5, r6, ip, r3
 800c9b2:	fbac ec07 	umull	lr, ip, ip, r7
 800c9b6:	9f20      	ldr	r7, [sp, #128]	; 0x80
 800c9b8:	f8cd e09c 	str.w	lr, [sp, #156]	; 0x9c
 800c9bc:	44bc      	add	ip, r7
 800c9be:	4406      	add	r6, r0
 800c9c0:	9f03      	ldr	r7, [sp, #12]
 800c9c2:	9808      	ldr	r0, [sp, #32]
 800c9c4:	f8cd c064 	str.w	ip, [sp, #100]	; 0x64
 800c9c8:	fba7 c700 	umull	ip, r7, r7, r0
 800c9cc:	981a      	ldr	r0, [sp, #104]	; 0x68
 800c9ce:	ebb5 050c 	subs.w	r5, r5, ip
 800c9d2:	4407      	add	r7, r0
 800c9d4:	eb66 0607 	sbc.w	r6, r6, r7
 800c9d8:	00b7      	lsls	r7, r6, #2
 800c9da:	ea4f 0c85 	mov.w	ip, r5, lsl #2
 800c9de:	eb1c 0c05 	adds.w	ip, ip, r5
 800c9e2:	9808      	ldr	r0, [sp, #32]
 800c9e4:	ea47 7795 	orr.w	r7, r7, r5, lsr #30
 800c9e8:	9d04      	ldr	r5, [sp, #16]
 800c9ea:	eb46 0607 	adc.w	r6, r6, r7
 800c9ee:	9f16      	ldr	r7, [sp, #88]	; 0x58
 800c9f0:	fba5 a500 	umull	sl, r5, r5, r0
 800c9f4:	9802      	ldr	r0, [sp, #8]
 800c9f6:	197d      	adds	r5, r7, r5
 800c9f8:	462f      	mov	r7, r5
 800c9fa:	fba0 9503 	umull	r9, r5, r0, r3
 800c9fe:	9817      	ldr	r0, [sp, #92]	; 0x5c
 800ca00:	970a      	str	r7, [sp, #40]	; 0x28
 800ca02:	1945      	adds	r5, r0, r5
 800ca04:	4628      	mov	r0, r5
 800ca06:	ebba 0509 	subs.w	r5, sl, r9
 800ca0a:	eb67 0e00 	sbc.w	lr, r7, r0
 800ca0e:	900c      	str	r0, [sp, #48]	; 0x30
 800ca10:	9806      	ldr	r0, [sp, #24]
 800ca12:	fb05 f700 	mul.w	r7, r5, r0
 800ca16:	9802      	ldr	r0, [sp, #8]
 800ca18:	fb00 770e 	mla	r7, r0, lr, r7
 800ca1c:	fba5 5e00 	umull	r5, lr, r5, r0
 800ca20:	eb1c 0505 	adds.w	r5, ip, r5
 800ca24:	4477      	add	r7, lr
 800ca26:	eb47 0606 	adc.w	r6, r7, r6
 800ca2a:	fba2 c708 	umull	ip, r7, r2, r8
 800ca2e:	eb15 0c0c 	adds.w	ip, r5, ip
 800ca32:	9d15      	ldr	r5, [sp, #84]	; 0x54
 800ca34:	442f      	add	r7, r5
 800ca36:	eb47 0706 	adc.w	r7, r7, r6
 800ca3a:	9d0f      	ldr	r5, [sp, #60]	; 0x3c
 800ca3c:	9e12      	ldr	r6, [sp, #72]	; 0x48
 800ca3e:	9212      	str	r2, [sp, #72]	; 0x48
 800ca40:	1b75      	subs	r5, r6, r5
 800ca42:	e9dd 6013 	ldrd	r6, r0, [sp, #76]	; 0x4c
 800ca46:	eb66 0600 	sbc.w	r6, r6, r0
 800ca4a:	e9c4 c70e 	strd	ip, r7, [r4, #56]	; 0x38
 800ca4e:	fb02 f706 	mul.w	r7, r2, r6
 800ca52:	9a0e      	ldr	r2, [sp, #56]	; 0x38
 800ca54:	9808      	ldr	r0, [sp, #32]
 800ca56:	910f      	str	r1, [sp, #60]	; 0x3c
 800ca58:	fb05 7c02 	mla	ip, r5, r2, r7
 800ca5c:	9a10      	ldr	r2, [sp, #64]	; 0x40
 800ca5e:	f8cd c038 	str.w	ip, [sp, #56]	; 0x38
 800ca62:	fb01 fc06 	mul.w	ip, r1, r6
 800ca66:	fb05 cc02 	mla	ip, r5, r2, ip
 800ca6a:	fb00 f706 	mul.w	r7, r0, r6
 800ca6e:	980b      	ldr	r0, [sp, #44]	; 0x2c
 800ca70:	f8cd c02c 	str.w	ip, [sp, #44]	; 0x2c
 800ca74:	9911      	ldr	r1, [sp, #68]	; 0x44
 800ca76:	9a0d      	ldr	r2, [sp, #52]	; 0x34
 800ca78:	fb01 f606 	mul.w	r6, r1, r6
 800ca7c:	fb05 6c02 	mla	ip, r5, r2, r6
 800ca80:	fb05 7700 	mla	r7, r5, r0, r7
 800ca84:	9e05      	ldr	r6, [sp, #20]
 800ca86:	9808      	ldr	r0, [sp, #32]
 800ca88:	f8cd c034 	str.w	ip, [sp, #52]	; 0x34
 800ca8c:	fba6 c600 	umull	ip, r6, r6, r0
 800ca90:	fba0 e005 	umull	lr, r0, r0, r5
 800ca94:	4407      	add	r7, r0
 800ca96:	9805      	ldr	r0, [sp, #20]
 800ca98:	9708      	str	r7, [sp, #32]
 800ca9a:	9f23      	ldr	r7, [sp, #140]	; 0x8c
 800ca9c:	9a1b      	ldr	r2, [sp, #108]	; 0x6c
 800ca9e:	f8cd e044 	str.w	lr, [sp, #68]	; 0x44
 800caa2:	fba0 e001 	umull	lr, r0, r0, r1
 800caa6:	1838      	adds	r0, r7, r0
 800caa8:	9f03      	ldr	r7, [sp, #12]
 800caaa:	9005      	str	r0, [sp, #20]
 800caac:	4416      	add	r6, r2
 800caae:	9a1c      	ldr	r2, [sp, #112]	; 0x70
 800cab0:	f8cd e04c 	str.w	lr, [sp, #76]	; 0x4c
 800cab4:	fba7 7003 	umull	r7, r0, r7, r3
 800cab8:	ebbc 0c07 	subs.w	ip, ip, r7
 800cabc:	eb02 0700 	add.w	r7, r2, r0
 800cac0:	eb66 0707 	sbc.w	r7, r6, r7
 800cac4:	ea4f 068c 	mov.w	r6, ip, lsl #2
 800cac8:	eb16 060c 	adds.w	r6, r6, ip
 800cacc:	ea4f 0087 	mov.w	r0, r7, lsl #2
 800cad0:	9a0a      	ldr	r2, [sp, #40]	; 0x28
 800cad2:	9610      	str	r6, [sp, #64]	; 0x40
 800cad4:	ea40 709c 	orr.w	r0, r0, ip, lsr #30
 800cad8:	9e0c      	ldr	r6, [sp, #48]	; 0x30
 800cada:	eb47 0700 	adc.w	r7, r7, r0
 800cade:	ebb9 000a 	subs.w	r0, r9, sl
 800cae2:	eb66 0c02 	sbc.w	ip, r6, r2
 800cae6:	9a07      	ldr	r2, [sp, #28]
 800cae8:	9e10      	ldr	r6, [sp, #64]	; 0x40
 800caea:	fb00 fe02 	mul.w	lr, r0, r2
 800caee:	9a04      	ldr	r2, [sp, #16]
 800caf0:	fb02 ec0c 	mla	ip, r2, ip, lr
 800caf4:	fba0 e002 	umull	lr, r0, r0, r2
 800caf8:	eb16 060e 	adds.w	r6, r6, lr
 800cafc:	4460      	add	r0, ip
 800cafe:	eb40 0707 	adc.w	r7, r0, r7
 800cb02:	fba3 e008 	umull	lr, r0, r3, r8
 800cb06:	9b18      	ldr	r3, [sp, #96]	; 0x60
 800cb08:	9a12      	ldr	r2, [sp, #72]	; 0x48
 800cb0a:	4418      	add	r0, r3
 800cb0c:	9b0e      	ldr	r3, [sp, #56]	; 0x38
 800cb0e:	fba2 c905 	umull	ip, r9, r2, r5
 800cb12:	eb16 060c 	adds.w	r6, r6, ip
 800cb16:	4499      	add	r9, r3
 800cb18:	eb49 0707 	adc.w	r7, r9, r7
 800cb1c:	e9c4 6710 	strd	r6, r7, [r4, #64]	; 0x40
 800cb20:	fba2 670b 	umull	r6, r7, r2, fp
 800cb24:	9a1d      	ldr	r2, [sp, #116]	; 0x74
 800cb26:	9b08      	ldr	r3, [sp, #32]
 800cb28:	4417      	add	r7, r2
 800cb2a:	9a11      	ldr	r2, [sp, #68]	; 0x44
 800cb2c:	eb16 060e 	adds.w	r6, r6, lr
 800cb30:	eb47 0700 	adc.w	r7, r7, r0
 800cb34:	18b6      	adds	r6, r6, r2
 800cb36:	eb43 0707 	adc.w	r7, r3, r7
 800cb3a:	9b0f      	ldr	r3, [sp, #60]	; 0x3c
 800cb3c:	e9c4 6712 	strd	r6, r7, [r4, #72]	; 0x48
 800cb40:	fba3 c60b 	umull	ip, r6, r3, fp
 800cb44:	f8cd c03c 	str.w	ip, [sp, #60]	; 0x3c
 800cb48:	9a25      	ldr	r2, [sp, #148]	; 0x94
 800cb4a:	9f03      	ldr	r7, [sp, #12]
 800cb4c:	4432      	add	r2, r6
 800cb4e:	920a      	str	r2, [sp, #40]	; 0x28
 800cb50:	9a27      	ldr	r2, [sp, #156]	; 0x9c
 800cb52:	fba7 0601 	umull	r0, r6, r7, r1
 800cb56:	1a10      	subs	r0, r2, r0
 800cb58:	9a21      	ldr	r2, [sp, #132]	; 0x84
 800cb5a:	4416      	add	r6, r2
 800cb5c:	9a19      	ldr	r2, [sp, #100]	; 0x64
 800cb5e:	eb62 0606 	sbc.w	r6, r2, r6
 800cb62:	00b7      	lsls	r7, r6, #2
 800cb64:	ea4f 0c80 	mov.w	ip, r0, lsl #2
 800cb68:	eb1c 0c00 	adds.w	ip, ip, r0
 800cb6c:	ea47 7790 	orr.w	r7, r7, r0, lsr #30
 800cb70:	eb46 0b07 	adc.w	fp, r6, r7
 800cb74:	9f09      	ldr	r7, [sp, #36]	; 0x24
 800cb76:	9e03      	ldr	r6, [sp, #12]
 800cb78:	fba6 e207 	umull	lr, r2, r6, r7
 800cb7c:	9e24      	ldr	r6, [sp, #144]	; 0x90
 800cb7e:	f8cd e038 	str.w	lr, [sp, #56]	; 0x38
 800cb82:	18b2      	adds	r2, r6, r2
 800cb84:	9203      	str	r2, [sp, #12]
 800cb86:	9a04      	ldr	r2, [sp, #16]
 800cb88:	9e1e      	ldr	r6, [sp, #120]	; 0x78
 800cb8a:	fba2 0201 	umull	r0, r2, r2, r1
 800cb8e:	4432      	add	r2, r6
 800cb90:	fba1 e605 	umull	lr, r6, r1, r5
 800cb94:	990d      	ldr	r1, [sp, #52]	; 0x34
 800cb96:	f8cd e040 	str.w	lr, [sp, #64]	; 0x40
 800cb9a:	198e      	adds	r6, r1, r6
 800cb9c:	960c      	str	r6, [sp, #48]	; 0x30
 800cb9e:	9e0b      	ldr	r6, [sp, #44]	; 0x2c
 800cba0:	991f      	ldr	r1, [sp, #124]	; 0x7c
 800cba2:	fba3 e505 	umull	lr, r5, r3, r5
 800cba6:	1975      	adds	r5, r6, r5
 800cba8:	9508      	str	r5, [sp, #32]
 800cbaa:	fba3 5608 	umull	r5, r6, r3, r8
 800cbae:	9b22      	ldr	r3, [sp, #136]	; 0x88
 800cbb0:	f8cd e034 	str.w	lr, [sp, #52]	; 0x34
 800cbb4:	441e      	add	r6, r3
 800cbb6:	9b26      	ldr	r3, [sp, #152]	; 0x98
 800cbb8:	fba7 e808 	umull	lr, r8, r7, r8
 800cbbc:	f8cd e02c 	str.w	lr, [sp, #44]	; 0x2c
 800cbc0:	eb03 0e08 	add.w	lr, r3, r8
 800cbc4:	9b02      	ldr	r3, [sp, #8]
 800cbc6:	f8cd e024 	str.w	lr, [sp, #36]	; 0x24
 800cbca:	fba3 e707 	umull	lr, r7, r3, r7
 800cbce:	9b06      	ldr	r3, [sp, #24]
 800cbd0:	ebb0 090e 	subs.w	r9, r0, lr
 800cbd4:	440f      	add	r7, r1
 800cbd6:	fb09 f803 	mul.w	r8, r9, r3
 800cbda:	9b02      	ldr	r3, [sp, #8]
 800cbdc:	9913      	ldr	r1, [sp, #76]	; 0x4c
 800cbde:	eb62 0a07 	sbc.w	sl, r2, r7
 800cbe2:	fb03 880a 	mla	r8, r3, sl, r8
 800cbe6:	fba9 9303 	umull	r9, r3, r9, r3
 800cbea:	eb1c 0c09 	adds.w	ip, ip, r9
 800cbee:	4443      	add	r3, r8
 800cbf0:	eb43 030b 	adc.w	r3, r3, fp
 800cbf4:	eb1c 0505 	adds.w	r5, ip, r5
 800cbf8:	eb46 0803 	adc.w	r8, r6, r3
 800cbfc:	9e0e      	ldr	r6, [sp, #56]	; 0x38
 800cbfe:	9b03      	ldr	r3, [sp, #12]
 800cc00:	1b8e      	subs	r6, r1, r6
 800cc02:	9905      	ldr	r1, [sp, #20]
 800cc04:	eb61 0c03 	sbc.w	ip, r1, r3
 800cc08:	e9c4 5814 	strd	r5, r8, [r4, #80]	; 0x50
 800cc0c:	00b3      	lsls	r3, r6, #2
 800cc0e:	ea4f 058c 	mov.w	r5, ip, lsl #2
 800cc12:	199b      	adds	r3, r3, r6
 800cc14:	9907      	ldr	r1, [sp, #28]
 800cc16:	ea45 7596 	orr.w	r5, r5, r6, lsr #30
 800cc1a:	eb4c 0505 	adc.w	r5, ip, r5
 800cc1e:	ebbe 0000 	subs.w	r0, lr, r0
 800cc22:	fb00 f601 	mul.w	r6, r0, r1
 800cc26:	9904      	ldr	r1, [sp, #16]
 800cc28:	eb67 0202 	sbc.w	r2, r7, r2
 800cc2c:	fb01 6202 	mla	r2, r1, r2, r6
 800cc30:	fba0 0101 	umull	r0, r1, r0, r1
 800cc34:	181b      	adds	r3, r3, r0
 800cc36:	980d      	ldr	r0, [sp, #52]	; 0x34
 800cc38:	440a      	add	r2, r1
 800cc3a:	eb42 0505 	adc.w	r5, r2, r5
 800cc3e:	181b      	adds	r3, r3, r0
 800cc40:	9808      	ldr	r0, [sp, #32]
 800cc42:	9a0f      	ldr	r2, [sp, #60]	; 0x3c
 800cc44:	9910      	ldr	r1, [sp, #64]	; 0x40
 800cc46:	eb40 0505 	adc.w	r5, r0, r5
 800cc4a:	980b      	ldr	r0, [sp, #44]	; 0x2c
 800cc4c:	eb12 0800 	adds.w	r8, r2, r0
 800cc50:	e9dd 0209 	ldrd	r0, r2, [sp, #36]	; 0x24
 800cc54:	eb42 0600 	adc.w	r6, r2, r0
 800cc58:	eb18 0201 	adds.w	r2, r8, r1
 800cc5c:	990c      	ldr	r1, [sp, #48]	; 0x30
 800cc5e:	eb41 0606 	adc.w	r6, r1, r6
 800cc62:	e9c4 3516 	strd	r3, r5, [r4, #88]	; 0x58
 800cc66:	e9c4 2618 	strd	r2, r6, [r4, #96]	; 0x60
 800cc6a:	b043      	add	sp, #268	; 0x10c
 800cc6c:	e8bd 8ff0 	ldmia.w	sp!, {r4, r5, r6, r7, r8, r9, sl, fp, pc}

0800cc70 <XPT2046_EXTICallback>:
 800cc70:	b320      	cbz	r0, 800ccbc <XPT2046_EXTICallback+0x4c>
 800cc72:	6902      	ldr	r2, [r0, #16]
 800cc74:	8a83      	ldrh	r3, [r0, #20]
 800cc76:	6912      	ldr	r2, [r2, #16]
 800cc78:	4013      	ands	r3, r2
 800cc7a:	d11f      	bne.n	800ccbc <XPT2046_EXTICallback+0x4c>
 800cc7c:	f990 2016 	ldrsb.w	r2, [r0, #22]
 800cc80:	6243      	str	r3, [r0, #36]	; 0x24
 800cc82:	f880 3070 	strb.w	r3, [r0, #112]	; 0x70
 800cc86:	2101      	movs	r1, #1
 800cc88:	f8d0 3080 	ldr.w	r3, [r0, #128]	; 0x80
 800cc8c:	f880 107c 	strb.w	r1, [r0, #124]	; 0x7c
 800cc90:	2a00      	cmp	r2, #0
 800cc92:	f8c0 3084 	str.w	r3, [r0, #132]	; 0x84
 800cc96:	8ac0      	ldrh	r0, [r0, #22]
 800cc98:	db10      	blt.n	800ccbc <XPT2046_EXTICallback+0x4c>
 800cc9a:	0953      	lsrs	r3, r2, #5
 800cc9c:	009b      	lsls	r3, r3, #2
 800cc9e:	f103 4360 	add.w	r3, r3, #3758096384	; 0xe0000000
 800cca2:	f503 4361 	add.w	r3, r3, #57600	; 0xe100
 800cca6:	f000 001f 	and.w	r0, r0, #31
 800ccaa:	4081      	lsls	r1, r0
 800ccac:	f8c3 1180 	str.w	r1, [r3, #384]	; 0x180
 800ccb0:	f8c3 1080 	str.w	r1, [r3, #128]	; 0x80
 800ccb4:	f3bf 8f4f 	dsb	sy
 800ccb8:	f3bf 8f6f 	isb	sy
 800ccbc:	f3bf 8f4f 	dsb	sy
 800ccc0:	4770      	bx	lr
 800ccc2:	bf00      	nop

0800ccc4 <XPT2046_ConvertPoint>:
 800ccc4:	e92d 47f0 	stmdb	sp!, {r4, r5, r6, r7, r8, r9, sl, lr}
 800ccc8:	4614      	mov	r4, r2
 800ccca:	684d      	ldr	r5, [r1, #4]
 800cccc:	68e3      	ldr	r3, [r4, #12]
 800ccce:	6852      	ldr	r2, [r2, #4]
 800ccd0:	4606      	mov	r6, r0
 800ccd2:	6808      	ldr	r0, [r1, #0]
 800ccd4:	fb05 fc03 	mul.w	ip, r5, r3
 800ccd8:	6823      	ldr	r3, [r4, #0]
 800ccda:	ea4f 7ee0 	mov.w	lr, r0, asr #31
 800ccde:	468a      	mov	sl, r1
 800cce0:	fb00 f202 	mul.w	r2, r0, r2
 800cce4:	68a1      	ldr	r1, [r4, #8]
 800cce6:	17ef      	asrs	r7, r5, #31
 800cce8:	fb0e 2203 	mla	r2, lr, r3, r2
 800ccec:	fba3 3000 	umull	r3, r0, r3, r0
 800ccf0:	e9d4 890c 	ldrd	r8, r9, [r4, #48]	; 0x30
 800ccf4:	fb07 cc01 	mla	ip, r7, r1, ip
 800ccf8:	4402      	add	r2, r0
 800ccfa:	fba1 1e05 	umull	r1, lr, r1, r5
 800ccfe:	6920      	ldr	r0, [r4, #16]
 800cd00:	185b      	adds	r3, r3, r1
 800cd02:	44f4      	add	ip, lr
 800cd04:	6961      	ldr	r1, [r4, #20]
 800cd06:	eb42 020c 	adc.w	r2, r2, ip
 800cd0a:	1818      	adds	r0, r3, r0
 800cd0c:	eb42 0101 	adc.w	r1, r2, r1
 800cd10:	464b      	mov	r3, r9
 800cd12:	4642      	mov	r2, r8
 800cd14:	f7f3 fe8c 	bl	8000a30 <__aeabi_ldivmod>
 800cd18:	6030      	str	r0, [r6, #0]
 800cd1a:	f8da 0000 	ldr.w	r0, [sl]
 800cd1e:	69e1      	ldr	r1, [r4, #28]
 800cd20:	f8d4 c020 	ldr.w	ip, [r4, #32]
 800cd24:	fb00 fe01 	mul.w	lr, r0, r1
 800cd28:	6a61      	ldr	r1, [r4, #36]	; 0x24
 800cd2a:	4642      	mov	r2, r8
 800cd2c:	fb05 f801 	mul.w	r8, r5, r1
 800cd30:	fb07 870c 	mla	r7, r7, ip, r8
 800cd34:	69a1      	ldr	r1, [r4, #24]
 800cd36:	fbac 5c05 	umull	r5, ip, ip, r5
 800cd3a:	4467      	add	r7, ip
 800cd3c:	ea4f 7ce0 	mov.w	ip, r0, asr #31
 800cd40:	fb0c ee01 	mla	lr, ip, r1, lr
 800cd44:	fba1 c100 	umull	ip, r1, r1, r0
 800cd48:	6aa0      	ldr	r0, [r4, #40]	; 0x28
 800cd4a:	6ae4      	ldr	r4, [r4, #44]	; 0x2c
 800cd4c:	eb1c 0c05 	adds.w	ip, ip, r5
 800cd50:	4471      	add	r1, lr
 800cd52:	eb41 0107 	adc.w	r1, r1, r7
 800cd56:	eb1c 0000 	adds.w	r0, ip, r0
 800cd5a:	464b      	mov	r3, r9
 800cd5c:	eb41 0104 	adc.w	r1, r1, r4
 800cd60:	f7f3 fe66 	bl	8000a30 <__aeabi_ldivmod>
 800cd64:	6070      	str	r0, [r6, #4]
 800cd66:	e8bd 87f0 	ldmia.w	sp!, {r4, r5, r6, r7, r8, r9, sl, pc}
 800cd6a:	bf00      	nop

0800cd6c <XPT2046_InitTouch>:
 800cd6c:	b570      	push	{r4, r5, r6, lr}
 800cd6e:	4614      	mov	r4, r2
 800cd70:	460e      	mov	r6, r1
 800cd72:	2288      	movs	r2, #136	; 0x88
 800cd74:	2100      	movs	r1, #0
 800cd76:	4605      	mov	r5, r0
 800cd78:	f000 fa22 	bl	800d1c0 <memset>
 800cd7c:	46a4      	mov	ip, r4
 800cd7e:	e8bc 000f 	ldmia.w	ip!, {r0, r1, r2, r3}
 800cd82:	462c      	mov	r4, r5
 800cd84:	f8c5 6080 	str.w	r6, [r5, #128]	; 0x80
 800cd88:	c40f      	stmia	r4!, {r0, r1, r2, r3}
 800cd8a:	e89c 0003 	ldmia.w	ip, {r0, r1}
 800cd8e:	4e02      	ldr	r6, [pc, #8]	; (800cd98 <XPT2046_InitTouch+0x2c>)
 800cd90:	e884 0003 	stmia.w	r4, {r0, r1}
 800cd94:	6035      	str	r5, [r6, #0]
 800cd96:	bd70      	pop	{r4, r5, r6, pc}
 800cd98:	200001a4 	.word	0x200001a4

0800cd9c <XPT2046_GetTouch>:
 800cd9c:	6802      	ldr	r2, [r0, #0]
 800cd9e:	6813      	ldr	r3, [r2, #0]
 800cda0:	065b      	lsls	r3, r3, #25
 800cda2:	f100 809f 	bmi.w	800cee4 <XPT2046_GetTouch+0x148>
 800cda6:	e92d 4ff0 	stmdb	sp!, {r4, r5, r6, r7, r8, r9, sl, fp, lr}
 800cdaa:	6905      	ldr	r5, [r0, #16]
 800cdac:	f8b0 e014 	ldrh.w	lr, [r0, #20]
 800cdb0:	692e      	ldr	r6, [r5, #16]
 800cdb2:	ea16 060e 	ands.w	r6, r6, lr
 800cdb6:	b085      	sub	sp, #20
 800cdb8:	4604      	mov	r4, r0
 800cdba:	d003      	beq.n	800cdc4 <XPT2046_GetTouch+0x28>
 800cdbc:	2001      	movs	r0, #1
 800cdbe:	b005      	add	sp, #20
 800cdc0:	e8bd 8ff0 	ldmia.w	sp!, {r4, r5, r6, r7, r8, r9, sl, fp, pc}
 800cdc4:	6813      	ldr	r3, [r2, #0]
 800cdc6:	f423 432c 	bic.w	r3, r3, #44032	; 0xac00
 800cdca:	6013      	str	r3, [r2, #0]
 800cdcc:	6813      	ldr	r3, [r2, #0]
 800cdce:	f443 6300 	orr.w	r3, r3, #2048	; 0x800
 800cdd2:	6013      	str	r3, [r2, #0]
 800cdd4:	6817      	ldr	r7, [r2, #0]
 800cdd6:	6813      	ldr	r3, [r2, #0]
 800cdd8:	f023 0338 	bic.w	r3, r3, #56	; 0x38
 800cddc:	6013      	str	r3, [r2, #0]
 800cdde:	7903      	ldrb	r3, [r0, #4]
 800cde0:	6811      	ldr	r1, [r2, #0]
 800cde2:	00db      	lsls	r3, r3, #3
 800cde4:	f003 0338 	and.w	r3, r3, #56	; 0x38
 800cde8:	430b      	orrs	r3, r1
 800cdea:	6013      	str	r3, [r2, #0]
 800cdec:	6813      	ldr	r3, [r2, #0]
 800cdee:	6881      	ldr	r1, [r0, #8]
 800cdf0:	f043 0340 	orr.w	r3, r3, #64	; 0x40
 800cdf4:	6013      	str	r3, [r2, #0]
 800cdf6:	8983      	ldrh	r3, [r0, #12]
 800cdf8:	041b      	lsls	r3, r3, #16
 800cdfa:	618b      	str	r3, [r1, #24]
 800cdfc:	21d0      	movs	r1, #208	; 0xd0
 800cdfe:	2390      	movs	r3, #144	; 0x90
 800ce00:	e9cd 1300 	strd	r1, r3, [sp]
 800ce04:	f007 0738 	and.w	r7, r7, #56	; 0x38
 800ce08:	2009      	movs	r0, #9
 800ce0a:	f04f 0801 	mov.w	r8, #1
 800ce0e:	f10d 0908 	add.w	r9, sp, #8
 800ce12:	46ec      	mov	ip, sp
 800ce14:	2100      	movs	r1, #0
 800ce16:	692b      	ldr	r3, [r5, #16]
 800ce18:	ea1e 0f03 	tst.w	lr, r3
 800ce1c:	d140      	bne.n	800cea0 <XPT2046_GetTouch+0x104>
 800ce1e:	f83c 3b02 	ldrh.w	r3, [ip], #2
 800ce22:	60d3      	str	r3, [r2, #12]
 800ce24:	6893      	ldr	r3, [r2, #8]
 800ce26:	07db      	lsls	r3, r3, #31
 800ce28:	d403      	bmi.n	800ce32 <XPT2046_GetTouch+0x96>
 800ce2a:	bf00      	nop
 800ce2c:	6893      	ldr	r3, [r2, #8]
 800ce2e:	07db      	lsls	r3, r3, #31
 800ce30:	d5fb      	bpl.n	800ce2a <XPT2046_GetTouch+0x8e>
 800ce32:	f011 0f01 	tst.w	r1, #1
 800ce36:	68d3      	ldr	r3, [r2, #12]
 800ce38:	d00b      	beq.n	800ce52 <XPT2046_GetTouch+0xb6>
 800ce3a:	f1b8 0f00 	cmp.w	r8, #0
 800ce3e:	d149      	bne.n	800ced4 <XPT2046_GetTouch+0x138>
 800ce40:	ea4f 0b61 	mov.w	fp, r1, asr #1
 800ce44:	f3c3 0acb 	ubfx	sl, r3, #3, #12
 800ce48:	f859 302b 	ldr.w	r3, [r9, fp, lsl #2]
 800ce4c:	4453      	add	r3, sl
 800ce4e:	f849 302b 	str.w	r3, [r9, fp, lsl #2]
 800ce52:	3101      	adds	r1, #1
 800ce54:	2904      	cmp	r1, #4
 800ce56:	d1de      	bne.n	800ce16 <XPT2046_GetTouch+0x7a>
 800ce58:	3801      	subs	r0, #1
 800ce5a:	f010 00ff 	ands.w	r0, r0, #255	; 0xff
 800ce5e:	f04f 0800 	mov.w	r8, #0
 800ce62:	d1d6      	bne.n	800ce12 <XPT2046_GetTouch+0x76>
 800ce64:	9b02      	ldr	r3, [sp, #8]
 800ce66:	9a03      	ldr	r2, [sp, #12]
 800ce68:	2b00      	cmp	r3, #0
 800ce6a:	bfb8      	it	lt
 800ce6c:	3307      	addlt	r3, #7
 800ce6e:	2a00      	cmp	r2, #0
 800ce70:	bfb8      	it	lt
 800ce72:	3207      	addlt	r2, #7
 800ce74:	10d2      	asrs	r2, r2, #3
 800ce76:	9203      	str	r2, [sp, #12]
 800ce78:	61a2      	str	r2, [r4, #24]
 800ce7a:	f894 2070 	ldrb.w	r2, [r4, #112]	; 0x70
 800ce7e:	10db      	asrs	r3, r3, #3
 800ce80:	9302      	str	r3, [sp, #8]
 800ce82:	61e3      	str	r3, [r4, #28]
 800ce84:	b96a      	cbnz	r2, 800cea2 <XPT2046_GetTouch+0x106>
 800ce86:	2301      	movs	r3, #1
 800ce88:	f884 3070 	strb.w	r3, [r4, #112]	; 0x70
 800ce8c:	f104 0318 	add.w	r3, r4, #24
 800ce90:	e893 0003 	ldmia.w	r3, {r0, r1}
 800ce94:	f104 0374 	add.w	r3, r4, #116	; 0x74
 800ce98:	e883 0003 	stmia.w	r3, {r0, r1}
 800ce9c:	4610      	mov	r0, r2
 800ce9e:	e000      	b.n	800cea2 <XPT2046_GetTouch+0x106>
 800cea0:	2001      	movs	r0, #1
 800cea2:	6822      	ldr	r2, [r4, #0]
 800cea4:	6893      	ldr	r3, [r2, #8]
 800cea6:	0619      	lsls	r1, r3, #24
 800cea8:	d503      	bpl.n	800ceb2 <XPT2046_GetTouch+0x116>
 800ceaa:	bf00      	nop
 800ceac:	6893      	ldr	r3, [r2, #8]
 800ceae:	061b      	lsls	r3, r3, #24
 800ceb0:	d4fb      	bmi.n	800ceaa <XPT2046_GetTouch+0x10e>
 800ceb2:	68a3      	ldr	r3, [r4, #8]
 800ceb4:	89a1      	ldrh	r1, [r4, #12]
 800ceb6:	6199      	str	r1, [r3, #24]
 800ceb8:	6813      	ldr	r3, [r2, #0]
 800ceba:	f023 0340 	bic.w	r3, r3, #64	; 0x40
 800cebe:	6013      	str	r3, [r2, #0]
 800cec0:	6813      	ldr	r3, [r2, #0]
 800cec2:	f023 0338 	bic.w	r3, r3, #56	; 0x38
 800cec6:	6013      	str	r3, [r2, #0]
 800cec8:	6813      	ldr	r3, [r2, #0]
 800ceca:	431f      	orrs	r7, r3
 800cecc:	6017      	str	r7, [r2, #0]
 800cece:	b005      	add	sp, #20
 800ced0:	e8bd 8ff0 	ldmia.w	sp!, {r4, r5, r6, r7, r8, r9, sl, fp, pc}
 800ced4:	104b      	asrs	r3, r1, #1
 800ced6:	f10d 0a10 	add.w	sl, sp, #16
 800ceda:	eb0a 0383 	add.w	r3, sl, r3, lsl #2
 800cede:	f843 6c08 	str.w	r6, [r3, #-8]
 800cee2:	e7b6      	b.n	800ce52 <XPT2046_GetTouch+0xb6>
 800cee4:	2002      	movs	r0, #2
 800cee6:	4770      	bx	lr

0800cee8 <XPT2046_TIMCallback>:
 800cee8:	b350      	cbz	r0, 800cf40 <XPT2046_TIMCallback+0x58>
 800ceea:	e92d 4ff0 	stmdb	sp!, {r4, r5, r6, r7, r8, r9, sl, fp, lr}
 800ceee:	ed2d 8b02 	vpush	{d8}
 800cef2:	f890 307c 	ldrb.w	r3, [r0, #124]	; 0x7c
 800cef6:	b093      	sub	sp, #76	; 0x4c
 800cef8:	4604      	mov	r4, r0
 800cefa:	b1d3      	cbz	r3, 800cf32 <XPT2046_TIMCallback+0x4a>
 800cefc:	f8d0 3084 	ldr.w	r3, [r0, #132]	; 0x84
 800cf00:	3b01      	subs	r3, #1
 800cf02:	f8c0 3084 	str.w	r3, [r0, #132]	; 0x84
 800cf06:	b9b3      	cbnz	r3, 800cf36 <XPT2046_TIMCallback+0x4e>
 800cf08:	f890 207d 	ldrb.w	r2, [r0, #125]	; 0x7d
 800cf0c:	f8d0 1080 	ldr.w	r1, [r0, #128]	; 0x80
 800cf10:	f8c0 1084 	str.w	r1, [r0, #132]	; 0x84
 800cf14:	b9ba      	cbnz	r2, 800cf46 <XPT2046_TIMCallback+0x5e>
 800cf16:	6903      	ldr	r3, [r0, #16]
 800cf18:	8a81      	ldrh	r1, [r0, #20]
 800cf1a:	691b      	ldr	r3, [r3, #16]
 800cf1c:	4219      	tst	r1, r3
 800cf1e:	d126      	bne.n	800cf6e <XPT2046_TIMCallback+0x86>
 800cf20:	f890 3028 	ldrb.w	r3, [r0, #40]	; 0x28
 800cf24:	bb03      	cbnz	r3, 800cf68 <XPT2046_TIMCallback+0x80>
 800cf26:	6a63      	ldr	r3, [r4, #36]	; 0x24
 800cf28:	2201      	movs	r2, #1
 800cf2a:	4413      	add	r3, r2
 800cf2c:	f884 2029 	strb.w	r2, [r4, #41]	; 0x29
 800cf30:	6263      	str	r3, [r4, #36]	; 0x24
 800cf32:	f3bf 8f4f 	dsb	sy
 800cf36:	b013      	add	sp, #76	; 0x4c
 800cf38:	ecbd 8b02 	vpop	{d8}
 800cf3c:	e8bd 8ff0 	ldmia.w	sp!, {r4, r5, r6, r7, r8, r9, sl, fp, pc}
 800cf40:	f3bf 8f4f 	dsb	sy
 800cf44:	4770      	bx	lr
 800cf46:	f990 2016 	ldrsb.w	r2, [r0, #22]
 800cf4a:	f8a0 307c 	strh.w	r3, [r0, #124]	; 0x7c
 800cf4e:	2a00      	cmp	r2, #0
 800cf50:	8ac3      	ldrh	r3, [r0, #22]
 800cf52:	dbee      	blt.n	800cf32 <XPT2046_TIMCallback+0x4a>
 800cf54:	4864      	ldr	r0, [pc, #400]	; (800d0e8 <XPT2046_TIMCallback+0x200>)
 800cf56:	0952      	lsrs	r2, r2, #5
 800cf58:	f003 031f 	and.w	r3, r3, #31
 800cf5c:	2101      	movs	r1, #1
 800cf5e:	fa01 f303 	lsl.w	r3, r1, r3
 800cf62:	f840 3022 	str.w	r3, [r0, r2, lsl #2]
 800cf66:	e7e4      	b.n	800cf32 <XPT2046_TIMCallback+0x4a>
 800cf68:	f7ff ff18 	bl	800cd9c <XPT2046_GetTouch>
 800cf6c:	e7db      	b.n	800cf26 <XPT2046_TIMCallback+0x3e>
 800cf6e:	6a43      	ldr	r3, [r0, #36]	; 0x24
 800cf70:	f880 2029 	strb.w	r2, [r0, #41]	; 0x29
 800cf74:	e9d0 b10e 	ldrd	fp, r1, [r0, #56]	; 0x38
 800cf78:	6f47      	ldr	r7, [r0, #116]	; 0x74
 800cf7a:	6203      	str	r3, [r0, #32]
 800cf7c:	e9d0 0506 	ldrd	r0, r5, [r0, #24]
 800cf80:	e9d4 9a10 	ldrd	r9, sl, [r4, #64]	; 0x40
 800cf84:	17c3      	asrs	r3, r0, #31
 800cf86:	9110      	str	r1, [sp, #64]	; 0x40
 800cf88:	9003      	str	r0, [sp, #12]
 800cf8a:	fb00 f101 	mul.w	r1, r0, r1
 800cf8e:	e9d4 6012 	ldrd	r6, r0, [r4, #72]	; 0x48
 800cf92:	17ea      	asrs	r2, r5, #31
 800cf94:	930e      	str	r3, [sp, #56]	; 0x38
 800cf96:	fb0b 1103 	mla	r1, fp, r3, r1
 800cf9a:	fb05 f30a 	mul.w	r3, r5, sl
 800cf9e:	920f      	str	r2, [sp, #60]	; 0x3c
 800cfa0:	fb09 3302 	mla	r3, r9, r2, r3
 800cfa4:	6fa2      	ldr	r2, [r4, #120]	; 0x78
 800cfa6:	9011      	str	r0, [sp, #68]	; 0x44
 800cfa8:	17f8      	asrs	r0, r7, #31
 800cfaa:	9006      	str	r0, [sp, #24]
 800cfac:	9202      	str	r2, [sp, #8]
 800cfae:	6d60      	ldr	r0, [r4, #84]	; 0x54
 800cfb0:	9008      	str	r0, [sp, #32]
 800cfb2:	17d2      	asrs	r2, r2, #31
 800cfb4:	6da0      	ldr	r0, [r4, #88]	; 0x58
 800cfb6:	9207      	str	r2, [sp, #28]
 800cfb8:	6de2      	ldr	r2, [r4, #92]	; 0x5c
 800cfba:	9209      	str	r2, [sp, #36]	; 0x24
 800cfbc:	9005      	str	r0, [sp, #20]
 800cfbe:	6d22      	ldr	r2, [r4, #80]	; 0x50
 800cfc0:	6e20      	ldr	r0, [r4, #96]	; 0x60
 800cfc2:	9701      	str	r7, [sp, #4]
 800cfc4:	900a      	str	r0, [sp, #40]	; 0x28
 800cfc6:	9204      	str	r2, [sp, #16]
 800cfc8:	6e62      	ldr	r2, [r4, #100]	; 0x64
 800cfca:	9803      	ldr	r0, [sp, #12]
 800cfcc:	920b      	str	r2, [sp, #44]	; 0x2c
 800cfce:	e9d4 781a 	ldrd	r7, r8, [r4, #104]	; 0x68
 800cfd2:	fba0 020b 	umull	r0, r2, r0, fp
 800cfd6:	e9cd 780c 	strd	r7, r8, [sp, #48]	; 0x30
 800cfda:	ed9d 8b0c 	vldr	d8, [sp, #48]	; 0x30
 800cfde:	4411      	add	r1, r2
 800cfe0:	fba5 2c09 	umull	r2, ip, r5, r9
 800cfe4:	4463      	add	r3, ip
 800cfe6:	9f11      	ldr	r7, [sp, #68]	; 0x44
 800cfe8:	1880      	adds	r0, r0, r2
 800cfea:	eb41 0103 	adc.w	r1, r1, r3
 800cfee:	1980      	adds	r0, r0, r6
 800cff0:	ec53 2b18 	vmov	r2, r3, d8
 800cff4:	eb47 0101 	adc.w	r1, r7, r1
 800cff8:	f7f3 fd1a 	bl	8000a30 <__aeabi_ldivmod>
 800cffc:	9910      	ldr	r1, [sp, #64]	; 0x40
 800cffe:	9b01      	ldr	r3, [sp, #4]
 800d000:	9a02      	ldr	r2, [sp, #8]
 800d002:	fb03 f301 	mul.w	r3, r3, r1
 800d006:	9906      	ldr	r1, [sp, #24]
 800d008:	fb0b 3301 	mla	r3, fp, r1, r3
 800d00c:	9907      	ldr	r1, [sp, #28]
 800d00e:	fb02 fa0a 	mul.w	sl, r2, sl
 800d012:	fb09 aa01 	mla	sl, r9, r1, sl
 800d016:	9901      	ldr	r1, [sp, #4]
 800d018:	4680      	mov	r8, r0
 800d01a:	fba1 0b0b 	umull	r0, fp, r1, fp
 800d01e:	fba2 9109 	umull	r9, r1, r2, r9
 800d022:	449b      	add	fp, r3
 800d024:	eb10 0009 	adds.w	r0, r0, r9
 800d028:	448a      	add	sl, r1
 800d02a:	eb4b 010a 	adc.w	r1, fp, sl
 800d02e:	1980      	adds	r0, r0, r6
 800d030:	ec53 2b18 	vmov	r2, r3, d8
 800d034:	eb47 0101 	adc.w	r1, r7, r1
 800d038:	f7f3 fcfa 	bl	8000a30 <__aeabi_ldivmod>
 800d03c:	4643      	mov	r3, r8
 800d03e:	1a18      	subs	r0, r3, r0
 800d040:	62e0      	str	r0, [r4, #44]	; 0x2c
 800d042:	9b03      	ldr	r3, [sp, #12]
 800d044:	9808      	ldr	r0, [sp, #32]
 800d046:	9a04      	ldr	r2, [sp, #16]
 800d048:	990e      	ldr	r1, [sp, #56]	; 0x38
 800d04a:	9f05      	ldr	r7, [sp, #20]
 800d04c:	9e0f      	ldr	r6, [sp, #60]	; 0x3c
 800d04e:	fb03 f300 	mul.w	r3, r3, r0
 800d052:	9803      	ldr	r0, [sp, #12]
 800d054:	fb02 3301 	mla	r3, r2, r1, r3
 800d058:	9909      	ldr	r1, [sp, #36]	; 0x24
 800d05a:	fba0 0802 	umull	r0, r8, r0, r2
 800d05e:	4498      	add	r8, r3
 800d060:	fb05 f101 	mul.w	r1, r5, r1
 800d064:	fba5 5307 	umull	r5, r3, r5, r7
 800d068:	fb07 1106 	mla	r1, r7, r6, r1
 800d06c:	1940      	adds	r0, r0, r5
 800d06e:	9d0a      	ldr	r5, [sp, #40]	; 0x28
 800d070:	4419      	add	r1, r3
 800d072:	ec5a 9b18 	vmov	r9, sl, d8
 800d076:	eb48 0101 	adc.w	r1, r8, r1
 800d07a:	1940      	adds	r0, r0, r5
 800d07c:	9d0b      	ldr	r5, [sp, #44]	; 0x2c
 800d07e:	ee18 2a10 	vmov	r2, s16
 800d082:	eb45 0101 	adc.w	r1, r5, r1
 800d086:	4653      	mov	r3, sl
 800d088:	f7f3 fcd2 	bl	8000a30 <__aeabi_ldivmod>
 800d08c:	9b01      	ldr	r3, [sp, #4]
 800d08e:	9e06      	ldr	r6, [sp, #24]
 800d090:	9a09      	ldr	r2, [sp, #36]	; 0x24
 800d092:	4605      	mov	r5, r0
 800d094:	9808      	ldr	r0, [sp, #32]
 800d096:	fb03 f100 	mul.w	r1, r3, r0
 800d09a:	9b04      	ldr	r3, [sp, #16]
 800d09c:	9802      	ldr	r0, [sp, #8]
 800d09e:	fb03 1106 	mla	r1, r3, r6, r1
 800d0a2:	9e07      	ldr	r6, [sp, #28]
 800d0a4:	fb00 f202 	mul.w	r2, r0, r2
 800d0a8:	fb07 2206 	mla	r2, r7, r6, r2
 800d0ac:	9f01      	ldr	r7, [sp, #4]
 800d0ae:	fba7 0703 	umull	r0, r7, r7, r3
 800d0b2:	440f      	add	r7, r1
 800d0b4:	9b05      	ldr	r3, [sp, #20]
 800d0b6:	9902      	ldr	r1, [sp, #8]
 800d0b8:	fba1 3103 	umull	r3, r1, r1, r3
 800d0bc:	18c0      	adds	r0, r0, r3
 800d0be:	9b0a      	ldr	r3, [sp, #40]	; 0x28
 800d0c0:	4411      	add	r1, r2
 800d0c2:	eb47 0101 	adc.w	r1, r7, r1
 800d0c6:	18c0      	adds	r0, r0, r3
 800d0c8:	9b0b      	ldr	r3, [sp, #44]	; 0x2c
 800d0ca:	ee18 2a10 	vmov	r2, s16
 800d0ce:	eb43 0101 	adc.w	r1, r3, r1
 800d0d2:	4653      	mov	r3, sl
 800d0d4:	f7f3 fcac 	bl	8000a30 <__aeabi_ldivmod>
 800d0d8:	2301      	movs	r3, #1
 800d0da:	1a2d      	subs	r5, r5, r0
 800d0dc:	6325      	str	r5, [r4, #48]	; 0x30
 800d0de:	f884 307d 	strb.w	r3, [r4, #125]	; 0x7d
 800d0e2:	f3bf 8f4f 	dsb	sy
 800d0e6:	e726      	b.n	800cf36 <XPT2046_TIMCallback+0x4e>
 800d0e8:	e000e100 	.word	0xe000e100

0800d0ec <calloc>:
 800d0ec:	4b02      	ldr	r3, [pc, #8]	; (800d0f8 <calloc+0xc>)
 800d0ee:	460a      	mov	r2, r1
 800d0f0:	4601      	mov	r1, r0
 800d0f2:	6818      	ldr	r0, [r3, #0]
 800d0f4:	f000 b86c 	b.w	800d1d0 <_calloc_r>
 800d0f8:	20000110 	.word	0x20000110

0800d0fc <__errno>:
 800d0fc:	4b01      	ldr	r3, [pc, #4]	; (800d104 <__errno+0x8>)
 800d0fe:	6818      	ldr	r0, [r3, #0]
 800d100:	4770      	bx	lr
 800d102:	bf00      	nop
 800d104:	20000110 	.word	0x20000110

0800d108 <__libc_init_array>:
 800d108:	b570      	push	{r4, r5, r6, lr}
 800d10a:	4d0d      	ldr	r5, [pc, #52]	; (800d140 <__libc_init_array+0x38>)
 800d10c:	4c0d      	ldr	r4, [pc, #52]	; (800d144 <__libc_init_array+0x3c>)
 800d10e:	1b64      	subs	r4, r4, r5
 800d110:	10a4      	asrs	r4, r4, #2
 800d112:	2600      	movs	r6, #0
 800d114:	42a6      	cmp	r6, r4
 800d116:	d109      	bne.n	800d12c <__libc_init_array+0x24>
 800d118:	4d0b      	ldr	r5, [pc, #44]	; (800d148 <__libc_init_array+0x40>)
 800d11a:	4c0c      	ldr	r4, [pc, #48]	; (800d14c <__libc_init_array+0x44>)
 800d11c:	f001 f8f4 	bl	800e308 <_init>
 800d120:	1b64      	subs	r4, r4, r5
 800d122:	10a4      	asrs	r4, r4, #2
 800d124:	2600      	movs	r6, #0
 800d126:	42a6      	cmp	r6, r4
 800d128:	d105      	bne.n	800d136 <__libc_init_array+0x2e>
 800d12a:	bd70      	pop	{r4, r5, r6, pc}
 800d12c:	f855 3b04 	ldr.w	r3, [r5], #4
 800d130:	4798      	blx	r3
 800d132:	3601      	adds	r6, #1
 800d134:	e7ee      	b.n	800d114 <__libc_init_array+0xc>
 800d136:	f855 3b04 	ldr.w	r3, [r5], #4
 800d13a:	4798      	blx	r3
 800d13c:	3601      	adds	r6, #1
 800d13e:	e7f2      	b.n	800d126 <__libc_init_array+0x1e>
 800d140:	0803cc3c 	.word	0x0803cc3c
 800d144:	0803cc3c 	.word	0x0803cc3c
 800d148:	0803cc3c 	.word	0x0803cc3c
 800d14c:	0803cc40 	.word	0x0803cc40

0800d150 <malloc>:
 800d150:	4b02      	ldr	r3, [pc, #8]	; (800d15c <malloc+0xc>)
 800d152:	4601      	mov	r1, r0
 800d154:	6818      	ldr	r0, [r3, #0]
 800d156:	f000 b8bd 	b.w	800d2d4 <_malloc_r>
 800d15a:	bf00      	nop
 800d15c:	20000110 	.word	0x20000110

0800d160 <free>:
 800d160:	4b02      	ldr	r3, [pc, #8]	; (800d16c <free+0xc>)
 800d162:	4601      	mov	r1, r0
 800d164:	6818      	ldr	r0, [r3, #0]
 800d166:	f000 b849 	b.w	800d1fc <_free_r>
 800d16a:	bf00      	nop
 800d16c:	20000110 	.word	0x20000110

0800d170 <memcpy>:
 800d170:	440a      	add	r2, r1
 800d172:	4291      	cmp	r1, r2
 800d174:	f100 33ff 	add.w	r3, r0, #4294967295
 800d178:	d100      	bne.n	800d17c <memcpy+0xc>
 800d17a:	4770      	bx	lr
 800d17c:	b510      	push	{r4, lr}
 800d17e:	f811 4b01 	ldrb.w	r4, [r1], #1
 800d182:	f803 4f01 	strb.w	r4, [r3, #1]!
 800d186:	4291      	cmp	r1, r2
 800d188:	d1f9      	bne.n	800d17e <memcpy+0xe>
 800d18a:	bd10      	pop	{r4, pc}

0800d18c <memmove>:
 800d18c:	4288      	cmp	r0, r1
 800d18e:	b510      	push	{r4, lr}
 800d190:	eb01 0402 	add.w	r4, r1, r2
 800d194:	d902      	bls.n	800d19c <memmove+0x10>
 800d196:	4284      	cmp	r4, r0
 800d198:	4623      	mov	r3, r4
 800d19a:	d807      	bhi.n	800d1ac <memmove+0x20>
 800d19c:	1e43      	subs	r3, r0, #1
 800d19e:	42a1      	cmp	r1, r4
 800d1a0:	d008      	beq.n	800d1b4 <memmove+0x28>
 800d1a2:	f811 2b01 	ldrb.w	r2, [r1], #1
 800d1a6:	f803 2f01 	strb.w	r2, [r3, #1]!
 800d1aa:	e7f8      	b.n	800d19e <memmove+0x12>
 800d1ac:	4402      	add	r2, r0
 800d1ae:	4601      	mov	r1, r0
 800d1b0:	428a      	cmp	r2, r1
 800d1b2:	d100      	bne.n	800d1b6 <memmove+0x2a>
 800d1b4:	bd10      	pop	{r4, pc}
 800d1b6:	f813 4d01 	ldrb.w	r4, [r3, #-1]!
 800d1ba:	f802 4d01 	strb.w	r4, [r2, #-1]!
 800d1be:	e7f7      	b.n	800d1b0 <memmove+0x24>

0800d1c0 <memset>:
 800d1c0:	4402      	add	r2, r0
 800d1c2:	4603      	mov	r3, r0
 800d1c4:	4293      	cmp	r3, r2
 800d1c6:	d100      	bne.n	800d1ca <memset+0xa>
 800d1c8:	4770      	bx	lr
 800d1ca:	f803 1b01 	strb.w	r1, [r3], #1
 800d1ce:	e7f9      	b.n	800d1c4 <memset+0x4>

0800d1d0 <_calloc_r>:
 800d1d0:	b537      	push	{r0, r1, r2, r4, r5, lr}
 800d1d2:	fba1 2402 	umull	r2, r4, r1, r2
 800d1d6:	b94c      	cbnz	r4, 800d1ec <_calloc_r+0x1c>
 800d1d8:	4611      	mov	r1, r2
 800d1da:	9201      	str	r2, [sp, #4]
 800d1dc:	f000 f87a 	bl	800d2d4 <_malloc_r>
 800d1e0:	9a01      	ldr	r2, [sp, #4]
 800d1e2:	4605      	mov	r5, r0
 800d1e4:	b930      	cbnz	r0, 800d1f4 <_calloc_r+0x24>
 800d1e6:	4628      	mov	r0, r5
 800d1e8:	b003      	add	sp, #12
 800d1ea:	bd30      	pop	{r4, r5, pc}
 800d1ec:	220c      	movs	r2, #12
 800d1ee:	6002      	str	r2, [r0, #0]
 800d1f0:	2500      	movs	r5, #0
 800d1f2:	e7f8      	b.n	800d1e6 <_calloc_r+0x16>
 800d1f4:	4621      	mov	r1, r4
 800d1f6:	f7ff ffe3 	bl	800d1c0 <memset>
 800d1fa:	e7f4      	b.n	800d1e6 <_calloc_r+0x16>

0800d1fc <_free_r>:
 800d1fc:	b537      	push	{r0, r1, r2, r4, r5, lr}
 800d1fe:	2900      	cmp	r1, #0
 800d200:	d044      	beq.n	800d28c <_free_r+0x90>
 800d202:	f851 3c04 	ldr.w	r3, [r1, #-4]
 800d206:	9001      	str	r0, [sp, #4]
 800d208:	2b00      	cmp	r3, #0
 800d20a:	f1a1 0404 	sub.w	r4, r1, #4
 800d20e:	bfb8      	it	lt
 800d210:	18e4      	addlt	r4, r4, r3
 800d212:	f000 f9a7 	bl	800d564 <__malloc_lock>
 800d216:	4a1e      	ldr	r2, [pc, #120]	; (800d290 <_free_r+0x94>)
 800d218:	9801      	ldr	r0, [sp, #4]
 800d21a:	6813      	ldr	r3, [r2, #0]
 800d21c:	b933      	cbnz	r3, 800d22c <_free_r+0x30>
 800d21e:	6063      	str	r3, [r4, #4]
 800d220:	6014      	str	r4, [r2, #0]
 800d222:	b003      	add	sp, #12
 800d224:	e8bd 4030 	ldmia.w	sp!, {r4, r5, lr}
 800d228:	f000 b9a2 	b.w	800d570 <__malloc_unlock>
 800d22c:	42a3      	cmp	r3, r4
 800d22e:	d908      	bls.n	800d242 <_free_r+0x46>
 800d230:	6825      	ldr	r5, [r4, #0]
 800d232:	1961      	adds	r1, r4, r5
 800d234:	428b      	cmp	r3, r1
 800d236:	bf01      	itttt	eq
 800d238:	6819      	ldreq	r1, [r3, #0]
 800d23a:	685b      	ldreq	r3, [r3, #4]
 800d23c:	1949      	addeq	r1, r1, r5
 800d23e:	6021      	streq	r1, [r4, #0]
 800d240:	e7ed      	b.n	800d21e <_free_r+0x22>
 800d242:	461a      	mov	r2, r3
 800d244:	685b      	ldr	r3, [r3, #4]
 800d246:	b10b      	cbz	r3, 800d24c <_free_r+0x50>
 800d248:	42a3      	cmp	r3, r4
 800d24a:	d9fa      	bls.n	800d242 <_free_r+0x46>
 800d24c:	6811      	ldr	r1, [r2, #0]
 800d24e:	1855      	adds	r5, r2, r1
 800d250:	42a5      	cmp	r5, r4
 800d252:	d10b      	bne.n	800d26c <_free_r+0x70>
 800d254:	6824      	ldr	r4, [r4, #0]
 800d256:	4421      	add	r1, r4
 800d258:	1854      	adds	r4, r2, r1
 800d25a:	42a3      	cmp	r3, r4
 800d25c:	6011      	str	r1, [r2, #0]
 800d25e:	d1e0      	bne.n	800d222 <_free_r+0x26>
 800d260:	681c      	ldr	r4, [r3, #0]
 800d262:	685b      	ldr	r3, [r3, #4]
 800d264:	6053      	str	r3, [r2, #4]
 800d266:	4421      	add	r1, r4
 800d268:	6011      	str	r1, [r2, #0]
 800d26a:	e7da      	b.n	800d222 <_free_r+0x26>
 800d26c:	d902      	bls.n	800d274 <_free_r+0x78>
 800d26e:	230c      	movs	r3, #12
 800d270:	6003      	str	r3, [r0, #0]
 800d272:	e7d6      	b.n	800d222 <_free_r+0x26>
 800d274:	6825      	ldr	r5, [r4, #0]
 800d276:	1961      	adds	r1, r4, r5
 800d278:	428b      	cmp	r3, r1
 800d27a:	bf04      	itt	eq
 800d27c:	6819      	ldreq	r1, [r3, #0]
 800d27e:	685b      	ldreq	r3, [r3, #4]
 800d280:	6063      	str	r3, [r4, #4]
 800d282:	bf04      	itt	eq
 800d284:	1949      	addeq	r1, r1, r5
 800d286:	6021      	streq	r1, [r4, #0]
 800d288:	6054      	str	r4, [r2, #4]
 800d28a:	e7ca      	b.n	800d222 <_free_r+0x26>
 800d28c:	b003      	add	sp, #12
 800d28e:	bd30      	pop	{r4, r5, pc}
 800d290:	200001a8 	.word	0x200001a8

0800d294 <sbrk_aligned>:
 800d294:	b570      	push	{r4, r5, r6, lr}
 800d296:	4e0e      	ldr	r6, [pc, #56]	; (800d2d0 <sbrk_aligned+0x3c>)
 800d298:	460c      	mov	r4, r1
 800d29a:	6831      	ldr	r1, [r6, #0]
 800d29c:	4605      	mov	r5, r0
 800d29e:	b911      	cbnz	r1, 800d2a6 <sbrk_aligned+0x12>
 800d2a0:	f000 f8ca 	bl	800d438 <_sbrk_r>
 800d2a4:	6030      	str	r0, [r6, #0]
 800d2a6:	4621      	mov	r1, r4
 800d2a8:	4628      	mov	r0, r5
 800d2aa:	f000 f8c5 	bl	800d438 <_sbrk_r>
 800d2ae:	1c43      	adds	r3, r0, #1
 800d2b0:	d00a      	beq.n	800d2c8 <sbrk_aligned+0x34>
 800d2b2:	1cc4      	adds	r4, r0, #3
 800d2b4:	f024 0403 	bic.w	r4, r4, #3
 800d2b8:	42a0      	cmp	r0, r4
 800d2ba:	d007      	beq.n	800d2cc <sbrk_aligned+0x38>
 800d2bc:	1a21      	subs	r1, r4, r0
 800d2be:	4628      	mov	r0, r5
 800d2c0:	f000 f8ba 	bl	800d438 <_sbrk_r>
 800d2c4:	3001      	adds	r0, #1
 800d2c6:	d101      	bne.n	800d2cc <sbrk_aligned+0x38>
 800d2c8:	f04f 34ff 	mov.w	r4, #4294967295
 800d2cc:	4620      	mov	r0, r4
 800d2ce:	bd70      	pop	{r4, r5, r6, pc}
 800d2d0:	200001ac 	.word	0x200001ac

0800d2d4 <_malloc_r>:
 800d2d4:	e92d 41f0 	stmdb	sp!, {r4, r5, r6, r7, r8, lr}
 800d2d8:	1ccd      	adds	r5, r1, #3
 800d2da:	f025 0503 	bic.w	r5, r5, #3
 800d2de:	3508      	adds	r5, #8
 800d2e0:	2d0c      	cmp	r5, #12
 800d2e2:	bf38      	it	cc
 800d2e4:	250c      	movcc	r5, #12
 800d2e6:	2d00      	cmp	r5, #0
 800d2e8:	4607      	mov	r7, r0
 800d2ea:	db01      	blt.n	800d2f0 <_malloc_r+0x1c>
 800d2ec:	42a9      	cmp	r1, r5
 800d2ee:	d905      	bls.n	800d2fc <_malloc_r+0x28>
 800d2f0:	230c      	movs	r3, #12
 800d2f2:	603b      	str	r3, [r7, #0]
 800d2f4:	2600      	movs	r6, #0
 800d2f6:	4630      	mov	r0, r6
 800d2f8:	e8bd 81f0 	ldmia.w	sp!, {r4, r5, r6, r7, r8, pc}
 800d2fc:	4e2e      	ldr	r6, [pc, #184]	; (800d3b8 <_malloc_r+0xe4>)
 800d2fe:	f000 f931 	bl	800d564 <__malloc_lock>
 800d302:	6833      	ldr	r3, [r6, #0]
 800d304:	461c      	mov	r4, r3
 800d306:	bb34      	cbnz	r4, 800d356 <_malloc_r+0x82>
 800d308:	4629      	mov	r1, r5
 800d30a:	4638      	mov	r0, r7
 800d30c:	f7ff ffc2 	bl	800d294 <sbrk_aligned>
 800d310:	1c43      	adds	r3, r0, #1
 800d312:	4604      	mov	r4, r0
 800d314:	d14d      	bne.n	800d3b2 <_malloc_r+0xde>
 800d316:	6834      	ldr	r4, [r6, #0]
 800d318:	4626      	mov	r6, r4
 800d31a:	2e00      	cmp	r6, #0
 800d31c:	d140      	bne.n	800d3a0 <_malloc_r+0xcc>
 800d31e:	6823      	ldr	r3, [r4, #0]
 800d320:	4631      	mov	r1, r6
 800d322:	4638      	mov	r0, r7
 800d324:	eb04 0803 	add.w	r8, r4, r3
 800d328:	f000 f886 	bl	800d438 <_sbrk_r>
 800d32c:	4580      	cmp	r8, r0
 800d32e:	d13a      	bne.n	800d3a6 <_malloc_r+0xd2>
 800d330:	6821      	ldr	r1, [r4, #0]
 800d332:	3503      	adds	r5, #3
 800d334:	1a6d      	subs	r5, r5, r1
 800d336:	f025 0503 	bic.w	r5, r5, #3
 800d33a:	3508      	adds	r5, #8
 800d33c:	2d0c      	cmp	r5, #12
 800d33e:	bf38      	it	cc
 800d340:	250c      	movcc	r5, #12
 800d342:	4629      	mov	r1, r5
 800d344:	4638      	mov	r0, r7
 800d346:	f7ff ffa5 	bl	800d294 <sbrk_aligned>
 800d34a:	3001      	adds	r0, #1
 800d34c:	d02b      	beq.n	800d3a6 <_malloc_r+0xd2>
 800d34e:	6823      	ldr	r3, [r4, #0]
 800d350:	442b      	add	r3, r5
 800d352:	6023      	str	r3, [r4, #0]
 800d354:	e00e      	b.n	800d374 <_malloc_r+0xa0>
 800d356:	6822      	ldr	r2, [r4, #0]
 800d358:	1b52      	subs	r2, r2, r5
 800d35a:	d41e      	bmi.n	800d39a <_malloc_r+0xc6>
 800d35c:	2a0b      	cmp	r2, #11
 800d35e:	d916      	bls.n	800d38e <_malloc_r+0xba>
 800d360:	1961      	adds	r1, r4, r5
 800d362:	42a3      	cmp	r3, r4
 800d364:	6025      	str	r5, [r4, #0]
 800d366:	bf18      	it	ne
 800d368:	6059      	strne	r1, [r3, #4]
 800d36a:	6863      	ldr	r3, [r4, #4]
 800d36c:	bf08      	it	eq
 800d36e:	6031      	streq	r1, [r6, #0]
 800d370:	5162      	str	r2, [r4, r5]
 800d372:	604b      	str	r3, [r1, #4]
 800d374:	4638      	mov	r0, r7
 800d376:	f104 060b 	add.w	r6, r4, #11
 800d37a:	f000 f8f9 	bl	800d570 <__malloc_unlock>
 800d37e:	f026 0607 	bic.w	r6, r6, #7
 800d382:	1d23      	adds	r3, r4, #4
 800d384:	1af2      	subs	r2, r6, r3
 800d386:	d0b6      	beq.n	800d2f6 <_malloc_r+0x22>
 800d388:	1b9b      	subs	r3, r3, r6
 800d38a:	50a3      	str	r3, [r4, r2]
 800d38c:	e7b3      	b.n	800d2f6 <_malloc_r+0x22>
 800d38e:	6862      	ldr	r2, [r4, #4]
 800d390:	42a3      	cmp	r3, r4
 800d392:	bf0c      	ite	eq
 800d394:	6032      	streq	r2, [r6, #0]
 800d396:	605a      	strne	r2, [r3, #4]
 800d398:	e7ec      	b.n	800d374 <_malloc_r+0xa0>
 800d39a:	4623      	mov	r3, r4
 800d39c:	6864      	ldr	r4, [r4, #4]
 800d39e:	e7b2      	b.n	800d306 <_malloc_r+0x32>
 800d3a0:	4634      	mov	r4, r6
 800d3a2:	6876      	ldr	r6, [r6, #4]
 800d3a4:	e7b9      	b.n	800d31a <_malloc_r+0x46>
 800d3a6:	230c      	movs	r3, #12
 800d3a8:	603b      	str	r3, [r7, #0]
 800d3aa:	4638      	mov	r0, r7
 800d3ac:	f000 f8e0 	bl	800d570 <__malloc_unlock>
 800d3b0:	e7a1      	b.n	800d2f6 <_malloc_r+0x22>
 800d3b2:	6025      	str	r5, [r4, #0]
 800d3b4:	e7de      	b.n	800d374 <_malloc_r+0xa0>
 800d3b6:	bf00      	nop
 800d3b8:	200001a8 	.word	0x200001a8

0800d3bc <rand>:
 800d3bc:	4b16      	ldr	r3, [pc, #88]	; (800d418 <rand+0x5c>)
 800d3be:	b510      	push	{r4, lr}
 800d3c0:	681c      	ldr	r4, [r3, #0]
 800d3c2:	6ba3      	ldr	r3, [r4, #56]	; 0x38
 800d3c4:	b9b3      	cbnz	r3, 800d3f4 <rand+0x38>
 800d3c6:	2018      	movs	r0, #24
 800d3c8:	f7ff fec2 	bl	800d150 <malloc>
 800d3cc:	63a0      	str	r0, [r4, #56]	; 0x38
 800d3ce:	b928      	cbnz	r0, 800d3dc <rand+0x20>
 800d3d0:	4602      	mov	r2, r0
 800d3d2:	4b12      	ldr	r3, [pc, #72]	; (800d41c <rand+0x60>)
 800d3d4:	4812      	ldr	r0, [pc, #72]	; (800d420 <rand+0x64>)
 800d3d6:	214e      	movs	r1, #78	; 0x4e
 800d3d8:	f000 f894 	bl	800d504 <__assert_func>
 800d3dc:	4a11      	ldr	r2, [pc, #68]	; (800d424 <rand+0x68>)
 800d3de:	4b12      	ldr	r3, [pc, #72]	; (800d428 <rand+0x6c>)
 800d3e0:	e9c0 2300 	strd	r2, r3, [r0]
 800d3e4:	4b11      	ldr	r3, [pc, #68]	; (800d42c <rand+0x70>)
 800d3e6:	6083      	str	r3, [r0, #8]
 800d3e8:	230b      	movs	r3, #11
 800d3ea:	8183      	strh	r3, [r0, #12]
 800d3ec:	2201      	movs	r2, #1
 800d3ee:	2300      	movs	r3, #0
 800d3f0:	e9c0 2304 	strd	r2, r3, [r0, #16]
 800d3f4:	6ba4      	ldr	r4, [r4, #56]	; 0x38
 800d3f6:	4a0e      	ldr	r2, [pc, #56]	; (800d430 <rand+0x74>)
 800d3f8:	6920      	ldr	r0, [r4, #16]
 800d3fa:	6963      	ldr	r3, [r4, #20]
 800d3fc:	490d      	ldr	r1, [pc, #52]	; (800d434 <rand+0x78>)
 800d3fe:	4342      	muls	r2, r0
 800d400:	fb01 2203 	mla	r2, r1, r3, r2
 800d404:	fba0 0101 	umull	r0, r1, r0, r1
 800d408:	1c43      	adds	r3, r0, #1
 800d40a:	eb42 0001 	adc.w	r0, r2, r1
 800d40e:	e9c4 3004 	strd	r3, r0, [r4, #16]
 800d412:	f020 4000 	bic.w	r0, r0, #2147483648	; 0x80000000
 800d416:	bd10      	pop	{r4, pc}
 800d418:	20000110 	.word	0x20000110
 800d41c:	0803cacc 	.word	0x0803cacc
 800d420:	0803cae3 	.word	0x0803cae3
 800d424:	abcd330e 	.word	0xabcd330e
 800d428:	e66d1234 	.word	0xe66d1234
 800d42c:	0005deec 	.word	0x0005deec
 800d430:	5851f42d 	.word	0x5851f42d
 800d434:	4c957f2d 	.word	0x4c957f2d

0800d438 <_sbrk_r>:
 800d438:	b538      	push	{r3, r4, r5, lr}
 800d43a:	4d06      	ldr	r5, [pc, #24]	; (800d454 <_sbrk_r+0x1c>)
 800d43c:	2300      	movs	r3, #0
 800d43e:	4604      	mov	r4, r0
 800d440:	4608      	mov	r0, r1
 800d442:	602b      	str	r3, [r5, #0]
 800d444:	f7f6 fcb8 	bl	8003db8 <_sbrk>
 800d448:	1c43      	adds	r3, r0, #1
 800d44a:	d102      	bne.n	800d452 <_sbrk_r+0x1a>
 800d44c:	682b      	ldr	r3, [r5, #0]
 800d44e:	b103      	cbz	r3, 800d452 <_sbrk_r+0x1a>
 800d450:	6023      	str	r3, [r4, #0]
 800d452:	bd38      	pop	{r3, r4, r5, pc}
 800d454:	200001b0 	.word	0x200001b0

0800d458 <stpcpy>:
 800d458:	4603      	mov	r3, r0
 800d45a:	f811 2b01 	ldrb.w	r2, [r1], #1
 800d45e:	4618      	mov	r0, r3
 800d460:	f803 2b01 	strb.w	r2, [r3], #1
 800d464:	2a00      	cmp	r2, #0
 800d466:	d1f8      	bne.n	800d45a <stpcpy+0x2>
 800d468:	4770      	bx	lr

0800d46a <strcpy>:
 800d46a:	4603      	mov	r3, r0
 800d46c:	f811 2b01 	ldrb.w	r2, [r1], #1
 800d470:	f803 2b01 	strb.w	r2, [r3], #1
 800d474:	2a00      	cmp	r2, #0
 800d476:	d1f9      	bne.n	800d46c <strcpy+0x2>
 800d478:	4770      	bx	lr
	...

0800d47c <__utoa>:
 800d47c:	b5f0      	push	{r4, r5, r6, r7, lr}
 800d47e:	4c1f      	ldr	r4, [pc, #124]	; (800d4fc <__utoa+0x80>)
 800d480:	b08b      	sub	sp, #44	; 0x2c
 800d482:	4605      	mov	r5, r0
 800d484:	460b      	mov	r3, r1
 800d486:	466e      	mov	r6, sp
 800d488:	f104 0c20 	add.w	ip, r4, #32
 800d48c:	6820      	ldr	r0, [r4, #0]
 800d48e:	6861      	ldr	r1, [r4, #4]
 800d490:	4637      	mov	r7, r6
 800d492:	c703      	stmia	r7!, {r0, r1}
 800d494:	3408      	adds	r4, #8
 800d496:	4564      	cmp	r4, ip
 800d498:	463e      	mov	r6, r7
 800d49a:	d1f7      	bne.n	800d48c <__utoa+0x10>
 800d49c:	7921      	ldrb	r1, [r4, #4]
 800d49e:	7139      	strb	r1, [r7, #4]
 800d4a0:	1e91      	subs	r1, r2, #2
 800d4a2:	6820      	ldr	r0, [r4, #0]
 800d4a4:	6038      	str	r0, [r7, #0]
 800d4a6:	2922      	cmp	r1, #34	; 0x22
 800d4a8:	f04f 0100 	mov.w	r1, #0
 800d4ac:	d904      	bls.n	800d4b8 <__utoa+0x3c>
 800d4ae:	7019      	strb	r1, [r3, #0]
 800d4b0:	460b      	mov	r3, r1
 800d4b2:	4618      	mov	r0, r3
 800d4b4:	b00b      	add	sp, #44	; 0x2c
 800d4b6:	bdf0      	pop	{r4, r5, r6, r7, pc}
 800d4b8:	1e58      	subs	r0, r3, #1
 800d4ba:	4684      	mov	ip, r0
 800d4bc:	fbb5 f7f2 	udiv	r7, r5, r2
 800d4c0:	fb02 5617 	mls	r6, r2, r7, r5
 800d4c4:	3628      	adds	r6, #40	; 0x28
 800d4c6:	446e      	add	r6, sp
 800d4c8:	460c      	mov	r4, r1
 800d4ca:	f816 6c28 	ldrb.w	r6, [r6, #-40]
 800d4ce:	f80c 6f01 	strb.w	r6, [ip, #1]!
 800d4d2:	462e      	mov	r6, r5
 800d4d4:	42b2      	cmp	r2, r6
 800d4d6:	f101 0101 	add.w	r1, r1, #1
 800d4da:	463d      	mov	r5, r7
 800d4dc:	d9ee      	bls.n	800d4bc <__utoa+0x40>
 800d4de:	2200      	movs	r2, #0
 800d4e0:	545a      	strb	r2, [r3, r1]
 800d4e2:	1919      	adds	r1, r3, r4
 800d4e4:	1aa5      	subs	r5, r4, r2
 800d4e6:	42aa      	cmp	r2, r5
 800d4e8:	dae3      	bge.n	800d4b2 <__utoa+0x36>
 800d4ea:	f810 5f01 	ldrb.w	r5, [r0, #1]!
 800d4ee:	780e      	ldrb	r6, [r1, #0]
 800d4f0:	7006      	strb	r6, [r0, #0]
 800d4f2:	3201      	adds	r2, #1
 800d4f4:	f801 5901 	strb.w	r5, [r1], #-1
 800d4f8:	e7f4      	b.n	800d4e4 <__utoa+0x68>
 800d4fa:	bf00      	nop
 800d4fc:	0803cb3e 	.word	0x0803cb3e

0800d500 <utoa>:
 800d500:	f7ff bfbc 	b.w	800d47c <__utoa>

0800d504 <__assert_func>:
 800d504:	b51f      	push	{r0, r1, r2, r3, r4, lr}
 800d506:	4614      	mov	r4, r2
 800d508:	461a      	mov	r2, r3
 800d50a:	4b09      	ldr	r3, [pc, #36]	; (800d530 <__assert_func+0x2c>)
 800d50c:	681b      	ldr	r3, [r3, #0]
 800d50e:	4605      	mov	r5, r0
 800d510:	68d8      	ldr	r0, [r3, #12]
 800d512:	b14c      	cbz	r4, 800d528 <__assert_func+0x24>
 800d514:	4b07      	ldr	r3, [pc, #28]	; (800d534 <__assert_func+0x30>)
 800d516:	9100      	str	r1, [sp, #0]
 800d518:	e9cd 3401 	strd	r3, r4, [sp, #4]
 800d51c:	4906      	ldr	r1, [pc, #24]	; (800d538 <__assert_func+0x34>)
 800d51e:	462b      	mov	r3, r5
 800d520:	f000 f80e 	bl	800d540 <fiprintf>
 800d524:	f000 fbd8 	bl	800dcd8 <abort>
 800d528:	4b04      	ldr	r3, [pc, #16]	; (800d53c <__assert_func+0x38>)
 800d52a:	461c      	mov	r4, r3
 800d52c:	e7f3      	b.n	800d516 <__assert_func+0x12>
 800d52e:	bf00      	nop
 800d530:	20000110 	.word	0x20000110
 800d534:	0803cb63 	.word	0x0803cb63
 800d538:	0803cb70 	.word	0x0803cb70
 800d53c:	0803cb9e 	.word	0x0803cb9e

0800d540 <fiprintf>:
 800d540:	b40e      	push	{r1, r2, r3}
 800d542:	b503      	push	{r0, r1, lr}
 800d544:	4601      	mov	r1, r0
 800d546:	ab03      	add	r3, sp, #12
 800d548:	4805      	ldr	r0, [pc, #20]	; (800d560 <fiprintf+0x20>)
 800d54a:	f853 2b04 	ldr.w	r2, [r3], #4
 800d54e:	6800      	ldr	r0, [r0, #0]
 800d550:	9301      	str	r3, [sp, #4]
 800d552:	f000 f83d 	bl	800d5d0 <_vfiprintf_r>
 800d556:	b002      	add	sp, #8
 800d558:	f85d eb04 	ldr.w	lr, [sp], #4
 800d55c:	b003      	add	sp, #12
 800d55e:	4770      	bx	lr
 800d560:	20000110 	.word	0x20000110

0800d564 <__malloc_lock>:
 800d564:	4801      	ldr	r0, [pc, #4]	; (800d56c <__malloc_lock+0x8>)
 800d566:	f000 bd77 	b.w	800e058 <__retarget_lock_acquire_recursive>
 800d56a:	bf00      	nop
 800d56c:	200001b4 	.word	0x200001b4

0800d570 <__malloc_unlock>:
 800d570:	4801      	ldr	r0, [pc, #4]	; (800d578 <__malloc_unlock+0x8>)
 800d572:	f000 bd72 	b.w	800e05a <__retarget_lock_release_recursive>
 800d576:	bf00      	nop
 800d578:	200001b4 	.word	0x200001b4

0800d57c <__sfputc_r>:
 800d57c:	6893      	ldr	r3, [r2, #8]
 800d57e:	3b01      	subs	r3, #1
 800d580:	2b00      	cmp	r3, #0
 800d582:	b410      	push	{r4}
 800d584:	6093      	str	r3, [r2, #8]
 800d586:	da08      	bge.n	800d59a <__sfputc_r+0x1e>
 800d588:	6994      	ldr	r4, [r2, #24]
 800d58a:	42a3      	cmp	r3, r4
 800d58c:	db01      	blt.n	800d592 <__sfputc_r+0x16>
 800d58e:	290a      	cmp	r1, #10
 800d590:	d103      	bne.n	800d59a <__sfputc_r+0x1e>
 800d592:	f85d 4b04 	ldr.w	r4, [sp], #4
 800d596:	f000 badf 	b.w	800db58 <__swbuf_r>
 800d59a:	6813      	ldr	r3, [r2, #0]
 800d59c:	1c58      	adds	r0, r3, #1
 800d59e:	6010      	str	r0, [r2, #0]
 800d5a0:	7019      	strb	r1, [r3, #0]
 800d5a2:	4608      	mov	r0, r1
 800d5a4:	f85d 4b04 	ldr.w	r4, [sp], #4
 800d5a8:	4770      	bx	lr

0800d5aa <__sfputs_r>:
 800d5aa:	b5f8      	push	{r3, r4, r5, r6, r7, lr}
 800d5ac:	4606      	mov	r6, r0
 800d5ae:	460f      	mov	r7, r1
 800d5b0:	4614      	mov	r4, r2
 800d5b2:	18d5      	adds	r5, r2, r3
 800d5b4:	42ac      	cmp	r4, r5
 800d5b6:	d101      	bne.n	800d5bc <__sfputs_r+0x12>
 800d5b8:	2000      	movs	r0, #0
 800d5ba:	e007      	b.n	800d5cc <__sfputs_r+0x22>
 800d5bc:	f814 1b01 	ldrb.w	r1, [r4], #1
 800d5c0:	463a      	mov	r2, r7
 800d5c2:	4630      	mov	r0, r6
 800d5c4:	f7ff ffda 	bl	800d57c <__sfputc_r>
 800d5c8:	1c43      	adds	r3, r0, #1
 800d5ca:	d1f3      	bne.n	800d5b4 <__sfputs_r+0xa>
 800d5cc:	bdf8      	pop	{r3, r4, r5, r6, r7, pc}
	...

0800d5d0 <_vfiprintf_r>:
 800d5d0:	e92d 4ff0 	stmdb	sp!, {r4, r5, r6, r7, r8, r9, sl, fp, lr}
 800d5d4:	460d      	mov	r5, r1
 800d5d6:	b09d      	sub	sp, #116	; 0x74
 800d5d8:	4614      	mov	r4, r2
 800d5da:	4698      	mov	r8, r3
 800d5dc:	4606      	mov	r6, r0
 800d5de:	b118      	cbz	r0, 800d5e8 <_vfiprintf_r+0x18>
 800d5e0:	6983      	ldr	r3, [r0, #24]
 800d5e2:	b90b      	cbnz	r3, 800d5e8 <_vfiprintf_r+0x18>
 800d5e4:	f000 fc9a 	bl	800df1c <__sinit>
 800d5e8:	4b89      	ldr	r3, [pc, #548]	; (800d810 <_vfiprintf_r+0x240>)
 800d5ea:	429d      	cmp	r5, r3
 800d5ec:	d11b      	bne.n	800d626 <_vfiprintf_r+0x56>
 800d5ee:	6875      	ldr	r5, [r6, #4]
 800d5f0:	6e6b      	ldr	r3, [r5, #100]	; 0x64
 800d5f2:	07d9      	lsls	r1, r3, #31
 800d5f4:	d405      	bmi.n	800d602 <_vfiprintf_r+0x32>
 800d5f6:	89ab      	ldrh	r3, [r5, #12]
 800d5f8:	059a      	lsls	r2, r3, #22
 800d5fa:	d402      	bmi.n	800d602 <_vfiprintf_r+0x32>
 800d5fc:	6da8      	ldr	r0, [r5, #88]	; 0x58
 800d5fe:	f000 fd2b 	bl	800e058 <__retarget_lock_acquire_recursive>
 800d602:	89ab      	ldrh	r3, [r5, #12]
 800d604:	071b      	lsls	r3, r3, #28
 800d606:	d501      	bpl.n	800d60c <_vfiprintf_r+0x3c>
 800d608:	692b      	ldr	r3, [r5, #16]
 800d60a:	b9eb      	cbnz	r3, 800d648 <_vfiprintf_r+0x78>
 800d60c:	4629      	mov	r1, r5
 800d60e:	4630      	mov	r0, r6
 800d610:	f000 faf4 	bl	800dbfc <__swsetup_r>
 800d614:	b1c0      	cbz	r0, 800d648 <_vfiprintf_r+0x78>
 800d616:	6e6b      	ldr	r3, [r5, #100]	; 0x64
 800d618:	07dc      	lsls	r4, r3, #31
 800d61a:	d50e      	bpl.n	800d63a <_vfiprintf_r+0x6a>
 800d61c:	f04f 30ff 	mov.w	r0, #4294967295
 800d620:	b01d      	add	sp, #116	; 0x74
 800d622:	e8bd 8ff0 	ldmia.w	sp!, {r4, r5, r6, r7, r8, r9, sl, fp, pc}
 800d626:	4b7b      	ldr	r3, [pc, #492]	; (800d814 <_vfiprintf_r+0x244>)
 800d628:	429d      	cmp	r5, r3
 800d62a:	d101      	bne.n	800d630 <_vfiprintf_r+0x60>
 800d62c:	68b5      	ldr	r5, [r6, #8]
 800d62e:	e7df      	b.n	800d5f0 <_vfiprintf_r+0x20>
 800d630:	4b79      	ldr	r3, [pc, #484]	; (800d818 <_vfiprintf_r+0x248>)
 800d632:	429d      	cmp	r5, r3
 800d634:	bf08      	it	eq
 800d636:	68f5      	ldreq	r5, [r6, #12]
 800d638:	e7da      	b.n	800d5f0 <_vfiprintf_r+0x20>
 800d63a:	89ab      	ldrh	r3, [r5, #12]
 800d63c:	0598      	lsls	r0, r3, #22
 800d63e:	d4ed      	bmi.n	800d61c <_vfiprintf_r+0x4c>
 800d640:	6da8      	ldr	r0, [r5, #88]	; 0x58
 800d642:	f000 fd0a 	bl	800e05a <__retarget_lock_release_recursive>
 800d646:	e7e9      	b.n	800d61c <_vfiprintf_r+0x4c>
 800d648:	2300      	movs	r3, #0
 800d64a:	9309      	str	r3, [sp, #36]	; 0x24
 800d64c:	2320      	movs	r3, #32
 800d64e:	f88d 3029 	strb.w	r3, [sp, #41]	; 0x29
 800d652:	f8cd 800c 	str.w	r8, [sp, #12]
 800d656:	2330      	movs	r3, #48	; 0x30
 800d658:	f8df 81c0 	ldr.w	r8, [pc, #448]	; 800d81c <_vfiprintf_r+0x24c>
 800d65c:	f88d 302a 	strb.w	r3, [sp, #42]	; 0x2a
 800d660:	f04f 0901 	mov.w	r9, #1
 800d664:	4623      	mov	r3, r4
 800d666:	469a      	mov	sl, r3
 800d668:	f813 2b01 	ldrb.w	r2, [r3], #1
 800d66c:	b10a      	cbz	r2, 800d672 <_vfiprintf_r+0xa2>
 800d66e:	2a25      	cmp	r2, #37	; 0x25
 800d670:	d1f9      	bne.n	800d666 <_vfiprintf_r+0x96>
 800d672:	ebba 0b04 	subs.w	fp, sl, r4
 800d676:	d00b      	beq.n	800d690 <_vfiprintf_r+0xc0>
 800d678:	465b      	mov	r3, fp
 800d67a:	4622      	mov	r2, r4
 800d67c:	4629      	mov	r1, r5
 800d67e:	4630      	mov	r0, r6
 800d680:	f7ff ff93 	bl	800d5aa <__sfputs_r>
 800d684:	3001      	adds	r0, #1
 800d686:	f000 80aa 	beq.w	800d7de <_vfiprintf_r+0x20e>
 800d68a:	9a09      	ldr	r2, [sp, #36]	; 0x24
 800d68c:	445a      	add	r2, fp
 800d68e:	9209      	str	r2, [sp, #36]	; 0x24
 800d690:	f89a 3000 	ldrb.w	r3, [sl]
 800d694:	2b00      	cmp	r3, #0
 800d696:	f000 80a2 	beq.w	800d7de <_vfiprintf_r+0x20e>
 800d69a:	2300      	movs	r3, #0
 800d69c:	f04f 32ff 	mov.w	r2, #4294967295
 800d6a0:	e9cd 2305 	strd	r2, r3, [sp, #20]
 800d6a4:	f10a 0a01 	add.w	sl, sl, #1
 800d6a8:	9304      	str	r3, [sp, #16]
 800d6aa:	9307      	str	r3, [sp, #28]
 800d6ac:	f88d 3053 	strb.w	r3, [sp, #83]	; 0x53
 800d6b0:	931a      	str	r3, [sp, #104]	; 0x68
 800d6b2:	4654      	mov	r4, sl
 800d6b4:	2205      	movs	r2, #5
 800d6b6:	f814 1b01 	ldrb.w	r1, [r4], #1
 800d6ba:	4858      	ldr	r0, [pc, #352]	; (800d81c <_vfiprintf_r+0x24c>)
 800d6bc:	f7f3 f968 	bl	8000990 <memchr>
 800d6c0:	9a04      	ldr	r2, [sp, #16]
 800d6c2:	b9d8      	cbnz	r0, 800d6fc <_vfiprintf_r+0x12c>
 800d6c4:	06d1      	lsls	r1, r2, #27
 800d6c6:	bf44      	itt	mi
 800d6c8:	2320      	movmi	r3, #32
 800d6ca:	f88d 3053 	strbmi.w	r3, [sp, #83]	; 0x53
 800d6ce:	0713      	lsls	r3, r2, #28
 800d6d0:	bf44      	itt	mi
 800d6d2:	232b      	movmi	r3, #43	; 0x2b
 800d6d4:	f88d 3053 	strbmi.w	r3, [sp, #83]	; 0x53
 800d6d8:	f89a 3000 	ldrb.w	r3, [sl]
 800d6dc:	2b2a      	cmp	r3, #42	; 0x2a
 800d6de:	d015      	beq.n	800d70c <_vfiprintf_r+0x13c>
 800d6e0:	9a07      	ldr	r2, [sp, #28]
 800d6e2:	4654      	mov	r4, sl
 800d6e4:	2000      	movs	r0, #0
 800d6e6:	f04f 0c0a 	mov.w	ip, #10
 800d6ea:	4621      	mov	r1, r4
 800d6ec:	f811 3b01 	ldrb.w	r3, [r1], #1
 800d6f0:	3b30      	subs	r3, #48	; 0x30
 800d6f2:	2b09      	cmp	r3, #9
 800d6f4:	d94e      	bls.n	800d794 <_vfiprintf_r+0x1c4>
 800d6f6:	b1b0      	cbz	r0, 800d726 <_vfiprintf_r+0x156>
 800d6f8:	9207      	str	r2, [sp, #28]
 800d6fa:	e014      	b.n	800d726 <_vfiprintf_r+0x156>
 800d6fc:	eba0 0308 	sub.w	r3, r0, r8
 800d700:	fa09 f303 	lsl.w	r3, r9, r3
 800d704:	4313      	orrs	r3, r2
 800d706:	9304      	str	r3, [sp, #16]
 800d708:	46a2      	mov	sl, r4
 800d70a:	e7d2      	b.n	800d6b2 <_vfiprintf_r+0xe2>
 800d70c:	9b03      	ldr	r3, [sp, #12]
 800d70e:	1d19      	adds	r1, r3, #4
 800d710:	681b      	ldr	r3, [r3, #0]
 800d712:	9103      	str	r1, [sp, #12]
 800d714:	2b00      	cmp	r3, #0
 800d716:	bfbb      	ittet	lt
 800d718:	425b      	neglt	r3, r3
 800d71a:	f042 0202 	orrlt.w	r2, r2, #2
 800d71e:	9307      	strge	r3, [sp, #28]
 800d720:	9307      	strlt	r3, [sp, #28]
 800d722:	bfb8      	it	lt
 800d724:	9204      	strlt	r2, [sp, #16]
 800d726:	7823      	ldrb	r3, [r4, #0]
 800d728:	2b2e      	cmp	r3, #46	; 0x2e
 800d72a:	d10c      	bne.n	800d746 <_vfiprintf_r+0x176>
 800d72c:	7863      	ldrb	r3, [r4, #1]
 800d72e:	2b2a      	cmp	r3, #42	; 0x2a
 800d730:	d135      	bne.n	800d79e <_vfiprintf_r+0x1ce>
 800d732:	9b03      	ldr	r3, [sp, #12]
 800d734:	1d1a      	adds	r2, r3, #4
 800d736:	681b      	ldr	r3, [r3, #0]
 800d738:	9203      	str	r2, [sp, #12]
 800d73a:	2b00      	cmp	r3, #0
 800d73c:	bfb8      	it	lt
 800d73e:	f04f 33ff 	movlt.w	r3, #4294967295
 800d742:	3402      	adds	r4, #2
 800d744:	9305      	str	r3, [sp, #20]
 800d746:	f8df a0e4 	ldr.w	sl, [pc, #228]	; 800d82c <_vfiprintf_r+0x25c>
 800d74a:	7821      	ldrb	r1, [r4, #0]
 800d74c:	2203      	movs	r2, #3
 800d74e:	4650      	mov	r0, sl
 800d750:	f7f3 f91e 	bl	8000990 <memchr>
 800d754:	b140      	cbz	r0, 800d768 <_vfiprintf_r+0x198>
 800d756:	2340      	movs	r3, #64	; 0x40
 800d758:	eba0 000a 	sub.w	r0, r0, sl
 800d75c:	fa03 f000 	lsl.w	r0, r3, r0
 800d760:	9b04      	ldr	r3, [sp, #16]
 800d762:	4303      	orrs	r3, r0
 800d764:	3401      	adds	r4, #1
 800d766:	9304      	str	r3, [sp, #16]
 800d768:	f814 1b01 	ldrb.w	r1, [r4], #1
 800d76c:	482c      	ldr	r0, [pc, #176]	; (800d820 <_vfiprintf_r+0x250>)
 800d76e:	f88d 1028 	strb.w	r1, [sp, #40]	; 0x28
 800d772:	2206      	movs	r2, #6
 800d774:	f7f3 f90c 	bl	8000990 <memchr>
 800d778:	2800      	cmp	r0, #0
 800d77a:	d03f      	beq.n	800d7fc <_vfiprintf_r+0x22c>
 800d77c:	4b29      	ldr	r3, [pc, #164]	; (800d824 <_vfiprintf_r+0x254>)
 800d77e:	bb1b      	cbnz	r3, 800d7c8 <_vfiprintf_r+0x1f8>
 800d780:	9b03      	ldr	r3, [sp, #12]
 800d782:	3307      	adds	r3, #7
 800d784:	f023 0307 	bic.w	r3, r3, #7
 800d788:	3308      	adds	r3, #8
 800d78a:	9303      	str	r3, [sp, #12]
 800d78c:	9b09      	ldr	r3, [sp, #36]	; 0x24
 800d78e:	443b      	add	r3, r7
 800d790:	9309      	str	r3, [sp, #36]	; 0x24
 800d792:	e767      	b.n	800d664 <_vfiprintf_r+0x94>
 800d794:	fb0c 3202 	mla	r2, ip, r2, r3
 800d798:	460c      	mov	r4, r1
 800d79a:	2001      	movs	r0, #1
 800d79c:	e7a5      	b.n	800d6ea <_vfiprintf_r+0x11a>
 800d79e:	2300      	movs	r3, #0
 800d7a0:	3401      	adds	r4, #1
 800d7a2:	9305      	str	r3, [sp, #20]
 800d7a4:	4619      	mov	r1, r3
 800d7a6:	f04f 0c0a 	mov.w	ip, #10
 800d7aa:	4620      	mov	r0, r4
 800d7ac:	f810 2b01 	ldrb.w	r2, [r0], #1
 800d7b0:	3a30      	subs	r2, #48	; 0x30
 800d7b2:	2a09      	cmp	r2, #9
 800d7b4:	d903      	bls.n	800d7be <_vfiprintf_r+0x1ee>
 800d7b6:	2b00      	cmp	r3, #0
 800d7b8:	d0c5      	beq.n	800d746 <_vfiprintf_r+0x176>
 800d7ba:	9105      	str	r1, [sp, #20]
 800d7bc:	e7c3      	b.n	800d746 <_vfiprintf_r+0x176>
 800d7be:	fb0c 2101 	mla	r1, ip, r1, r2
 800d7c2:	4604      	mov	r4, r0
 800d7c4:	2301      	movs	r3, #1
 800d7c6:	e7f0      	b.n	800d7aa <_vfiprintf_r+0x1da>
 800d7c8:	ab03      	add	r3, sp, #12
 800d7ca:	9300      	str	r3, [sp, #0]
 800d7cc:	462a      	mov	r2, r5
 800d7ce:	4b16      	ldr	r3, [pc, #88]	; (800d828 <_vfiprintf_r+0x258>)
 800d7d0:	a904      	add	r1, sp, #16
 800d7d2:	4630      	mov	r0, r6
 800d7d4:	f3af 8000 	nop.w
 800d7d8:	4607      	mov	r7, r0
 800d7da:	1c78      	adds	r0, r7, #1
 800d7dc:	d1d6      	bne.n	800d78c <_vfiprintf_r+0x1bc>
 800d7de:	6e6b      	ldr	r3, [r5, #100]	; 0x64
 800d7e0:	07d9      	lsls	r1, r3, #31
 800d7e2:	d405      	bmi.n	800d7f0 <_vfiprintf_r+0x220>
 800d7e4:	89ab      	ldrh	r3, [r5, #12]
 800d7e6:	059a      	lsls	r2, r3, #22
 800d7e8:	d402      	bmi.n	800d7f0 <_vfiprintf_r+0x220>
 800d7ea:	6da8      	ldr	r0, [r5, #88]	; 0x58
 800d7ec:	f000 fc35 	bl	800e05a <__retarget_lock_release_recursive>
 800d7f0:	89ab      	ldrh	r3, [r5, #12]
 800d7f2:	065b      	lsls	r3, r3, #25
 800d7f4:	f53f af12 	bmi.w	800d61c <_vfiprintf_r+0x4c>
 800d7f8:	9809      	ldr	r0, [sp, #36]	; 0x24
 800d7fa:	e711      	b.n	800d620 <_vfiprintf_r+0x50>
 800d7fc:	ab03      	add	r3, sp, #12
 800d7fe:	9300      	str	r3, [sp, #0]
 800d800:	462a      	mov	r2, r5
 800d802:	4b09      	ldr	r3, [pc, #36]	; (800d828 <_vfiprintf_r+0x258>)
 800d804:	a904      	add	r1, sp, #16
 800d806:	4630      	mov	r0, r6
 800d808:	f000 f880 	bl	800d90c <_printf_i>
 800d80c:	e7e4      	b.n	800d7d8 <_vfiprintf_r+0x208>
 800d80e:	bf00      	nop
 800d810:	0803cbf4 	.word	0x0803cbf4
 800d814:	0803cc14 	.word	0x0803cc14
 800d818:	0803cbd4 	.word	0x0803cbd4
 800d81c:	0803cb9f 	.word	0x0803cb9f
 800d820:	0803cba9 	.word	0x0803cba9
 800d824:	00000000 	.word	0x00000000
 800d828:	0800d5ab 	.word	0x0800d5ab
 800d82c:	0803cba5 	.word	0x0803cba5

0800d830 <_printf_common>:
 800d830:	e92d 47f0 	stmdb	sp!, {r4, r5, r6, r7, r8, r9, sl, lr}
 800d834:	4616      	mov	r6, r2
 800d836:	4699      	mov	r9, r3
 800d838:	688a      	ldr	r2, [r1, #8]
 800d83a:	690b      	ldr	r3, [r1, #16]
 800d83c:	f8dd 8020 	ldr.w	r8, [sp, #32]
 800d840:	4293      	cmp	r3, r2
 800d842:	bfb8      	it	lt
 800d844:	4613      	movlt	r3, r2
 800d846:	6033      	str	r3, [r6, #0]
 800d848:	f891 2043 	ldrb.w	r2, [r1, #67]	; 0x43
 800d84c:	4607      	mov	r7, r0
 800d84e:	460c      	mov	r4, r1
 800d850:	b10a      	cbz	r2, 800d856 <_printf_common+0x26>
 800d852:	3301      	adds	r3, #1
 800d854:	6033      	str	r3, [r6, #0]
 800d856:	6823      	ldr	r3, [r4, #0]
 800d858:	0699      	lsls	r1, r3, #26
 800d85a:	bf42      	ittt	mi
 800d85c:	6833      	ldrmi	r3, [r6, #0]
 800d85e:	3302      	addmi	r3, #2
 800d860:	6033      	strmi	r3, [r6, #0]
 800d862:	6825      	ldr	r5, [r4, #0]
 800d864:	f015 0506 	ands.w	r5, r5, #6
 800d868:	d106      	bne.n	800d878 <_printf_common+0x48>
 800d86a:	f104 0a19 	add.w	sl, r4, #25
 800d86e:	68e3      	ldr	r3, [r4, #12]
 800d870:	6832      	ldr	r2, [r6, #0]
 800d872:	1a9b      	subs	r3, r3, r2
 800d874:	42ab      	cmp	r3, r5
 800d876:	dc26      	bgt.n	800d8c6 <_printf_common+0x96>
 800d878:	f894 2043 	ldrb.w	r2, [r4, #67]	; 0x43
 800d87c:	1e13      	subs	r3, r2, #0
 800d87e:	6822      	ldr	r2, [r4, #0]
 800d880:	bf18      	it	ne
 800d882:	2301      	movne	r3, #1
 800d884:	0692      	lsls	r2, r2, #26
 800d886:	d42b      	bmi.n	800d8e0 <_printf_common+0xb0>
 800d888:	f104 0243 	add.w	r2, r4, #67	; 0x43
 800d88c:	4649      	mov	r1, r9
 800d88e:	4638      	mov	r0, r7
 800d890:	47c0      	blx	r8
 800d892:	3001      	adds	r0, #1
 800d894:	d01e      	beq.n	800d8d4 <_printf_common+0xa4>
 800d896:	6823      	ldr	r3, [r4, #0]
 800d898:	68e5      	ldr	r5, [r4, #12]
 800d89a:	6832      	ldr	r2, [r6, #0]
 800d89c:	f003 0306 	and.w	r3, r3, #6
 800d8a0:	2b04      	cmp	r3, #4
 800d8a2:	bf08      	it	eq
 800d8a4:	1aad      	subeq	r5, r5, r2
 800d8a6:	68a3      	ldr	r3, [r4, #8]
 800d8a8:	6922      	ldr	r2, [r4, #16]
 800d8aa:	bf0c      	ite	eq
 800d8ac:	ea25 75e5 	biceq.w	r5, r5, r5, asr #31
 800d8b0:	2500      	movne	r5, #0
 800d8b2:	4293      	cmp	r3, r2
 800d8b4:	bfc4      	itt	gt
 800d8b6:	1a9b      	subgt	r3, r3, r2
 800d8b8:	18ed      	addgt	r5, r5, r3
 800d8ba:	2600      	movs	r6, #0
 800d8bc:	341a      	adds	r4, #26
 800d8be:	42b5      	cmp	r5, r6
 800d8c0:	d11a      	bne.n	800d8f8 <_printf_common+0xc8>
 800d8c2:	2000      	movs	r0, #0
 800d8c4:	e008      	b.n	800d8d8 <_printf_common+0xa8>
 800d8c6:	2301      	movs	r3, #1
 800d8c8:	4652      	mov	r2, sl
 800d8ca:	4649      	mov	r1, r9
 800d8cc:	4638      	mov	r0, r7
 800d8ce:	47c0      	blx	r8
 800d8d0:	3001      	adds	r0, #1
 800d8d2:	d103      	bne.n	800d8dc <_printf_common+0xac>
 800d8d4:	f04f 30ff 	mov.w	r0, #4294967295
 800d8d8:	e8bd 87f0 	ldmia.w	sp!, {r4, r5, r6, r7, r8, r9, sl, pc}
 800d8dc:	3501      	adds	r5, #1
 800d8de:	e7c6      	b.n	800d86e <_printf_common+0x3e>
 800d8e0:	18e1      	adds	r1, r4, r3
 800d8e2:	1c5a      	adds	r2, r3, #1
 800d8e4:	2030      	movs	r0, #48	; 0x30
 800d8e6:	f881 0043 	strb.w	r0, [r1, #67]	; 0x43
 800d8ea:	4422      	add	r2, r4
 800d8ec:	f894 1045 	ldrb.w	r1, [r4, #69]	; 0x45
 800d8f0:	f882 1043 	strb.w	r1, [r2, #67]	; 0x43
 800d8f4:	3302      	adds	r3, #2
 800d8f6:	e7c7      	b.n	800d888 <_printf_common+0x58>
 800d8f8:	2301      	movs	r3, #1
 800d8fa:	4622      	mov	r2, r4
 800d8fc:	4649      	mov	r1, r9
 800d8fe:	4638      	mov	r0, r7
 800d900:	47c0      	blx	r8
 800d902:	3001      	adds	r0, #1
 800d904:	d0e6      	beq.n	800d8d4 <_printf_common+0xa4>
 800d906:	3601      	adds	r6, #1
 800d908:	e7d9      	b.n	800d8be <_printf_common+0x8e>
	...

0800d90c <_printf_i>:
 800d90c:	e92d 47ff 	stmdb	sp!, {r0, r1, r2, r3, r4, r5, r6, r7, r8, r9, sl, lr}
 800d910:	7e0f      	ldrb	r7, [r1, #24]
 800d912:	9d0c      	ldr	r5, [sp, #48]	; 0x30
 800d914:	2f78      	cmp	r7, #120	; 0x78
 800d916:	4691      	mov	r9, r2
 800d918:	4680      	mov	r8, r0
 800d91a:	460c      	mov	r4, r1
 800d91c:	469a      	mov	sl, r3
 800d91e:	f101 0243 	add.w	r2, r1, #67	; 0x43
 800d922:	d807      	bhi.n	800d934 <_printf_i+0x28>
 800d924:	2f62      	cmp	r7, #98	; 0x62
 800d926:	d80a      	bhi.n	800d93e <_printf_i+0x32>
 800d928:	2f00      	cmp	r7, #0
 800d92a:	f000 80d8 	beq.w	800dade <_printf_i+0x1d2>
 800d92e:	2f58      	cmp	r7, #88	; 0x58
 800d930:	f000 80a3 	beq.w	800da7a <_printf_i+0x16e>
 800d934:	f104 0542 	add.w	r5, r4, #66	; 0x42
 800d938:	f884 7042 	strb.w	r7, [r4, #66]	; 0x42
 800d93c:	e03a      	b.n	800d9b4 <_printf_i+0xa8>
 800d93e:	f1a7 0363 	sub.w	r3, r7, #99	; 0x63
 800d942:	2b15      	cmp	r3, #21
 800d944:	d8f6      	bhi.n	800d934 <_printf_i+0x28>
 800d946:	a101      	add	r1, pc, #4	; (adr r1, 800d94c <_printf_i+0x40>)
 800d948:	f851 f023 	ldr.w	pc, [r1, r3, lsl #2]
 800d94c:	0800d9a5 	.word	0x0800d9a5
 800d950:	0800d9b9 	.word	0x0800d9b9
 800d954:	0800d935 	.word	0x0800d935
 800d958:	0800d935 	.word	0x0800d935
 800d95c:	0800d935 	.word	0x0800d935
 800d960:	0800d935 	.word	0x0800d935
 800d964:	0800d9b9 	.word	0x0800d9b9
 800d968:	0800d935 	.word	0x0800d935
 800d96c:	0800d935 	.word	0x0800d935
 800d970:	0800d935 	.word	0x0800d935
 800d974:	0800d935 	.word	0x0800d935
 800d978:	0800dac5 	.word	0x0800dac5
 800d97c:	0800d9e9 	.word	0x0800d9e9
 800d980:	0800daa7 	.word	0x0800daa7
 800d984:	0800d935 	.word	0x0800d935
 800d988:	0800d935 	.word	0x0800d935
 800d98c:	0800dae7 	.word	0x0800dae7
 800d990:	0800d935 	.word	0x0800d935
 800d994:	0800d9e9 	.word	0x0800d9e9
 800d998:	0800d935 	.word	0x0800d935
 800d99c:	0800d935 	.word	0x0800d935
 800d9a0:	0800daaf 	.word	0x0800daaf
 800d9a4:	682b      	ldr	r3, [r5, #0]
 800d9a6:	1d1a      	adds	r2, r3, #4
 800d9a8:	681b      	ldr	r3, [r3, #0]
 800d9aa:	602a      	str	r2, [r5, #0]
 800d9ac:	f104 0542 	add.w	r5, r4, #66	; 0x42
 800d9b0:	f884 3042 	strb.w	r3, [r4, #66]	; 0x42
 800d9b4:	2301      	movs	r3, #1
 800d9b6:	e0a3      	b.n	800db00 <_printf_i+0x1f4>
 800d9b8:	6820      	ldr	r0, [r4, #0]
 800d9ba:	6829      	ldr	r1, [r5, #0]
 800d9bc:	0606      	lsls	r6, r0, #24
 800d9be:	f101 0304 	add.w	r3, r1, #4
 800d9c2:	d50a      	bpl.n	800d9da <_printf_i+0xce>
 800d9c4:	680e      	ldr	r6, [r1, #0]
 800d9c6:	602b      	str	r3, [r5, #0]
 800d9c8:	2e00      	cmp	r6, #0
 800d9ca:	da03      	bge.n	800d9d4 <_printf_i+0xc8>
 800d9cc:	232d      	movs	r3, #45	; 0x2d
 800d9ce:	4276      	negs	r6, r6
 800d9d0:	f884 3043 	strb.w	r3, [r4, #67]	; 0x43
 800d9d4:	485e      	ldr	r0, [pc, #376]	; (800db50 <_printf_i+0x244>)
 800d9d6:	230a      	movs	r3, #10
 800d9d8:	e019      	b.n	800da0e <_printf_i+0x102>
 800d9da:	680e      	ldr	r6, [r1, #0]
 800d9dc:	602b      	str	r3, [r5, #0]
 800d9de:	f010 0f40 	tst.w	r0, #64	; 0x40
 800d9e2:	bf18      	it	ne
 800d9e4:	b236      	sxthne	r6, r6
 800d9e6:	e7ef      	b.n	800d9c8 <_printf_i+0xbc>
 800d9e8:	682b      	ldr	r3, [r5, #0]
 800d9ea:	6820      	ldr	r0, [r4, #0]
 800d9ec:	1d19      	adds	r1, r3, #4
 800d9ee:	6029      	str	r1, [r5, #0]
 800d9f0:	0601      	lsls	r1, r0, #24
 800d9f2:	d501      	bpl.n	800d9f8 <_printf_i+0xec>
 800d9f4:	681e      	ldr	r6, [r3, #0]
 800d9f6:	e002      	b.n	800d9fe <_printf_i+0xf2>
 800d9f8:	0646      	lsls	r6, r0, #25
 800d9fa:	d5fb      	bpl.n	800d9f4 <_printf_i+0xe8>
 800d9fc:	881e      	ldrh	r6, [r3, #0]
 800d9fe:	4854      	ldr	r0, [pc, #336]	; (800db50 <_printf_i+0x244>)
 800da00:	2f6f      	cmp	r7, #111	; 0x6f
 800da02:	bf0c      	ite	eq
 800da04:	2308      	moveq	r3, #8
 800da06:	230a      	movne	r3, #10
 800da08:	2100      	movs	r1, #0
 800da0a:	f884 1043 	strb.w	r1, [r4, #67]	; 0x43
 800da0e:	6865      	ldr	r5, [r4, #4]
 800da10:	60a5      	str	r5, [r4, #8]
 800da12:	2d00      	cmp	r5, #0
 800da14:	bfa2      	ittt	ge
 800da16:	6821      	ldrge	r1, [r4, #0]
 800da18:	f021 0104 	bicge.w	r1, r1, #4
 800da1c:	6021      	strge	r1, [r4, #0]
 800da1e:	b90e      	cbnz	r6, 800da24 <_printf_i+0x118>
 800da20:	2d00      	cmp	r5, #0
 800da22:	d04d      	beq.n	800dac0 <_printf_i+0x1b4>
 800da24:	4615      	mov	r5, r2
 800da26:	fbb6 f1f3 	udiv	r1, r6, r3
 800da2a:	fb03 6711 	mls	r7, r3, r1, r6
 800da2e:	5dc7      	ldrb	r7, [r0, r7]
 800da30:	f805 7d01 	strb.w	r7, [r5, #-1]!
 800da34:	4637      	mov	r7, r6
 800da36:	42bb      	cmp	r3, r7
 800da38:	460e      	mov	r6, r1
 800da3a:	d9f4      	bls.n	800da26 <_printf_i+0x11a>
 800da3c:	2b08      	cmp	r3, #8
 800da3e:	d10b      	bne.n	800da58 <_printf_i+0x14c>
 800da40:	6823      	ldr	r3, [r4, #0]
 800da42:	07de      	lsls	r6, r3, #31
 800da44:	d508      	bpl.n	800da58 <_printf_i+0x14c>
 800da46:	6923      	ldr	r3, [r4, #16]
 800da48:	6861      	ldr	r1, [r4, #4]
 800da4a:	4299      	cmp	r1, r3
 800da4c:	bfde      	ittt	le
 800da4e:	2330      	movle	r3, #48	; 0x30
 800da50:	f805 3c01 	strble.w	r3, [r5, #-1]
 800da54:	f105 35ff 	addle.w	r5, r5, #4294967295
 800da58:	1b52      	subs	r2, r2, r5
 800da5a:	6122      	str	r2, [r4, #16]
 800da5c:	f8cd a000 	str.w	sl, [sp]
 800da60:	464b      	mov	r3, r9
 800da62:	aa03      	add	r2, sp, #12
 800da64:	4621      	mov	r1, r4
 800da66:	4640      	mov	r0, r8
 800da68:	f7ff fee2 	bl	800d830 <_printf_common>
 800da6c:	3001      	adds	r0, #1
 800da6e:	d14c      	bne.n	800db0a <_printf_i+0x1fe>
 800da70:	f04f 30ff 	mov.w	r0, #4294967295
 800da74:	b004      	add	sp, #16
 800da76:	e8bd 87f0 	ldmia.w	sp!, {r4, r5, r6, r7, r8, r9, sl, pc}
 800da7a:	4835      	ldr	r0, [pc, #212]	; (800db50 <_printf_i+0x244>)
 800da7c:	f881 7045 	strb.w	r7, [r1, #69]	; 0x45
 800da80:	6829      	ldr	r1, [r5, #0]
 800da82:	6823      	ldr	r3, [r4, #0]
 800da84:	f851 6b04 	ldr.w	r6, [r1], #4
 800da88:	6029      	str	r1, [r5, #0]
 800da8a:	061d      	lsls	r5, r3, #24
 800da8c:	d514      	bpl.n	800dab8 <_printf_i+0x1ac>
 800da8e:	07df      	lsls	r7, r3, #31
 800da90:	bf44      	itt	mi
 800da92:	f043 0320 	orrmi.w	r3, r3, #32
 800da96:	6023      	strmi	r3, [r4, #0]
 800da98:	b91e      	cbnz	r6, 800daa2 <_printf_i+0x196>
 800da9a:	6823      	ldr	r3, [r4, #0]
 800da9c:	f023 0320 	bic.w	r3, r3, #32
 800daa0:	6023      	str	r3, [r4, #0]
 800daa2:	2310      	movs	r3, #16
 800daa4:	e7b0      	b.n	800da08 <_printf_i+0xfc>
 800daa6:	6823      	ldr	r3, [r4, #0]
 800daa8:	f043 0320 	orr.w	r3, r3, #32
 800daac:	6023      	str	r3, [r4, #0]
 800daae:	2378      	movs	r3, #120	; 0x78
 800dab0:	4828      	ldr	r0, [pc, #160]	; (800db54 <_printf_i+0x248>)
 800dab2:	f884 3045 	strb.w	r3, [r4, #69]	; 0x45
 800dab6:	e7e3      	b.n	800da80 <_printf_i+0x174>
 800dab8:	0659      	lsls	r1, r3, #25
 800daba:	bf48      	it	mi
 800dabc:	b2b6      	uxthmi	r6, r6
 800dabe:	e7e6      	b.n	800da8e <_printf_i+0x182>
 800dac0:	4615      	mov	r5, r2
 800dac2:	e7bb      	b.n	800da3c <_printf_i+0x130>
 800dac4:	682b      	ldr	r3, [r5, #0]
 800dac6:	6826      	ldr	r6, [r4, #0]
 800dac8:	6961      	ldr	r1, [r4, #20]
 800daca:	1d18      	adds	r0, r3, #4
 800dacc:	6028      	str	r0, [r5, #0]
 800dace:	0635      	lsls	r5, r6, #24
 800dad0:	681b      	ldr	r3, [r3, #0]
 800dad2:	d501      	bpl.n	800dad8 <_printf_i+0x1cc>
 800dad4:	6019      	str	r1, [r3, #0]
 800dad6:	e002      	b.n	800dade <_printf_i+0x1d2>
 800dad8:	0670      	lsls	r0, r6, #25
 800dada:	d5fb      	bpl.n	800dad4 <_printf_i+0x1c8>
 800dadc:	8019      	strh	r1, [r3, #0]
 800dade:	2300      	movs	r3, #0
 800dae0:	6123      	str	r3, [r4, #16]
 800dae2:	4615      	mov	r5, r2
 800dae4:	e7ba      	b.n	800da5c <_printf_i+0x150>
 800dae6:	682b      	ldr	r3, [r5, #0]
 800dae8:	1d1a      	adds	r2, r3, #4
 800daea:	602a      	str	r2, [r5, #0]
 800daec:	681d      	ldr	r5, [r3, #0]
 800daee:	6862      	ldr	r2, [r4, #4]
 800daf0:	2100      	movs	r1, #0
 800daf2:	4628      	mov	r0, r5
 800daf4:	f7f2 ff4c 	bl	8000990 <memchr>
 800daf8:	b108      	cbz	r0, 800dafe <_printf_i+0x1f2>
 800dafa:	1b40      	subs	r0, r0, r5
 800dafc:	6060      	str	r0, [r4, #4]
 800dafe:	6863      	ldr	r3, [r4, #4]
 800db00:	6123      	str	r3, [r4, #16]
 800db02:	2300      	movs	r3, #0
 800db04:	f884 3043 	strb.w	r3, [r4, #67]	; 0x43
 800db08:	e7a8      	b.n	800da5c <_printf_i+0x150>
 800db0a:	6923      	ldr	r3, [r4, #16]
 800db0c:	462a      	mov	r2, r5
 800db0e:	4649      	mov	r1, r9
 800db10:	4640      	mov	r0, r8
 800db12:	47d0      	blx	sl
 800db14:	3001      	adds	r0, #1
 800db16:	d0ab      	beq.n	800da70 <_printf_i+0x164>
 800db18:	6823      	ldr	r3, [r4, #0]
 800db1a:	079b      	lsls	r3, r3, #30
 800db1c:	d413      	bmi.n	800db46 <_printf_i+0x23a>
 800db1e:	68e0      	ldr	r0, [r4, #12]
 800db20:	9b03      	ldr	r3, [sp, #12]
 800db22:	4298      	cmp	r0, r3
 800db24:	bfb8      	it	lt
 800db26:	4618      	movlt	r0, r3
 800db28:	e7a4      	b.n	800da74 <_printf_i+0x168>
 800db2a:	2301      	movs	r3, #1
 800db2c:	4632      	mov	r2, r6
 800db2e:	4649      	mov	r1, r9
 800db30:	4640      	mov	r0, r8
 800db32:	47d0      	blx	sl
 800db34:	3001      	adds	r0, #1
 800db36:	d09b      	beq.n	800da70 <_printf_i+0x164>
 800db38:	3501      	adds	r5, #1
 800db3a:	68e3      	ldr	r3, [r4, #12]
 800db3c:	9903      	ldr	r1, [sp, #12]
 800db3e:	1a5b      	subs	r3, r3, r1
 800db40:	42ab      	cmp	r3, r5
 800db42:	dcf2      	bgt.n	800db2a <_printf_i+0x21e>
 800db44:	e7eb      	b.n	800db1e <_printf_i+0x212>
 800db46:	2500      	movs	r5, #0
 800db48:	f104 0619 	add.w	r6, r4, #25
 800db4c:	e7f5      	b.n	800db3a <_printf_i+0x22e>
 800db4e:	bf00      	nop
 800db50:	0803cbb0 	.word	0x0803cbb0
 800db54:	0803cbc1 	.word	0x0803cbc1

0800db58 <__swbuf_r>:
 800db58:	b5f8      	push	{r3, r4, r5, r6, r7, lr}
 800db5a:	460e      	mov	r6, r1
 800db5c:	4614      	mov	r4, r2
 800db5e:	4605      	mov	r5, r0
 800db60:	b118      	cbz	r0, 800db6a <__swbuf_r+0x12>
 800db62:	6983      	ldr	r3, [r0, #24]
 800db64:	b90b      	cbnz	r3, 800db6a <__swbuf_r+0x12>
 800db66:	f000 f9d9 	bl	800df1c <__sinit>
 800db6a:	4b21      	ldr	r3, [pc, #132]	; (800dbf0 <__swbuf_r+0x98>)
 800db6c:	429c      	cmp	r4, r3
 800db6e:	d12b      	bne.n	800dbc8 <__swbuf_r+0x70>
 800db70:	686c      	ldr	r4, [r5, #4]
 800db72:	69a3      	ldr	r3, [r4, #24]
 800db74:	60a3      	str	r3, [r4, #8]
 800db76:	89a3      	ldrh	r3, [r4, #12]
 800db78:	071a      	lsls	r2, r3, #28
 800db7a:	d52f      	bpl.n	800dbdc <__swbuf_r+0x84>
 800db7c:	6923      	ldr	r3, [r4, #16]
 800db7e:	b36b      	cbz	r3, 800dbdc <__swbuf_r+0x84>
 800db80:	6923      	ldr	r3, [r4, #16]
 800db82:	6820      	ldr	r0, [r4, #0]
 800db84:	1ac0      	subs	r0, r0, r3
 800db86:	6963      	ldr	r3, [r4, #20]
 800db88:	b2f6      	uxtb	r6, r6
 800db8a:	4283      	cmp	r3, r0
 800db8c:	4637      	mov	r7, r6
 800db8e:	dc04      	bgt.n	800db9a <__swbuf_r+0x42>
 800db90:	4621      	mov	r1, r4
 800db92:	4628      	mov	r0, r5
 800db94:	f000 f92e 	bl	800ddf4 <_fflush_r>
 800db98:	bb30      	cbnz	r0, 800dbe8 <__swbuf_r+0x90>
 800db9a:	68a3      	ldr	r3, [r4, #8]
 800db9c:	3b01      	subs	r3, #1
 800db9e:	60a3      	str	r3, [r4, #8]
 800dba0:	6823      	ldr	r3, [r4, #0]
 800dba2:	1c5a      	adds	r2, r3, #1
 800dba4:	6022      	str	r2, [r4, #0]
 800dba6:	701e      	strb	r6, [r3, #0]
 800dba8:	6963      	ldr	r3, [r4, #20]
 800dbaa:	3001      	adds	r0, #1
 800dbac:	4283      	cmp	r3, r0
 800dbae:	d004      	beq.n	800dbba <__swbuf_r+0x62>
 800dbb0:	89a3      	ldrh	r3, [r4, #12]
 800dbb2:	07db      	lsls	r3, r3, #31
 800dbb4:	d506      	bpl.n	800dbc4 <__swbuf_r+0x6c>
 800dbb6:	2e0a      	cmp	r6, #10
 800dbb8:	d104      	bne.n	800dbc4 <__swbuf_r+0x6c>
 800dbba:	4621      	mov	r1, r4
 800dbbc:	4628      	mov	r0, r5
 800dbbe:	f000 f919 	bl	800ddf4 <_fflush_r>
 800dbc2:	b988      	cbnz	r0, 800dbe8 <__swbuf_r+0x90>
 800dbc4:	4638      	mov	r0, r7
 800dbc6:	bdf8      	pop	{r3, r4, r5, r6, r7, pc}
 800dbc8:	4b0a      	ldr	r3, [pc, #40]	; (800dbf4 <__swbuf_r+0x9c>)
 800dbca:	429c      	cmp	r4, r3
 800dbcc:	d101      	bne.n	800dbd2 <__swbuf_r+0x7a>
 800dbce:	68ac      	ldr	r4, [r5, #8]
 800dbd0:	e7cf      	b.n	800db72 <__swbuf_r+0x1a>
 800dbd2:	4b09      	ldr	r3, [pc, #36]	; (800dbf8 <__swbuf_r+0xa0>)
 800dbd4:	429c      	cmp	r4, r3
 800dbd6:	bf08      	it	eq
 800dbd8:	68ec      	ldreq	r4, [r5, #12]
 800dbda:	e7ca      	b.n	800db72 <__swbuf_r+0x1a>
 800dbdc:	4621      	mov	r1, r4
 800dbde:	4628      	mov	r0, r5
 800dbe0:	f000 f80c 	bl	800dbfc <__swsetup_r>
 800dbe4:	2800      	cmp	r0, #0
 800dbe6:	d0cb      	beq.n	800db80 <__swbuf_r+0x28>
 800dbe8:	f04f 37ff 	mov.w	r7, #4294967295
 800dbec:	e7ea      	b.n	800dbc4 <__swbuf_r+0x6c>
 800dbee:	bf00      	nop
 800dbf0:	0803cbf4 	.word	0x0803cbf4
 800dbf4:	0803cc14 	.word	0x0803cc14
 800dbf8:	0803cbd4 	.word	0x0803cbd4

0800dbfc <__swsetup_r>:
 800dbfc:	4b32      	ldr	r3, [pc, #200]	; (800dcc8 <__swsetup_r+0xcc>)
 800dbfe:	b570      	push	{r4, r5, r6, lr}
 800dc00:	681d      	ldr	r5, [r3, #0]
 800dc02:	4606      	mov	r6, r0
 800dc04:	460c      	mov	r4, r1
 800dc06:	b125      	cbz	r5, 800dc12 <__swsetup_r+0x16>
 800dc08:	69ab      	ldr	r3, [r5, #24]
 800dc0a:	b913      	cbnz	r3, 800dc12 <__swsetup_r+0x16>
 800dc0c:	4628      	mov	r0, r5
 800dc0e:	f000 f985 	bl	800df1c <__sinit>
 800dc12:	4b2e      	ldr	r3, [pc, #184]	; (800dccc <__swsetup_r+0xd0>)
 800dc14:	429c      	cmp	r4, r3
 800dc16:	d10f      	bne.n	800dc38 <__swsetup_r+0x3c>
 800dc18:	686c      	ldr	r4, [r5, #4]
 800dc1a:	89a3      	ldrh	r3, [r4, #12]
 800dc1c:	f9b4 200c 	ldrsh.w	r2, [r4, #12]
 800dc20:	0719      	lsls	r1, r3, #28
 800dc22:	d42c      	bmi.n	800dc7e <__swsetup_r+0x82>
 800dc24:	06dd      	lsls	r5, r3, #27
 800dc26:	d411      	bmi.n	800dc4c <__swsetup_r+0x50>
 800dc28:	2309      	movs	r3, #9
 800dc2a:	6033      	str	r3, [r6, #0]
 800dc2c:	f042 0340 	orr.w	r3, r2, #64	; 0x40
 800dc30:	81a3      	strh	r3, [r4, #12]
 800dc32:	f04f 30ff 	mov.w	r0, #4294967295
 800dc36:	e03e      	b.n	800dcb6 <__swsetup_r+0xba>
 800dc38:	4b25      	ldr	r3, [pc, #148]	; (800dcd0 <__swsetup_r+0xd4>)
 800dc3a:	429c      	cmp	r4, r3
 800dc3c:	d101      	bne.n	800dc42 <__swsetup_r+0x46>
 800dc3e:	68ac      	ldr	r4, [r5, #8]
 800dc40:	e7eb      	b.n	800dc1a <__swsetup_r+0x1e>
 800dc42:	4b24      	ldr	r3, [pc, #144]	; (800dcd4 <__swsetup_r+0xd8>)
 800dc44:	429c      	cmp	r4, r3
 800dc46:	bf08      	it	eq
 800dc48:	68ec      	ldreq	r4, [r5, #12]
 800dc4a:	e7e6      	b.n	800dc1a <__swsetup_r+0x1e>
 800dc4c:	0758      	lsls	r0, r3, #29
 800dc4e:	d512      	bpl.n	800dc76 <__swsetup_r+0x7a>
 800dc50:	6b61      	ldr	r1, [r4, #52]	; 0x34
 800dc52:	b141      	cbz	r1, 800dc66 <__swsetup_r+0x6a>
 800dc54:	f104 0344 	add.w	r3, r4, #68	; 0x44
 800dc58:	4299      	cmp	r1, r3
 800dc5a:	d002      	beq.n	800dc62 <__swsetup_r+0x66>
 800dc5c:	4630      	mov	r0, r6
 800dc5e:	f7ff facd 	bl	800d1fc <_free_r>
 800dc62:	2300      	movs	r3, #0
 800dc64:	6363      	str	r3, [r4, #52]	; 0x34
 800dc66:	89a3      	ldrh	r3, [r4, #12]
 800dc68:	f023 0324 	bic.w	r3, r3, #36	; 0x24
 800dc6c:	81a3      	strh	r3, [r4, #12]
 800dc6e:	2300      	movs	r3, #0
 800dc70:	6063      	str	r3, [r4, #4]
 800dc72:	6923      	ldr	r3, [r4, #16]
 800dc74:	6023      	str	r3, [r4, #0]
 800dc76:	89a3      	ldrh	r3, [r4, #12]
 800dc78:	f043 0308 	orr.w	r3, r3, #8
 800dc7c:	81a3      	strh	r3, [r4, #12]
 800dc7e:	6923      	ldr	r3, [r4, #16]
 800dc80:	b94b      	cbnz	r3, 800dc96 <__swsetup_r+0x9a>
 800dc82:	89a3      	ldrh	r3, [r4, #12]
 800dc84:	f403 7320 	and.w	r3, r3, #640	; 0x280
 800dc88:	f5b3 7f00 	cmp.w	r3, #512	; 0x200
 800dc8c:	d003      	beq.n	800dc96 <__swsetup_r+0x9a>
 800dc8e:	4621      	mov	r1, r4
 800dc90:	4630      	mov	r0, r6
 800dc92:	f000 fa09 	bl	800e0a8 <__smakebuf_r>
 800dc96:	89a0      	ldrh	r0, [r4, #12]
 800dc98:	f9b4 200c 	ldrsh.w	r2, [r4, #12]
 800dc9c:	f010 0301 	ands.w	r3, r0, #1
 800dca0:	d00a      	beq.n	800dcb8 <__swsetup_r+0xbc>
 800dca2:	2300      	movs	r3, #0
 800dca4:	60a3      	str	r3, [r4, #8]
 800dca6:	6963      	ldr	r3, [r4, #20]
 800dca8:	425b      	negs	r3, r3
 800dcaa:	61a3      	str	r3, [r4, #24]
 800dcac:	6923      	ldr	r3, [r4, #16]
 800dcae:	b943      	cbnz	r3, 800dcc2 <__swsetup_r+0xc6>
 800dcb0:	f010 0080 	ands.w	r0, r0, #128	; 0x80
 800dcb4:	d1ba      	bne.n	800dc2c <__swsetup_r+0x30>
 800dcb6:	bd70      	pop	{r4, r5, r6, pc}
 800dcb8:	0781      	lsls	r1, r0, #30
 800dcba:	bf58      	it	pl
 800dcbc:	6963      	ldrpl	r3, [r4, #20]
 800dcbe:	60a3      	str	r3, [r4, #8]
 800dcc0:	e7f4      	b.n	800dcac <__swsetup_r+0xb0>
 800dcc2:	2000      	movs	r0, #0
 800dcc4:	e7f7      	b.n	800dcb6 <__swsetup_r+0xba>
 800dcc6:	bf00      	nop
 800dcc8:	20000110 	.word	0x20000110
 800dccc:	0803cbf4 	.word	0x0803cbf4
 800dcd0:	0803cc14 	.word	0x0803cc14
 800dcd4:	0803cbd4 	.word	0x0803cbd4

0800dcd8 <abort>:
 800dcd8:	b508      	push	{r3, lr}
 800dcda:	2006      	movs	r0, #6
 800dcdc:	f000 fa4c 	bl	800e178 <raise>
 800dce0:	2001      	movs	r0, #1
 800dce2:	f7f6 f839 	bl	8003d58 <_exit>
	...

0800dce8 <__sflush_r>:
 800dce8:	898a      	ldrh	r2, [r1, #12]
 800dcea:	e92d 41f0 	stmdb	sp!, {r4, r5, r6, r7, r8, lr}
 800dcee:	4605      	mov	r5, r0
 800dcf0:	0710      	lsls	r0, r2, #28
 800dcf2:	460c      	mov	r4, r1
 800dcf4:	d458      	bmi.n	800dda8 <__sflush_r+0xc0>
 800dcf6:	684b      	ldr	r3, [r1, #4]
 800dcf8:	2b00      	cmp	r3, #0
 800dcfa:	dc05      	bgt.n	800dd08 <__sflush_r+0x20>
 800dcfc:	6c0b      	ldr	r3, [r1, #64]	; 0x40
 800dcfe:	2b00      	cmp	r3, #0
 800dd00:	dc02      	bgt.n	800dd08 <__sflush_r+0x20>
 800dd02:	2000      	movs	r0, #0
 800dd04:	e8bd 81f0 	ldmia.w	sp!, {r4, r5, r6, r7, r8, pc}
 800dd08:	6ae6      	ldr	r6, [r4, #44]	; 0x2c
 800dd0a:	2e00      	cmp	r6, #0
 800dd0c:	d0f9      	beq.n	800dd02 <__sflush_r+0x1a>
 800dd0e:	2300      	movs	r3, #0
 800dd10:	f412 5280 	ands.w	r2, r2, #4096	; 0x1000
 800dd14:	682f      	ldr	r7, [r5, #0]
 800dd16:	602b      	str	r3, [r5, #0]
 800dd18:	d032      	beq.n	800dd80 <__sflush_r+0x98>
 800dd1a:	6d60      	ldr	r0, [r4, #84]	; 0x54
 800dd1c:	89a3      	ldrh	r3, [r4, #12]
 800dd1e:	075a      	lsls	r2, r3, #29
 800dd20:	d505      	bpl.n	800dd2e <__sflush_r+0x46>
 800dd22:	6863      	ldr	r3, [r4, #4]
 800dd24:	1ac0      	subs	r0, r0, r3
 800dd26:	6b63      	ldr	r3, [r4, #52]	; 0x34
 800dd28:	b10b      	cbz	r3, 800dd2e <__sflush_r+0x46>
 800dd2a:	6c23      	ldr	r3, [r4, #64]	; 0x40
 800dd2c:	1ac0      	subs	r0, r0, r3
 800dd2e:	2300      	movs	r3, #0
 800dd30:	4602      	mov	r2, r0
 800dd32:	6ae6      	ldr	r6, [r4, #44]	; 0x2c
 800dd34:	6a21      	ldr	r1, [r4, #32]
 800dd36:	4628      	mov	r0, r5
 800dd38:	47b0      	blx	r6
 800dd3a:	1c43      	adds	r3, r0, #1
 800dd3c:	89a3      	ldrh	r3, [r4, #12]
 800dd3e:	d106      	bne.n	800dd4e <__sflush_r+0x66>
 800dd40:	6829      	ldr	r1, [r5, #0]
 800dd42:	291d      	cmp	r1, #29
 800dd44:	d82c      	bhi.n	800dda0 <__sflush_r+0xb8>
 800dd46:	4a2a      	ldr	r2, [pc, #168]	; (800ddf0 <__sflush_r+0x108>)
 800dd48:	40ca      	lsrs	r2, r1
 800dd4a:	07d6      	lsls	r6, r2, #31
 800dd4c:	d528      	bpl.n	800dda0 <__sflush_r+0xb8>
 800dd4e:	2200      	movs	r2, #0
 800dd50:	6062      	str	r2, [r4, #4]
 800dd52:	04d9      	lsls	r1, r3, #19
 800dd54:	6922      	ldr	r2, [r4, #16]
 800dd56:	6022      	str	r2, [r4, #0]
 800dd58:	d504      	bpl.n	800dd64 <__sflush_r+0x7c>
 800dd5a:	1c42      	adds	r2, r0, #1
 800dd5c:	d101      	bne.n	800dd62 <__sflush_r+0x7a>
 800dd5e:	682b      	ldr	r3, [r5, #0]
 800dd60:	b903      	cbnz	r3, 800dd64 <__sflush_r+0x7c>
 800dd62:	6560      	str	r0, [r4, #84]	; 0x54
 800dd64:	6b61      	ldr	r1, [r4, #52]	; 0x34
 800dd66:	602f      	str	r7, [r5, #0]
 800dd68:	2900      	cmp	r1, #0
 800dd6a:	d0ca      	beq.n	800dd02 <__sflush_r+0x1a>
 800dd6c:	f104 0344 	add.w	r3, r4, #68	; 0x44
 800dd70:	4299      	cmp	r1, r3
 800dd72:	d002      	beq.n	800dd7a <__sflush_r+0x92>
 800dd74:	4628      	mov	r0, r5
 800dd76:	f7ff fa41 	bl	800d1fc <_free_r>
 800dd7a:	2000      	movs	r0, #0
 800dd7c:	6360      	str	r0, [r4, #52]	; 0x34
 800dd7e:	e7c1      	b.n	800dd04 <__sflush_r+0x1c>
 800dd80:	6a21      	ldr	r1, [r4, #32]
 800dd82:	2301      	movs	r3, #1
 800dd84:	4628      	mov	r0, r5
 800dd86:	47b0      	blx	r6
 800dd88:	1c41      	adds	r1, r0, #1
 800dd8a:	d1c7      	bne.n	800dd1c <__sflush_r+0x34>
 800dd8c:	682b      	ldr	r3, [r5, #0]
 800dd8e:	2b00      	cmp	r3, #0
 800dd90:	d0c4      	beq.n	800dd1c <__sflush_r+0x34>
 800dd92:	2b1d      	cmp	r3, #29
 800dd94:	d001      	beq.n	800dd9a <__sflush_r+0xb2>
 800dd96:	2b16      	cmp	r3, #22
 800dd98:	d101      	bne.n	800dd9e <__sflush_r+0xb6>
 800dd9a:	602f      	str	r7, [r5, #0]
 800dd9c:	e7b1      	b.n	800dd02 <__sflush_r+0x1a>
 800dd9e:	89a3      	ldrh	r3, [r4, #12]
 800dda0:	f043 0340 	orr.w	r3, r3, #64	; 0x40
 800dda4:	81a3      	strh	r3, [r4, #12]
 800dda6:	e7ad      	b.n	800dd04 <__sflush_r+0x1c>
 800dda8:	690f      	ldr	r7, [r1, #16]
 800ddaa:	2f00      	cmp	r7, #0
 800ddac:	d0a9      	beq.n	800dd02 <__sflush_r+0x1a>
 800ddae:	0793      	lsls	r3, r2, #30
 800ddb0:	680e      	ldr	r6, [r1, #0]
 800ddb2:	bf08      	it	eq
 800ddb4:	694b      	ldreq	r3, [r1, #20]
 800ddb6:	600f      	str	r7, [r1, #0]
 800ddb8:	bf18      	it	ne
 800ddba:	2300      	movne	r3, #0
 800ddbc:	eba6 0807 	sub.w	r8, r6, r7
 800ddc0:	608b      	str	r3, [r1, #8]
 800ddc2:	f1b8 0f00 	cmp.w	r8, #0
 800ddc6:	dd9c      	ble.n	800dd02 <__sflush_r+0x1a>
 800ddc8:	6a21      	ldr	r1, [r4, #32]
 800ddca:	6aa6      	ldr	r6, [r4, #40]	; 0x28
 800ddcc:	4643      	mov	r3, r8
 800ddce:	463a      	mov	r2, r7
 800ddd0:	4628      	mov	r0, r5
 800ddd2:	47b0      	blx	r6
 800ddd4:	2800      	cmp	r0, #0
 800ddd6:	dc06      	bgt.n	800dde6 <__sflush_r+0xfe>
 800ddd8:	89a3      	ldrh	r3, [r4, #12]
 800ddda:	f043 0340 	orr.w	r3, r3, #64	; 0x40
 800ddde:	81a3      	strh	r3, [r4, #12]
 800dde0:	f04f 30ff 	mov.w	r0, #4294967295
 800dde4:	e78e      	b.n	800dd04 <__sflush_r+0x1c>
 800dde6:	4407      	add	r7, r0
 800dde8:	eba8 0800 	sub.w	r8, r8, r0
 800ddec:	e7e9      	b.n	800ddc2 <__sflush_r+0xda>
 800ddee:	bf00      	nop
 800ddf0:	20400001 	.word	0x20400001

0800ddf4 <_fflush_r>:
 800ddf4:	b538      	push	{r3, r4, r5, lr}
 800ddf6:	690b      	ldr	r3, [r1, #16]
 800ddf8:	4605      	mov	r5, r0
 800ddfa:	460c      	mov	r4, r1
 800ddfc:	b913      	cbnz	r3, 800de04 <_fflush_r+0x10>
 800ddfe:	2500      	movs	r5, #0
 800de00:	4628      	mov	r0, r5
 800de02:	bd38      	pop	{r3, r4, r5, pc}
 800de04:	b118      	cbz	r0, 800de0e <_fflush_r+0x1a>
 800de06:	6983      	ldr	r3, [r0, #24]
 800de08:	b90b      	cbnz	r3, 800de0e <_fflush_r+0x1a>
 800de0a:	f000 f887 	bl	800df1c <__sinit>
 800de0e:	4b14      	ldr	r3, [pc, #80]	; (800de60 <_fflush_r+0x6c>)
 800de10:	429c      	cmp	r4, r3
 800de12:	d11b      	bne.n	800de4c <_fflush_r+0x58>
 800de14:	686c      	ldr	r4, [r5, #4]
 800de16:	f9b4 300c 	ldrsh.w	r3, [r4, #12]
 800de1a:	2b00      	cmp	r3, #0
 800de1c:	d0ef      	beq.n	800ddfe <_fflush_r+0xa>
 800de1e:	6e62      	ldr	r2, [r4, #100]	; 0x64
 800de20:	07d0      	lsls	r0, r2, #31
 800de22:	d404      	bmi.n	800de2e <_fflush_r+0x3a>
 800de24:	0599      	lsls	r1, r3, #22
 800de26:	d402      	bmi.n	800de2e <_fflush_r+0x3a>
 800de28:	6da0      	ldr	r0, [r4, #88]	; 0x58
 800de2a:	f000 f915 	bl	800e058 <__retarget_lock_acquire_recursive>
 800de2e:	4628      	mov	r0, r5
 800de30:	4621      	mov	r1, r4
 800de32:	f7ff ff59 	bl	800dce8 <__sflush_r>
 800de36:	6e63      	ldr	r3, [r4, #100]	; 0x64
 800de38:	07da      	lsls	r2, r3, #31
 800de3a:	4605      	mov	r5, r0
 800de3c:	d4e0      	bmi.n	800de00 <_fflush_r+0xc>
 800de3e:	89a3      	ldrh	r3, [r4, #12]
 800de40:	059b      	lsls	r3, r3, #22
 800de42:	d4dd      	bmi.n	800de00 <_fflush_r+0xc>
 800de44:	6da0      	ldr	r0, [r4, #88]	; 0x58
 800de46:	f000 f908 	bl	800e05a <__retarget_lock_release_recursive>
 800de4a:	e7d9      	b.n	800de00 <_fflush_r+0xc>
 800de4c:	4b05      	ldr	r3, [pc, #20]	; (800de64 <_fflush_r+0x70>)
 800de4e:	429c      	cmp	r4, r3
 800de50:	d101      	bne.n	800de56 <_fflush_r+0x62>
 800de52:	68ac      	ldr	r4, [r5, #8]
 800de54:	e7df      	b.n	800de16 <_fflush_r+0x22>
 800de56:	4b04      	ldr	r3, [pc, #16]	; (800de68 <_fflush_r+0x74>)
 800de58:	429c      	cmp	r4, r3
 800de5a:	bf08      	it	eq
 800de5c:	68ec      	ldreq	r4, [r5, #12]
 800de5e:	e7da      	b.n	800de16 <_fflush_r+0x22>
 800de60:	0803cbf4 	.word	0x0803cbf4
 800de64:	0803cc14 	.word	0x0803cc14
 800de68:	0803cbd4 	.word	0x0803cbd4

0800de6c <std>:
 800de6c:	2300      	movs	r3, #0
 800de6e:	b510      	push	{r4, lr}
 800de70:	4604      	mov	r4, r0
 800de72:	e9c0 3300 	strd	r3, r3, [r0]
 800de76:	e9c0 3304 	strd	r3, r3, [r0, #16]
 800de7a:	6083      	str	r3, [r0, #8]
 800de7c:	8181      	strh	r1, [r0, #12]
 800de7e:	6643      	str	r3, [r0, #100]	; 0x64
 800de80:	81c2      	strh	r2, [r0, #14]
 800de82:	6183      	str	r3, [r0, #24]
 800de84:	4619      	mov	r1, r3
 800de86:	2208      	movs	r2, #8
 800de88:	305c      	adds	r0, #92	; 0x5c
 800de8a:	f7ff f999 	bl	800d1c0 <memset>
 800de8e:	4b05      	ldr	r3, [pc, #20]	; (800dea4 <std+0x38>)
 800de90:	6263      	str	r3, [r4, #36]	; 0x24
 800de92:	4b05      	ldr	r3, [pc, #20]	; (800dea8 <std+0x3c>)
 800de94:	62a3      	str	r3, [r4, #40]	; 0x28
 800de96:	4b05      	ldr	r3, [pc, #20]	; (800deac <std+0x40>)
 800de98:	62e3      	str	r3, [r4, #44]	; 0x2c
 800de9a:	4b05      	ldr	r3, [pc, #20]	; (800deb0 <std+0x44>)
 800de9c:	6224      	str	r4, [r4, #32]
 800de9e:	6323      	str	r3, [r4, #48]	; 0x30
 800dea0:	bd10      	pop	{r4, pc}
 800dea2:	bf00      	nop
 800dea4:	0800e1b1 	.word	0x0800e1b1
 800dea8:	0800e1d3 	.word	0x0800e1d3
 800deac:	0800e20b 	.word	0x0800e20b
 800deb0:	0800e22f 	.word	0x0800e22f

0800deb4 <_cleanup_r>:
 800deb4:	4901      	ldr	r1, [pc, #4]	; (800debc <_cleanup_r+0x8>)
 800deb6:	f000 b8af 	b.w	800e018 <_fwalk_reent>
 800deba:	bf00      	nop
 800debc:	0800ddf5 	.word	0x0800ddf5

0800dec0 <__sfmoreglue>:
 800dec0:	b570      	push	{r4, r5, r6, lr}
 800dec2:	2268      	movs	r2, #104	; 0x68
 800dec4:	1e4d      	subs	r5, r1, #1
 800dec6:	4355      	muls	r5, r2
 800dec8:	460e      	mov	r6, r1
 800deca:	f105 0174 	add.w	r1, r5, #116	; 0x74
 800dece:	f7ff fa01 	bl	800d2d4 <_malloc_r>
 800ded2:	4604      	mov	r4, r0
 800ded4:	b140      	cbz	r0, 800dee8 <__sfmoreglue+0x28>
 800ded6:	2100      	movs	r1, #0
 800ded8:	e9c0 1600 	strd	r1, r6, [r0]
 800dedc:	300c      	adds	r0, #12
 800dede:	60a0      	str	r0, [r4, #8]
 800dee0:	f105 0268 	add.w	r2, r5, #104	; 0x68
 800dee4:	f7ff f96c 	bl	800d1c0 <memset>
 800dee8:	4620      	mov	r0, r4
 800deea:	bd70      	pop	{r4, r5, r6, pc}

0800deec <__sfp_lock_acquire>:
 800deec:	4801      	ldr	r0, [pc, #4]	; (800def4 <__sfp_lock_acquire+0x8>)
 800deee:	f000 b8b3 	b.w	800e058 <__retarget_lock_acquire_recursive>
 800def2:	bf00      	nop
 800def4:	200001b5 	.word	0x200001b5

0800def8 <__sfp_lock_release>:
 800def8:	4801      	ldr	r0, [pc, #4]	; (800df00 <__sfp_lock_release+0x8>)
 800defa:	f000 b8ae 	b.w	800e05a <__retarget_lock_release_recursive>
 800defe:	bf00      	nop
 800df00:	200001b5 	.word	0x200001b5

0800df04 <__sinit_lock_acquire>:
 800df04:	4801      	ldr	r0, [pc, #4]	; (800df0c <__sinit_lock_acquire+0x8>)
 800df06:	f000 b8a7 	b.w	800e058 <__retarget_lock_acquire_recursive>
 800df0a:	bf00      	nop
 800df0c:	200001b6 	.word	0x200001b6

0800df10 <__sinit_lock_release>:
 800df10:	4801      	ldr	r0, [pc, #4]	; (800df18 <__sinit_lock_release+0x8>)
 800df12:	f000 b8a2 	b.w	800e05a <__retarget_lock_release_recursive>
 800df16:	bf00      	nop
 800df18:	200001b6 	.word	0x200001b6

0800df1c <__sinit>:
 800df1c:	b510      	push	{r4, lr}
 800df1e:	4604      	mov	r4, r0
 800df20:	f7ff fff0 	bl	800df04 <__sinit_lock_acquire>
 800df24:	69a3      	ldr	r3, [r4, #24]
 800df26:	b11b      	cbz	r3, 800df30 <__sinit+0x14>
 800df28:	e8bd 4010 	ldmia.w	sp!, {r4, lr}
 800df2c:	f7ff bff0 	b.w	800df10 <__sinit_lock_release>
 800df30:	e9c4 3312 	strd	r3, r3, [r4, #72]	; 0x48
 800df34:	6523      	str	r3, [r4, #80]	; 0x50
 800df36:	4b13      	ldr	r3, [pc, #76]	; (800df84 <__sinit+0x68>)
 800df38:	4a13      	ldr	r2, [pc, #76]	; (800df88 <__sinit+0x6c>)
 800df3a:	681b      	ldr	r3, [r3, #0]
 800df3c:	62a2      	str	r2, [r4, #40]	; 0x28
 800df3e:	42a3      	cmp	r3, r4
 800df40:	bf04      	itt	eq
 800df42:	2301      	moveq	r3, #1
 800df44:	61a3      	streq	r3, [r4, #24]
 800df46:	4620      	mov	r0, r4
 800df48:	f000 f820 	bl	800df8c <__sfp>
 800df4c:	6060      	str	r0, [r4, #4]
 800df4e:	4620      	mov	r0, r4
 800df50:	f000 f81c 	bl	800df8c <__sfp>
 800df54:	60a0      	str	r0, [r4, #8]
 800df56:	4620      	mov	r0, r4
 800df58:	f000 f818 	bl	800df8c <__sfp>
 800df5c:	2200      	movs	r2, #0
 800df5e:	60e0      	str	r0, [r4, #12]
 800df60:	2104      	movs	r1, #4
 800df62:	6860      	ldr	r0, [r4, #4]
 800df64:	f7ff ff82 	bl	800de6c <std>
 800df68:	68a0      	ldr	r0, [r4, #8]
 800df6a:	2201      	movs	r2, #1
 800df6c:	2109      	movs	r1, #9
 800df6e:	f7ff ff7d 	bl	800de6c <std>
 800df72:	68e0      	ldr	r0, [r4, #12]
 800df74:	2202      	movs	r2, #2
 800df76:	2112      	movs	r1, #18
 800df78:	f7ff ff78 	bl	800de6c <std>
 800df7c:	2301      	movs	r3, #1
 800df7e:	61a3      	str	r3, [r4, #24]
 800df80:	e7d2      	b.n	800df28 <__sinit+0xc>
 800df82:	bf00      	nop
 800df84:	0803cac8 	.word	0x0803cac8
 800df88:	0800deb5 	.word	0x0800deb5

0800df8c <__sfp>:
 800df8c:	b5f8      	push	{r3, r4, r5, r6, r7, lr}
 800df8e:	4607      	mov	r7, r0
 800df90:	f7ff ffac 	bl	800deec <__sfp_lock_acquire>
 800df94:	4b1e      	ldr	r3, [pc, #120]	; (800e010 <__sfp+0x84>)
 800df96:	681e      	ldr	r6, [r3, #0]
 800df98:	69b3      	ldr	r3, [r6, #24]
 800df9a:	b913      	cbnz	r3, 800dfa2 <__sfp+0x16>
 800df9c:	4630      	mov	r0, r6
 800df9e:	f7ff ffbd 	bl	800df1c <__sinit>
 800dfa2:	3648      	adds	r6, #72	; 0x48
 800dfa4:	e9d6 3401 	ldrd	r3, r4, [r6, #4]
 800dfa8:	3b01      	subs	r3, #1
 800dfaa:	d503      	bpl.n	800dfb4 <__sfp+0x28>
 800dfac:	6833      	ldr	r3, [r6, #0]
 800dfae:	b30b      	cbz	r3, 800dff4 <__sfp+0x68>
 800dfb0:	6836      	ldr	r6, [r6, #0]
 800dfb2:	e7f7      	b.n	800dfa4 <__sfp+0x18>
 800dfb4:	f9b4 500c 	ldrsh.w	r5, [r4, #12]
 800dfb8:	b9d5      	cbnz	r5, 800dff0 <__sfp+0x64>
 800dfba:	4b16      	ldr	r3, [pc, #88]	; (800e014 <__sfp+0x88>)
 800dfbc:	60e3      	str	r3, [r4, #12]
 800dfbe:	f104 0058 	add.w	r0, r4, #88	; 0x58
 800dfc2:	6665      	str	r5, [r4, #100]	; 0x64
 800dfc4:	f000 f847 	bl	800e056 <__retarget_lock_init_recursive>
 800dfc8:	f7ff ff96 	bl	800def8 <__sfp_lock_release>
 800dfcc:	e9c4 5501 	strd	r5, r5, [r4, #4]
 800dfd0:	e9c4 5504 	strd	r5, r5, [r4, #16]
 800dfd4:	6025      	str	r5, [r4, #0]
 800dfd6:	61a5      	str	r5, [r4, #24]
 800dfd8:	2208      	movs	r2, #8
 800dfda:	4629      	mov	r1, r5
 800dfdc:	f104 005c 	add.w	r0, r4, #92	; 0x5c
 800dfe0:	f7ff f8ee 	bl	800d1c0 <memset>
 800dfe4:	e9c4 550d 	strd	r5, r5, [r4, #52]	; 0x34
 800dfe8:	e9c4 5512 	strd	r5, r5, [r4, #72]	; 0x48
 800dfec:	4620      	mov	r0, r4
 800dfee:	bdf8      	pop	{r3, r4, r5, r6, r7, pc}
 800dff0:	3468      	adds	r4, #104	; 0x68
 800dff2:	e7d9      	b.n	800dfa8 <__sfp+0x1c>
 800dff4:	2104      	movs	r1, #4
 800dff6:	4638      	mov	r0, r7
 800dff8:	f7ff ff62 	bl	800dec0 <__sfmoreglue>
 800dffc:	4604      	mov	r4, r0
 800dffe:	6030      	str	r0, [r6, #0]
 800e000:	2800      	cmp	r0, #0
 800e002:	d1d5      	bne.n	800dfb0 <__sfp+0x24>
 800e004:	f7ff ff78 	bl	800def8 <__sfp_lock_release>
 800e008:	230c      	movs	r3, #12
 800e00a:	603b      	str	r3, [r7, #0]
 800e00c:	e7ee      	b.n	800dfec <__sfp+0x60>
 800e00e:	bf00      	nop
 800e010:	0803cac8 	.word	0x0803cac8
 800e014:	ffff0001 	.word	0xffff0001

0800e018 <_fwalk_reent>:
 800e018:	e92d 43f8 	stmdb	sp!, {r3, r4, r5, r6, r7, r8, r9, lr}
 800e01c:	4606      	mov	r6, r0
 800e01e:	4688      	mov	r8, r1
 800e020:	f100 0448 	add.w	r4, r0, #72	; 0x48
 800e024:	2700      	movs	r7, #0
 800e026:	e9d4 9501 	ldrd	r9, r5, [r4, #4]
 800e02a:	f1b9 0901 	subs.w	r9, r9, #1
 800e02e:	d505      	bpl.n	800e03c <_fwalk_reent+0x24>
 800e030:	6824      	ldr	r4, [r4, #0]
 800e032:	2c00      	cmp	r4, #0
 800e034:	d1f7      	bne.n	800e026 <_fwalk_reent+0xe>
 800e036:	4638      	mov	r0, r7
 800e038:	e8bd 83f8 	ldmia.w	sp!, {r3, r4, r5, r6, r7, r8, r9, pc}
 800e03c:	89ab      	ldrh	r3, [r5, #12]
 800e03e:	2b01      	cmp	r3, #1
 800e040:	d907      	bls.n	800e052 <_fwalk_reent+0x3a>
 800e042:	f9b5 300e 	ldrsh.w	r3, [r5, #14]
 800e046:	3301      	adds	r3, #1
 800e048:	d003      	beq.n	800e052 <_fwalk_reent+0x3a>
 800e04a:	4629      	mov	r1, r5
 800e04c:	4630      	mov	r0, r6
 800e04e:	47c0      	blx	r8
 800e050:	4307      	orrs	r7, r0
 800e052:	3568      	adds	r5, #104	; 0x68
 800e054:	e7e9      	b.n	800e02a <_fwalk_reent+0x12>

0800e056 <__retarget_lock_init_recursive>:
 800e056:	4770      	bx	lr

0800e058 <__retarget_lock_acquire_recursive>:
 800e058:	4770      	bx	lr

0800e05a <__retarget_lock_release_recursive>:
 800e05a:	4770      	bx	lr

0800e05c <__swhatbuf_r>:
 800e05c:	b570      	push	{r4, r5, r6, lr}
 800e05e:	460e      	mov	r6, r1
 800e060:	f9b1 100e 	ldrsh.w	r1, [r1, #14]
 800e064:	2900      	cmp	r1, #0
 800e066:	b096      	sub	sp, #88	; 0x58
 800e068:	4614      	mov	r4, r2
 800e06a:	461d      	mov	r5, r3
 800e06c:	da08      	bge.n	800e080 <__swhatbuf_r+0x24>
 800e06e:	f9b6 300c 	ldrsh.w	r3, [r6, #12]
 800e072:	2200      	movs	r2, #0
 800e074:	602a      	str	r2, [r5, #0]
 800e076:	061a      	lsls	r2, r3, #24
 800e078:	d410      	bmi.n	800e09c <__swhatbuf_r+0x40>
 800e07a:	f44f 6380 	mov.w	r3, #1024	; 0x400
 800e07e:	e00e      	b.n	800e09e <__swhatbuf_r+0x42>
 800e080:	466a      	mov	r2, sp
 800e082:	f000 f8fb 	bl	800e27c <_fstat_r>
 800e086:	2800      	cmp	r0, #0
 800e088:	dbf1      	blt.n	800e06e <__swhatbuf_r+0x12>
 800e08a:	9a01      	ldr	r2, [sp, #4]
 800e08c:	f402 4270 	and.w	r2, r2, #61440	; 0xf000
 800e090:	f5a2 5300 	sub.w	r3, r2, #8192	; 0x2000
 800e094:	425a      	negs	r2, r3
 800e096:	415a      	adcs	r2, r3
 800e098:	602a      	str	r2, [r5, #0]
 800e09a:	e7ee      	b.n	800e07a <__swhatbuf_r+0x1e>
 800e09c:	2340      	movs	r3, #64	; 0x40
 800e09e:	2000      	movs	r0, #0
 800e0a0:	6023      	str	r3, [r4, #0]
 800e0a2:	b016      	add	sp, #88	; 0x58
 800e0a4:	bd70      	pop	{r4, r5, r6, pc}
	...

0800e0a8 <__smakebuf_r>:
 800e0a8:	898b      	ldrh	r3, [r1, #12]
 800e0aa:	b573      	push	{r0, r1, r4, r5, r6, lr}
 800e0ac:	079d      	lsls	r5, r3, #30
 800e0ae:	4606      	mov	r6, r0
 800e0b0:	460c      	mov	r4, r1
 800e0b2:	d507      	bpl.n	800e0c4 <__smakebuf_r+0x1c>
 800e0b4:	f104 0347 	add.w	r3, r4, #71	; 0x47
 800e0b8:	6023      	str	r3, [r4, #0]
 800e0ba:	6123      	str	r3, [r4, #16]
 800e0bc:	2301      	movs	r3, #1
 800e0be:	6163      	str	r3, [r4, #20]
 800e0c0:	b002      	add	sp, #8
 800e0c2:	bd70      	pop	{r4, r5, r6, pc}
 800e0c4:	ab01      	add	r3, sp, #4
 800e0c6:	466a      	mov	r2, sp
 800e0c8:	f7ff ffc8 	bl	800e05c <__swhatbuf_r>
 800e0cc:	9900      	ldr	r1, [sp, #0]
 800e0ce:	4605      	mov	r5, r0
 800e0d0:	4630      	mov	r0, r6
 800e0d2:	f7ff f8ff 	bl	800d2d4 <_malloc_r>
 800e0d6:	b948      	cbnz	r0, 800e0ec <__smakebuf_r+0x44>
 800e0d8:	f9b4 300c 	ldrsh.w	r3, [r4, #12]
 800e0dc:	059a      	lsls	r2, r3, #22
 800e0de:	d4ef      	bmi.n	800e0c0 <__smakebuf_r+0x18>
 800e0e0:	f023 0303 	bic.w	r3, r3, #3
 800e0e4:	f043 0302 	orr.w	r3, r3, #2
 800e0e8:	81a3      	strh	r3, [r4, #12]
 800e0ea:	e7e3      	b.n	800e0b4 <__smakebuf_r+0xc>
 800e0ec:	4b0d      	ldr	r3, [pc, #52]	; (800e124 <__smakebuf_r+0x7c>)
 800e0ee:	62b3      	str	r3, [r6, #40]	; 0x28
 800e0f0:	89a3      	ldrh	r3, [r4, #12]
 800e0f2:	6020      	str	r0, [r4, #0]
 800e0f4:	f043 0380 	orr.w	r3, r3, #128	; 0x80
 800e0f8:	81a3      	strh	r3, [r4, #12]
 800e0fa:	9b00      	ldr	r3, [sp, #0]
 800e0fc:	6163      	str	r3, [r4, #20]
 800e0fe:	9b01      	ldr	r3, [sp, #4]
 800e100:	6120      	str	r0, [r4, #16]
 800e102:	b15b      	cbz	r3, 800e11c <__smakebuf_r+0x74>
 800e104:	f9b4 100e 	ldrsh.w	r1, [r4, #14]
 800e108:	4630      	mov	r0, r6
 800e10a:	f000 f8c9 	bl	800e2a0 <_isatty_r>
 800e10e:	b128      	cbz	r0, 800e11c <__smakebuf_r+0x74>
 800e110:	89a3      	ldrh	r3, [r4, #12]
 800e112:	f023 0303 	bic.w	r3, r3, #3
 800e116:	f043 0301 	orr.w	r3, r3, #1
 800e11a:	81a3      	strh	r3, [r4, #12]
 800e11c:	89a0      	ldrh	r0, [r4, #12]
 800e11e:	4305      	orrs	r5, r0
 800e120:	81a5      	strh	r5, [r4, #12]
 800e122:	e7cd      	b.n	800e0c0 <__smakebuf_r+0x18>
 800e124:	0800deb5 	.word	0x0800deb5

0800e128 <_raise_r>:
 800e128:	291f      	cmp	r1, #31
 800e12a:	b538      	push	{r3, r4, r5, lr}
 800e12c:	4604      	mov	r4, r0
 800e12e:	460d      	mov	r5, r1
 800e130:	d904      	bls.n	800e13c <_raise_r+0x14>
 800e132:	2316      	movs	r3, #22
 800e134:	6003      	str	r3, [r0, #0]
 800e136:	f04f 30ff 	mov.w	r0, #4294967295
 800e13a:	bd38      	pop	{r3, r4, r5, pc}
 800e13c:	6c42      	ldr	r2, [r0, #68]	; 0x44
 800e13e:	b112      	cbz	r2, 800e146 <_raise_r+0x1e>
 800e140:	f852 3021 	ldr.w	r3, [r2, r1, lsl #2]
 800e144:	b94b      	cbnz	r3, 800e15a <_raise_r+0x32>
 800e146:	4620      	mov	r0, r4
 800e148:	f000 f830 	bl	800e1ac <_getpid_r>
 800e14c:	462a      	mov	r2, r5
 800e14e:	4601      	mov	r1, r0
 800e150:	4620      	mov	r0, r4
 800e152:	e8bd 4038 	ldmia.w	sp!, {r3, r4, r5, lr}
 800e156:	f000 b817 	b.w	800e188 <_kill_r>
 800e15a:	2b01      	cmp	r3, #1
 800e15c:	d00a      	beq.n	800e174 <_raise_r+0x4c>
 800e15e:	1c59      	adds	r1, r3, #1
 800e160:	d103      	bne.n	800e16a <_raise_r+0x42>
 800e162:	2316      	movs	r3, #22
 800e164:	6003      	str	r3, [r0, #0]
 800e166:	2001      	movs	r0, #1
 800e168:	e7e7      	b.n	800e13a <_raise_r+0x12>
 800e16a:	2400      	movs	r4, #0
 800e16c:	f842 4025 	str.w	r4, [r2, r5, lsl #2]
 800e170:	4628      	mov	r0, r5
 800e172:	4798      	blx	r3
 800e174:	2000      	movs	r0, #0
 800e176:	e7e0      	b.n	800e13a <_raise_r+0x12>

0800e178 <raise>:
 800e178:	4b02      	ldr	r3, [pc, #8]	; (800e184 <raise+0xc>)
 800e17a:	4601      	mov	r1, r0
 800e17c:	6818      	ldr	r0, [r3, #0]
 800e17e:	f7ff bfd3 	b.w	800e128 <_raise_r>
 800e182:	bf00      	nop
 800e184:	20000110 	.word	0x20000110

0800e188 <_kill_r>:
 800e188:	b538      	push	{r3, r4, r5, lr}
 800e18a:	4d07      	ldr	r5, [pc, #28]	; (800e1a8 <_kill_r+0x20>)
 800e18c:	2300      	movs	r3, #0
 800e18e:	4604      	mov	r4, r0
 800e190:	4608      	mov	r0, r1
 800e192:	4611      	mov	r1, r2
 800e194:	602b      	str	r3, [r5, #0]
 800e196:	f7f5 fdd7 	bl	8003d48 <_kill>
 800e19a:	1c43      	adds	r3, r0, #1
 800e19c:	d102      	bne.n	800e1a4 <_kill_r+0x1c>
 800e19e:	682b      	ldr	r3, [r5, #0]
 800e1a0:	b103      	cbz	r3, 800e1a4 <_kill_r+0x1c>
 800e1a2:	6023      	str	r3, [r4, #0]
 800e1a4:	bd38      	pop	{r3, r4, r5, pc}
 800e1a6:	bf00      	nop
 800e1a8:	200001b0 	.word	0x200001b0

0800e1ac <_getpid_r>:
 800e1ac:	f7f5 bdca 	b.w	8003d44 <_getpid>

0800e1b0 <__sread>:
 800e1b0:	b510      	push	{r4, lr}
 800e1b2:	460c      	mov	r4, r1
 800e1b4:	f9b1 100e 	ldrsh.w	r1, [r1, #14]
 800e1b8:	f000 f894 	bl	800e2e4 <_read_r>
 800e1bc:	2800      	cmp	r0, #0
 800e1be:	bfab      	itete	ge
 800e1c0:	6d63      	ldrge	r3, [r4, #84]	; 0x54
 800e1c2:	89a3      	ldrhlt	r3, [r4, #12]
 800e1c4:	181b      	addge	r3, r3, r0
 800e1c6:	f423 5380 	biclt.w	r3, r3, #4096	; 0x1000
 800e1ca:	bfac      	ite	ge
 800e1cc:	6563      	strge	r3, [r4, #84]	; 0x54
 800e1ce:	81a3      	strhlt	r3, [r4, #12]
 800e1d0:	bd10      	pop	{r4, pc}

0800e1d2 <__swrite>:
 800e1d2:	e92d 41f0 	stmdb	sp!, {r4, r5, r6, r7, r8, lr}
 800e1d6:	461f      	mov	r7, r3
 800e1d8:	898b      	ldrh	r3, [r1, #12]
 800e1da:	05db      	lsls	r3, r3, #23
 800e1dc:	4605      	mov	r5, r0
 800e1de:	460c      	mov	r4, r1
 800e1e0:	4616      	mov	r6, r2
 800e1e2:	d505      	bpl.n	800e1f0 <__swrite+0x1e>
 800e1e4:	f9b1 100e 	ldrsh.w	r1, [r1, #14]
 800e1e8:	2302      	movs	r3, #2
 800e1ea:	2200      	movs	r2, #0
 800e1ec:	f000 f868 	bl	800e2c0 <_lseek_r>
 800e1f0:	89a3      	ldrh	r3, [r4, #12]
 800e1f2:	f9b4 100e 	ldrsh.w	r1, [r4, #14]
 800e1f6:	f423 5380 	bic.w	r3, r3, #4096	; 0x1000
 800e1fa:	81a3      	strh	r3, [r4, #12]
 800e1fc:	4632      	mov	r2, r6
 800e1fe:	463b      	mov	r3, r7
 800e200:	4628      	mov	r0, r5
 800e202:	e8bd 41f0 	ldmia.w	sp!, {r4, r5, r6, r7, r8, lr}
 800e206:	f000 b817 	b.w	800e238 <_write_r>

0800e20a <__sseek>:
 800e20a:	b510      	push	{r4, lr}
 800e20c:	460c      	mov	r4, r1
 800e20e:	f9b1 100e 	ldrsh.w	r1, [r1, #14]
 800e212:	f000 f855 	bl	800e2c0 <_lseek_r>
 800e216:	1c43      	adds	r3, r0, #1
 800e218:	89a3      	ldrh	r3, [r4, #12]
 800e21a:	bf15      	itete	ne
 800e21c:	6560      	strne	r0, [r4, #84]	; 0x54
 800e21e:	f423 5380 	biceq.w	r3, r3, #4096	; 0x1000
 800e222:	f443 5380 	orrne.w	r3, r3, #4096	; 0x1000
 800e226:	81a3      	strheq	r3, [r4, #12]
 800e228:	bf18      	it	ne
 800e22a:	81a3      	strhne	r3, [r4, #12]
 800e22c:	bd10      	pop	{r4, pc}

0800e22e <__sclose>:
 800e22e:	f9b1 100e 	ldrsh.w	r1, [r1, #14]
 800e232:	f000 b813 	b.w	800e25c <_close_r>
	...

0800e238 <_write_r>:
 800e238:	b538      	push	{r3, r4, r5, lr}
 800e23a:	4d07      	ldr	r5, [pc, #28]	; (800e258 <_write_r+0x20>)
 800e23c:	4604      	mov	r4, r0
 800e23e:	4608      	mov	r0, r1
 800e240:	4611      	mov	r1, r2
 800e242:	2200      	movs	r2, #0
 800e244:	602a      	str	r2, [r5, #0]
 800e246:	461a      	mov	r2, r3
 800e248:	f7f5 fd9a 	bl	8003d80 <_write>
 800e24c:	1c43      	adds	r3, r0, #1
 800e24e:	d102      	bne.n	800e256 <_write_r+0x1e>
 800e250:	682b      	ldr	r3, [r5, #0]
 800e252:	b103      	cbz	r3, 800e256 <_write_r+0x1e>
 800e254:	6023      	str	r3, [r4, #0]
 800e256:	bd38      	pop	{r3, r4, r5, pc}
 800e258:	200001b0 	.word	0x200001b0

0800e25c <_close_r>:
 800e25c:	b538      	push	{r3, r4, r5, lr}
 800e25e:	4d06      	ldr	r5, [pc, #24]	; (800e278 <_close_r+0x1c>)
 800e260:	2300      	movs	r3, #0
 800e262:	4604      	mov	r4, r0
 800e264:	4608      	mov	r0, r1
 800e266:	602b      	str	r3, [r5, #0]
 800e268:	f7f5 fd98 	bl	8003d9c <_close>
 800e26c:	1c43      	adds	r3, r0, #1
 800e26e:	d102      	bne.n	800e276 <_close_r+0x1a>
 800e270:	682b      	ldr	r3, [r5, #0]
 800e272:	b103      	cbz	r3, 800e276 <_close_r+0x1a>
 800e274:	6023      	str	r3, [r4, #0]
 800e276:	bd38      	pop	{r3, r4, r5, pc}
 800e278:	200001b0 	.word	0x200001b0

0800e27c <_fstat_r>:
 800e27c:	b538      	push	{r3, r4, r5, lr}
 800e27e:	4d07      	ldr	r5, [pc, #28]	; (800e29c <_fstat_r+0x20>)
 800e280:	2300      	movs	r3, #0
 800e282:	4604      	mov	r4, r0
 800e284:	4608      	mov	r0, r1
 800e286:	4611      	mov	r1, r2
 800e288:	602b      	str	r3, [r5, #0]
 800e28a:	f7f5 fd8b 	bl	8003da4 <_fstat>
 800e28e:	1c43      	adds	r3, r0, #1
 800e290:	d102      	bne.n	800e298 <_fstat_r+0x1c>
 800e292:	682b      	ldr	r3, [r5, #0]
 800e294:	b103      	cbz	r3, 800e298 <_fstat_r+0x1c>
 800e296:	6023      	str	r3, [r4, #0]
 800e298:	bd38      	pop	{r3, r4, r5, pc}
 800e29a:	bf00      	nop
 800e29c:	200001b0 	.word	0x200001b0

0800e2a0 <_isatty_r>:
 800e2a0:	b538      	push	{r3, r4, r5, lr}
 800e2a2:	4d06      	ldr	r5, [pc, #24]	; (800e2bc <_isatty_r+0x1c>)
 800e2a4:	2300      	movs	r3, #0
 800e2a6:	4604      	mov	r4, r0
 800e2a8:	4608      	mov	r0, r1
 800e2aa:	602b      	str	r3, [r5, #0]
 800e2ac:	f7f5 fd80 	bl	8003db0 <_isatty>
 800e2b0:	1c43      	adds	r3, r0, #1
 800e2b2:	d102      	bne.n	800e2ba <_isatty_r+0x1a>
 800e2b4:	682b      	ldr	r3, [r5, #0]
 800e2b6:	b103      	cbz	r3, 800e2ba <_isatty_r+0x1a>
 800e2b8:	6023      	str	r3, [r4, #0]
 800e2ba:	bd38      	pop	{r3, r4, r5, pc}
 800e2bc:	200001b0 	.word	0x200001b0

0800e2c0 <_lseek_r>:
 800e2c0:	b538      	push	{r3, r4, r5, lr}
 800e2c2:	4d07      	ldr	r5, [pc, #28]	; (800e2e0 <_lseek_r+0x20>)
 800e2c4:	4604      	mov	r4, r0
 800e2c6:	4608      	mov	r0, r1
 800e2c8:	4611      	mov	r1, r2
 800e2ca:	2200      	movs	r2, #0
 800e2cc:	602a      	str	r2, [r5, #0]
 800e2ce:	461a      	mov	r2, r3
 800e2d0:	f7f5 fd70 	bl	8003db4 <_lseek>
 800e2d4:	1c43      	adds	r3, r0, #1
 800e2d6:	d102      	bne.n	800e2de <_lseek_r+0x1e>
 800e2d8:	682b      	ldr	r3, [r5, #0]
 800e2da:	b103      	cbz	r3, 800e2de <_lseek_r+0x1e>
 800e2dc:	6023      	str	r3, [r4, #0]
 800e2de:	bd38      	pop	{r3, r4, r5, pc}
 800e2e0:	200001b0 	.word	0x200001b0

0800e2e4 <_read_r>:
 800e2e4:	b538      	push	{r3, r4, r5, lr}
 800e2e6:	4d07      	ldr	r5, [pc, #28]	; (800e304 <_read_r+0x20>)
 800e2e8:	4604      	mov	r4, r0
 800e2ea:	4608      	mov	r0, r1
 800e2ec:	4611      	mov	r1, r2
 800e2ee:	2200      	movs	r2, #0
 800e2f0:	602a      	str	r2, [r5, #0]
 800e2f2:	461a      	mov	r2, r3
 800e2f4:	f7f5 fd36 	bl	8003d64 <_read>
 800e2f8:	1c43      	adds	r3, r0, #1
 800e2fa:	d102      	bne.n	800e302 <_read_r+0x1e>
 800e2fc:	682b      	ldr	r3, [r5, #0]
 800e2fe:	b103      	cbz	r3, 800e302 <_read_r+0x1e>
 800e300:	6023      	str	r3, [r4, #0]
 800e302:	bd38      	pop	{r3, r4, r5, pc}
 800e304:	200001b0 	.word	0x200001b0

0800e308 <_init>:
 800e308:	b5f8      	push	{r3, r4, r5, r6, r7, lr}
 800e30a:	bf00      	nop
 800e30c:	bcf8      	pop	{r3, r4, r5, r6, r7}
 800e30e:	bc08      	pop	{r3}
 800e310:	469e      	mov	lr, r3
 800e312:	4770      	bx	lr

0800e314 <_fini>:
 800e314:	b5f8      	push	{r3, r4, r5, r6, r7, lr}
 800e316:	bf00      	nop
 800e318:	bcf8      	pop	{r3, r4, r5, r6, r7}
 800e31a:	bc08      	pop	{r3}
 800e31c:	469e      	mov	lr, r3
 800e31e:	4770      	bx	lr
